ARM GAS  C:\Users\oars0\AppData\Local\Temp\ccvQMnZi.s 			page 1


   1              		.syntax unified
   2              		.cpu cortex-m3
   3              		.fpu softvfp
   4              		.eabi_attribute 20, 1
   5              		.eabi_attribute 21, 1
   6              		.eabi_attribute 23, 3
   7              		.eabi_attribute 24, 1
   8              		.eabi_attribute 25, 1
   9              		.eabi_attribute 26, 1
  10              		.eabi_attribute 30, 6
  11              		.eabi_attribute 34, 1
  12              		.eabi_attribute 18, 4
  13              		.thumb
  14              		.syntax unified
  15              		.file	"main.c"
  16              		.text
  17              	.Ltext0:
  18              		.cfi_sections	.debug_frame
  19              		.global	temp
  20              		.bss
  21              		.align	3
  22              		.type	temp, %object
  23              		.size	temp, 8
  24              	temp:
  25 0000 00000000 		.space	8
  25      00000000 
  26              		.global	range
  27              		.data
  28              		.align	2
  29              		.type	range, %object
  30              		.size	range, 4
  31              	range:
  32 0000 C2010000 		.word	450
  33              		.global	__aeabi_i2d
  34              		.global	__aeabi_ddiv
  35              		.global	__aeabi_dmul
  36              		.global	__aeabi_dsub
  37              		.global	__aeabi_d2iz
  38              		.global	__aeabi_dcmpgt
  39              		.global	__aeabi_dcmplt
  40              		.section	.text.DCMotorControl,"ax",%progbits
  41              		.align	2
  42              		.global	DCMotorControl
  43              		.thumb
  44              		.thumb_func
  45              		.type	DCMotorControl, %function
  46              	DCMotorControl:
  47              	.LFB64:
  48              		.file 1 "main.c"
   1:main.c        **** /******************************************************************************
   2:main.c        **** * File Name: main.c
   3:main.c        **** *
   4:main.c        **** * Version: 1.10
   5:main.c        **** *
   6:main.c        **** * Description: Joystick control for DC Motor. Uses joystick for speed and direction control of a dc
   7:main.c        **** *******************************************************************************/
   8:main.c        **** 
ARM GAS  C:\Users\oars0\AppData\Local\Temp\ccvQMnZi.s 			page 2


   9:main.c        **** 
  10:main.c        **** #include <project.h>
  11:main.c        **** #include <stdio.h>
  12:main.c        **** #include <stdlib.h>
  13:main.c        **** 
  14:main.c        **** double temp = 0;
  15:main.c        **** int range = 450;
  16:main.c        **** 
  17:main.c        **** 
  18:main.c        **** CY_ISR(DCMotorControl)
  19:main.c        **** {
  49              		.loc 1 19 0
  50              		.cfi_startproc
  51              		@ args = 0, pretend = 0, frame = 0
  52              		@ frame_needed = 1, uses_anonymous_args = 0
  53 0000 B0B5     		push	{r4, r5, r7, lr}
  54              		.cfi_def_cfa_offset 16
  55              		.cfi_offset 4, -16
  56              		.cfi_offset 5, -12
  57              		.cfi_offset 7, -8
  58              		.cfi_offset 14, -4
  59 0002 00AF     		add	r7, sp, #0
  60              		.cfi_def_cfa_register 7
  20:main.c        ****     ADC_StartConvert();
  61              		.loc 1 20 0
  62 0004 FFF7FEFF 		bl	ADC_StartConvert
  21:main.c        ****     ADC_IsEndConversion(ADC_WAIT_FOR_RESULT); 
  63              		.loc 1 21 0
  64 0008 0020     		movs	r0, #0
  65 000a FFF7FEFF 		bl	ADC_IsEndConversion
  22:main.c        ****     temp = (ADC_GetResult16(0)/128.0)*range-range; //reading channel zero, horizontal
  66              		.loc 1 22 0
  67 000e 0020     		movs	r0, #0
  68 0010 FFF7FEFF 		bl	ADC_GetResult16
  69 0014 0346     		mov	r3, r0
  70 0016 1846     		mov	r0, r3
  71 0018 FFF7FEFF 		bl	__aeabi_i2d
  72 001c 4FF00002 		mov	r2, #0
  73 0020 2C4B     		ldr	r3, .L12
  74 0022 FFF7FEFF 		bl	__aeabi_ddiv
  75 0026 0346     		mov	r3, r0
  76 0028 0C46     		mov	r4, r1
  77 002a 2546     		mov	r5, r4
  78 002c 1C46     		mov	r4, r3
  79 002e 2A4B     		ldr	r3, .L12+4
  80 0030 1B68     		ldr	r3, [r3]
  81 0032 1846     		mov	r0, r3
  82 0034 FFF7FEFF 		bl	__aeabi_i2d
  83 0038 0246     		mov	r2, r0
  84 003a 0B46     		mov	r3, r1
  85 003c 2046     		mov	r0, r4
  86 003e 2946     		mov	r1, r5
  87 0040 FFF7FEFF 		bl	__aeabi_dmul
  88 0044 0346     		mov	r3, r0
  89 0046 0C46     		mov	r4, r1
  90 0048 2546     		mov	r5, r4
  91 004a 1C46     		mov	r4, r3
ARM GAS  C:\Users\oars0\AppData\Local\Temp\ccvQMnZi.s 			page 3


  92 004c 224B     		ldr	r3, .L12+4
  93 004e 1B68     		ldr	r3, [r3]
  94 0050 1846     		mov	r0, r3
  95 0052 FFF7FEFF 		bl	__aeabi_i2d
  96 0056 0246     		mov	r2, r0
  97 0058 0B46     		mov	r3, r1
  98 005a 2046     		mov	r0, r4
  99 005c 2946     		mov	r1, r5
 100 005e FFF7FEFF 		bl	__aeabi_dsub
 101 0062 0346     		mov	r3, r0
 102 0064 0C46     		mov	r4, r1
 103 0066 1D4A     		ldr	r2, .L12+8
 104 0068 C2E90034 		strd	r3, [r2]
  23:main.c        ****     //temp should range from -450 to +450
  24:main.c        **** 
  25:main.c        ****     //Set PWM, 475 being ~95% duty cycle since the drivers are limited by the charge pump
  26:main.c        ****     PWM_DC_WriteCompare(abs((int)temp));
 105              		.loc 1 26 0
 106 006c 1B4B     		ldr	r3, .L12+8
 107 006e 18CB     		ldmia	r3, {r3-r4}
 108 0070 1846     		mov	r0, r3
 109 0072 2146     		mov	r1, r4
 110 0074 FFF7FEFF 		bl	__aeabi_d2iz
 111 0078 0346     		mov	r3, r0
 112 007a 002B     		cmp	r3, #0
 113 007c B8BF     		it	lt
 114 007e 5B42     		rsblt	r3, r3, #0
 115 0080 9BB2     		uxth	r3, r3
 116 0082 1846     		mov	r0, r3
 117 0084 FFF7FEFF 		bl	PWM_DC_WriteCompare
  27:main.c        ****     
  28:main.c        ****     //Set direction based on sign of temp
  29:main.c        ****     if(temp > 15){
 118              		.loc 1 29 0
 119 0088 144B     		ldr	r3, .L12+8
 120 008a D3E90001 		ldrd	r0, [r3]
 121 008e 4FF00002 		mov	r2, #0
 122 0092 134B     		ldr	r3, .L12+12
 123 0094 FFF7FEFF 		bl	__aeabi_dcmpgt
 124 0098 0346     		mov	r3, r0
 125 009a 002B     		cmp	r3, #0
 126 009c 03D0     		beq	.L9
  30:main.c        ****         //CCW
  31:main.c        ****         DriverControlReg_Write(1);
 127              		.loc 1 31 0
 128 009e 0120     		movs	r0, #1
 129 00a0 FFF7FEFF 		bl	DriverControlReg_Write
  32:main.c        ****         
  33:main.c        ****     }else if(temp < -15){   
  34:main.c        ****         //CW
  35:main.c        ****         DriverControlReg_Write(2);
  36:main.c        ****     }else{
  37:main.c        ****         /*//Brake, both grounded FETs activated... Don't do this, the source goes into over-voltage
  38:main.c        ****         DriverControlReg_Write(3);
  39:main.c        ****         PWM_DC_WriteCompare(range);
  40:main.c        ****         */
  41:main.c        ****         DriverControlReg_Write(1);
ARM GAS  C:\Users\oars0\AppData\Local\Temp\ccvQMnZi.s 			page 4


  42:main.c        ****         PWM_DC_WriteCompare(0);
  43:main.c        ****     }
  44:main.c        ****     //Don't set DriverControlReg to 0, that activates both top FETs connecting 12v to 12v.
  45:main.c        **** }
 130              		.loc 1 45 0
 131 00a4 14E0     		b	.L11
 132              	.L9:
  33:main.c        ****         //CW
 133              		.loc 1 33 0
 134 00a6 0D4B     		ldr	r3, .L12+8
 135 00a8 D3E90001 		ldrd	r0, [r3]
 136 00ac 4FF00002 		mov	r2, #0
 137 00b0 0C4B     		ldr	r3, .L12+16
 138 00b2 FFF7FEFF 		bl	__aeabi_dcmplt
 139 00b6 0346     		mov	r3, r0
 140 00b8 002B     		cmp	r3, #0
 141 00ba 03D0     		beq	.L10
  35:main.c        ****     }else{
 142              		.loc 1 35 0
 143 00bc 0220     		movs	r0, #2
 144 00be FFF7FEFF 		bl	DriverControlReg_Write
 145              		.loc 1 45 0
 146 00c2 05E0     		b	.L11
 147              	.L10:
  41:main.c        ****         PWM_DC_WriteCompare(0);
 148              		.loc 1 41 0
 149 00c4 0120     		movs	r0, #1
 150 00c6 FFF7FEFF 		bl	DriverControlReg_Write
  42:main.c        ****     }
 151              		.loc 1 42 0
 152 00ca 0020     		movs	r0, #0
 153 00cc FFF7FEFF 		bl	PWM_DC_WriteCompare
 154              	.L11:
 155              		.loc 1 45 0
 156 00d0 00BF     		nop
 157 00d2 B0BD     		pop	{r4, r5, r7, pc}
 158              	.L13:
 159              		.align	2
 160              	.L12:
 161 00d4 00006040 		.word	1080033280
 162 00d8 00000000 		.word	range
 163 00dc 00000000 		.word	temp
 164 00e0 00002E40 		.word	1076756480
 165 00e4 00002EC0 		.word	-1070727168
 166              		.cfi_endproc
 167              	.LFE64:
 168              		.size	DCMotorControl, .-DCMotorControl
 169              		.section	.rodata
 170              		.align	2
 171              	.LC0:
 172 0000 55415254 		.ascii	"UART Open\012\000"
 172      204F7065 
 172      6E0A00
 173 000b 00       		.align	2
 174              	.LC1:
 175 000c 74656D70 		.ascii	"temp:%i\012\000"
 175      3A25690A 
ARM GAS  C:\Users\oars0\AppData\Local\Temp\ccvQMnZi.s 			page 5


 175      00
 176              		.section	.text.main,"ax",%progbits
 177              		.align	2
 178              		.global	main
 179              		.thumb
 180              		.thumb_func
 181              		.type	main, %function
 182              	main:
 183              	.LFB65:
  46:main.c        **** 
  47:main.c        **** 
  48:main.c        **** CY_ISR(DCMotorControl);
  49:main.c        **** 
  50:main.c        **** 
  51:main.c        **** int main()
  52:main.c        **** {
 184              		.loc 1 52 0
 185              		.cfi_startproc
 186              		@ args = 0, pretend = 0, frame = 104
 187              		@ frame_needed = 1, uses_anonymous_args = 0
 188 0000 90B5     		push	{r4, r7, lr}
 189              		.cfi_def_cfa_offset 12
 190              		.cfi_offset 4, -12
 191              		.cfi_offset 7, -8
 192              		.cfi_offset 14, -4
 193 0002 9BB0     		sub	sp, sp, #108
 194              		.cfi_def_cfa_offset 120
 195 0004 00AF     		add	r7, sp, #0
 196              		.cfi_def_cfa_register 7
  53:main.c        **** 	CYGlobalIntEnable;                        		/* Enable Global Interrupts */
 197              		.loc 1 53 0
 198              		.syntax unified
 199              	@ 53 "main.c" 1
 200 0006 62B6     		CPSIE   i
 201              	@ 0 "" 2
  54:main.c        **** 	
  55:main.c        ****     
  56:main.c        ****     PWM_DC_Start();
 202              		.loc 1 56 0
 203              		.thumb
 204              		.syntax unified
 205 0008 FFF7FEFF 		bl	PWM_DC_Start
  57:main.c        ****     ADC_Start();
 206              		.loc 1 57 0
 207 000c FFF7FEFF 		bl	ADC_Start
  58:main.c        ****     UART_Start();
 208              		.loc 1 58 0
 209 0010 FFF7FEFF 		bl	UART_Start
  59:main.c        ****     UART_PutString("UART Open\n");
 210              		.loc 1 59 0
 211 0014 0C48     		ldr	r0, .L16
 212 0016 FFF7FEFF 		bl	UART_PutString
  60:main.c        ****     char buffer[100];
  61:main.c        ****     ISR_DCMotorControl_StartEx(DCMotorControl);
 213              		.loc 1 61 0
 214 001a 0C48     		ldr	r0, .L16+4
 215 001c FFF7FEFF 		bl	ISR_DCMotorControl_StartEx
ARM GAS  C:\Users\oars0\AppData\Local\Temp\ccvQMnZi.s 			page 6


 216              	.L15:
  62:main.c        ****     
  63:main.c        ****     
  64:main.c        ****     
  65:main.c        **** 	for(;;)
  66:main.c        ****     {
  67:main.c        ****         
  68:main.c        ****         
  69:main.c        ****         sprintf(buffer, "temp:%i\n", (int)temp);
 217              		.loc 1 69 0 discriminator 1
 218 0020 0B4B     		ldr	r3, .L16+8
 219 0022 18CB     		ldmia	r3, {r3-r4}
 220 0024 1846     		mov	r0, r3
 221 0026 2146     		mov	r1, r4
 222 0028 FFF7FEFF 		bl	__aeabi_d2iz
 223 002c 0246     		mov	r2, r0
 224 002e 3B1D     		adds	r3, r7, #4
 225 0030 0849     		ldr	r1, .L16+12
 226 0032 1846     		mov	r0, r3
 227 0034 FFF7FEFF 		bl	sprintf
  70:main.c        ****         UART_PutString(buffer);
 228              		.loc 1 70 0 discriminator 1
 229 0038 3B1D     		adds	r3, r7, #4
 230 003a 1846     		mov	r0, r3
 231 003c FFF7FEFF 		bl	UART_PutString
  71:main.c        ****         
  72:main.c        **** 		CyDelay(1);
 232              		.loc 1 72 0 discriminator 1
 233 0040 0120     		movs	r0, #1
 234 0042 FFF7FEFF 		bl	CyDelay
  73:main.c        **** 	}
 235              		.loc 1 73 0 discriminator 1
 236 0046 EBE7     		b	.L15
 237              	.L17:
 238              		.align	2
 239              	.L16:
 240 0048 00000000 		.word	.LC0
 241 004c 00000000 		.word	DCMotorControl
 242 0050 00000000 		.word	temp
 243 0054 0C000000 		.word	.LC1
 244              		.cfi_endproc
 245              	.LFE65:
 246              		.size	main, .-main
 247              		.text
 248              	.Letext0:
 249              		.file 2 "c:\\program files (x86)\\cypress\\psoc creator\\4.4\\psoc creator\\import\\gnu\\arm\\5.4.
 250              		.file 3 "c:\\program files (x86)\\cypress\\psoc creator\\4.4\\psoc creator\\import\\gnu\\arm\\5.4.
 251              		.file 4 "Generated_Source\\PSoC5/core_cm3.h"