ARM GAS  C:\Users\oars0\AppData\Local\Temp\cc6SrMpq.s 			page 1


   1              		.syntax unified
   2              		.cpu cortex-m0plus
   3              		.fpu softvfp
   4              		.eabi_attribute 20, 1
   5              		.eabi_attribute 21, 1
   6              		.eabi_attribute 23, 3
   7              		.eabi_attribute 24, 1
   8              		.eabi_attribute 25, 1
   9              		.eabi_attribute 26, 1
  10              		.eabi_attribute 30, 1
  11              		.eabi_attribute 34, 0
  12              		.eabi_attribute 18, 4
  13              		.thumb
  14              		.syntax unified
  15              		.file	"IDAC7_1.c"
  16              		.text
  17              	.Ltext0:
  18              		.cfi_sections	.debug_frame
  19              		.section	.text.IDAC7_1_Enable,"ax",%progbits
  20              		.align	2
  21              		.global	IDAC7_1_Enable
  22              		.code	16
  23              		.thumb_func
  24              		.type	IDAC7_1_Enable, %function
  25              	IDAC7_1_Enable:
  26              	.LFB46:
  27              		.file 1 "Generated_Source\\PSoC6\\IDAC7_1.c"
   1:Generated_Source\PSoC6/IDAC7_1.c **** /***************************************************************************//**
   2:Generated_Source\PSoC6/IDAC7_1.c **** * \file IDAC7_1.c
   3:Generated_Source\PSoC6/IDAC7_1.c **** * \version 1.0
   4:Generated_Source\PSoC6/IDAC7_1.c **** *
   5:Generated_Source\PSoC6/IDAC7_1.c **** * \brief
   6:Generated_Source\PSoC6/IDAC7_1.c **** *  This file provides the source code of APIs for the IDAC7 component.
   7:Generated_Source\PSoC6/IDAC7_1.c **** *
   8:Generated_Source\PSoC6/IDAC7_1.c **** *******************************************************************************
   9:Generated_Source\PSoC6/IDAC7_1.c **** * \copyright
  10:Generated_Source\PSoC6/IDAC7_1.c **** * Copyright 2017, Cypress Semiconductor Corporation.  All rights reserved.
  11:Generated_Source\PSoC6/IDAC7_1.c **** * You may use this file only in accordance with the license, terms, conditions,
  12:Generated_Source\PSoC6/IDAC7_1.c **** * disclaimers, and limitations in the end user license agreement accompanying
  13:Generated_Source\PSoC6/IDAC7_1.c **** * the software package with which this file was provided.
  14:Generated_Source\PSoC6/IDAC7_1.c **** *******************************************************************************/
  15:Generated_Source\PSoC6/IDAC7_1.c **** 
  16:Generated_Source\PSoC6/IDAC7_1.c **** #include "IDAC7_1.h"
  17:Generated_Source\PSoC6/IDAC7_1.c **** 
  18:Generated_Source\PSoC6/IDAC7_1.c **** uint32_t IDAC7_1_initVar = 0u;
  19:Generated_Source\PSoC6/IDAC7_1.c **** 
  20:Generated_Source\PSoC6/IDAC7_1.c **** 
  21:Generated_Source\PSoC6/IDAC7_1.c **** /*******************************************************************************
  22:Generated_Source\PSoC6/IDAC7_1.c **** * Function Name: IDAC7_1_Init
  23:Generated_Source\PSoC6/IDAC7_1.c **** ****************************************************************************//**
  24:Generated_Source\PSoC6/IDAC7_1.c **** *
  25:Generated_Source\PSoC6/IDAC7_1.c **** *  Initializes all initial parameters and operating modes.
  26:Generated_Source\PSoC6/IDAC7_1.c **** *
  27:Generated_Source\PSoC6/IDAC7_1.c **** *******************************************************************************/
  28:Generated_Source\PSoC6/IDAC7_1.c **** void IDAC7_1_Init(void)
  29:Generated_Source\PSoC6/IDAC7_1.c **** {
  30:Generated_Source\PSoC6/IDAC7_1.c ****     uint32_t interruptState;
ARM GAS  C:\Users\oars0\AppData\Local\Temp\cc6SrMpq.s 			page 2


  31:Generated_Source\PSoC6/IDAC7_1.c ****     uint32_t newRegisterValue;
  32:Generated_Source\PSoC6/IDAC7_1.c **** 
  33:Generated_Source\PSoC6/IDAC7_1.c ****     /* Set IDAC default values */
  34:Generated_Source\PSoC6/IDAC7_1.c ****     interruptState = CyEnterCriticalSection();
  35:Generated_Source\PSoC6/IDAC7_1.c **** 
  36:Generated_Source\PSoC6/IDAC7_1.c ****     newRegisterValue = (uint32_t)IDAC7_1_IDAC_CONTROL_REG;
  37:Generated_Source\PSoC6/IDAC7_1.c ****     newRegisterValue &= (uint32_t)(~IDAC7_1_POLY_DYN  &
  38:Generated_Source\PSoC6/IDAC7_1.c ****                                  ~IDAC7_1_LEG1_MODE_MASK &
  39:Generated_Source\PSoC6/IDAC7_1.c ****                                  ~IDAC7_1_LEG2_MODE_MASK &
  40:Generated_Source\PSoC6/IDAC7_1.c ****                                  ~IDAC7_1_DSI_CTRL_EN);
  41:Generated_Source\PSoC6/IDAC7_1.c ****     IDAC7_1_IDAC_CONTROL_REG = newRegisterValue;
  42:Generated_Source\PSoC6/IDAC7_1.c **** 
  43:Generated_Source\PSoC6/IDAC7_1.c ****     CyExitCriticalSection(interruptState);
  44:Generated_Source\PSoC6/IDAC7_1.c **** 
  45:Generated_Source\PSoC6/IDAC7_1.c ****     /* Set initial configuration */
  46:Generated_Source\PSoC6/IDAC7_1.c ****     IDAC7_1_SetValue(IDAC7_1_CURRENT_VALUE);
  47:Generated_Source\PSoC6/IDAC7_1.c ****     IDAC7_1_SetPolarity(IDAC7_1_CURRENT_POLARITY);
  48:Generated_Source\PSoC6/IDAC7_1.c ****     IDAC7_1_SetRange(IDAC7_1_CURRENT_RANGE);
  49:Generated_Source\PSoC6/IDAC7_1.c **** }
  50:Generated_Source\PSoC6/IDAC7_1.c **** 
  51:Generated_Source\PSoC6/IDAC7_1.c **** 
  52:Generated_Source\PSoC6/IDAC7_1.c **** /*******************************************************************************
  53:Generated_Source\PSoC6/IDAC7_1.c **** * Function Name: IDAC7_1_Enable
  54:Generated_Source\PSoC6/IDAC7_1.c **** ****************************************************************************//**
  55:Generated_Source\PSoC6/IDAC7_1.c **** *
  56:Generated_Source\PSoC6/IDAC7_1.c **** *  Enables the IDAC for operation.
  57:Generated_Source\PSoC6/IDAC7_1.c **** *
  58:Generated_Source\PSoC6/IDAC7_1.c **** *******************************************************************************/
  59:Generated_Source\PSoC6/IDAC7_1.c **** void IDAC7_1_Enable(void)
  60:Generated_Source\PSoC6/IDAC7_1.c **** {
  28              		.loc 1 60 0
  29              		.cfi_startproc
  30              		@ args = 0, pretend = 0, frame = 0
  31              		@ frame_needed = 0, uses_anonymous_args = 0
  32 0000 10B5     		push	{r4, lr}
  33              		.cfi_def_cfa_offset 8
  34              		.cfi_offset 4, -8
  35              		.cfi_offset 14, -4
  61:Generated_Source\PSoC6/IDAC7_1.c ****     uint32_t interruptState;
  62:Generated_Source\PSoC6/IDAC7_1.c ****     uint32_t newRegisterValue;
  63:Generated_Source\PSoC6/IDAC7_1.c **** 	
  64:Generated_Source\PSoC6/IDAC7_1.c ****     interruptState = CyEnterCriticalSection();
  36              		.loc 1 64 0
  37 0002 FFF7FEFF 		bl	Cy_SysLib_EnterCriticalSection
  38              	.LVL0:
  39 0006 FF23     		movs	r3, #255
  40 0008 1840     		ands	r0, r3
  41              	.LVL1:
  65:Generated_Source\PSoC6/IDAC7_1.c **** 
  66:Generated_Source\PSoC6/IDAC7_1.c ****     /* Enable CSD */
  67:Generated_Source\PSoC6/IDAC7_1.c **** 	newRegisterValue = (uint32_t)IDAC7_1_CSD_CONTROL_REG;
  42              		.loc 1 67 0
  43 000a 044A     		ldr	r2, .L2
  44 000c 1368     		ldr	r3, [r2]
  45              	.LVL2:
  68:Generated_Source\PSoC6/IDAC7_1.c ****     newRegisterValue |= (IDAC7_1_CSD_CONFIG_ENABLE | IDAC7_1_CSD_CONFIG_SENSE_EN);
  46              		.loc 1 68 0
ARM GAS  C:\Users\oars0\AppData\Local\Temp\cc6SrMpq.s 			page 3


  47 000e 0449     		ldr	r1, .L2+4
  48 0010 0B43     		orrs	r3, r1
  49              	.LVL3:
  69:Generated_Source\PSoC6/IDAC7_1.c ****     IDAC7_1_CSD_CONTROL_REG = newRegisterValue;
  50              		.loc 1 69 0
  51 0012 1360     		str	r3, [r2]
  70:Generated_Source\PSoC6/IDAC7_1.c **** 
  71:Generated_Source\PSoC6/IDAC7_1.c ****     CyExitCriticalSection(interruptState);
  52              		.loc 1 71 0
  53 0014 FFF7FEFF 		bl	Cy_SysLib_ExitCriticalSection
  54              	.LVL4:
  72:Generated_Source\PSoC6/IDAC7_1.c **** }
  55              		.loc 1 72 0
  56              		@ sp needed
  57 0018 10BD     		pop	{r4, pc}
  58              	.L3:
  59 001a C046     		.align	2
  60              	.L2:
  61 001c 00003640 		.word	1077280768
  62 0020 00100080 		.word	-2147479552
  63              		.cfi_endproc
  64              	.LFE46:
  65              		.size	IDAC7_1_Enable, .-IDAC7_1_Enable
  66              		.section	.text.IDAC7_1_Stop,"ax",%progbits
  67              		.align	2
  68              		.global	IDAC7_1_Stop
  69              		.code	16
  70              		.thumb_func
  71              		.type	IDAC7_1_Stop, %function
  72              	IDAC7_1_Stop:
  73              	.LFB48:
  73:Generated_Source\PSoC6/IDAC7_1.c **** 
  74:Generated_Source\PSoC6/IDAC7_1.c **** 
  75:Generated_Source\PSoC6/IDAC7_1.c **** /*******************************************************************************
  76:Generated_Source\PSoC6/IDAC7_1.c **** * Function Name: IDAC7_1_Start
  77:Generated_Source\PSoC6/IDAC7_1.c **** ****************************************************************************//**
  78:Generated_Source\PSoC6/IDAC7_1.c **** *
  79:Generated_Source\PSoC6/IDAC7_1.c **** *  Initializes all the parameters required to setup the component as defined
  80:Generated_Source\PSoC6/IDAC7_1.c **** *  in the customizer.
  81:Generated_Source\PSoC6/IDAC7_1.c **** *
  82:Generated_Source\PSoC6/IDAC7_1.c **** *  This component does not stop the CSD IP block. One possible way to turn off 
  83:Generated_Source\PSoC6/IDAC7_1.c **** *  the entire CSD block is to use a specific define (IDAC7_1_CSD_CONFIG_ENABLE) 
  84:Generated_Source\PSoC6/IDAC7_1.c **** *  for the m0s8csdv2 IP block control register (IDAC7_1_CSD_CONTROL_REG): 
  85:Generated_Source\PSoC6/IDAC7_1.c **** *  IDAC7_1_CSD_CONTROL_REG &= ~IDAC7_1_CSD_CONFIG_ENABLE
  86:Generated_Source\PSoC6/IDAC7_1.c **** *
  87:Generated_Source\PSoC6/IDAC7_1.c **** * \globalvars
  88:Generated_Source\PSoC6/IDAC7_1.c **** *  \ref IDAC7_1_initVar - this variable is used to indicate the initial
  89:Generated_Source\PSoC6/IDAC7_1.c **** *  configuration of this component. The variable is initialized to zero and
  90:Generated_Source\PSoC6/IDAC7_1.c **** *  set to 1 the first time IDAC7_1_Start() is called. This allows
  91:Generated_Source\PSoC6/IDAC7_1.c **** *  the component initialization without re-initialization in all subsequent
  92:Generated_Source\PSoC6/IDAC7_1.c **** *  calls to the IDAC7_1_Start() routine.
  93:Generated_Source\PSoC6/IDAC7_1.c **** *
  94:Generated_Source\PSoC6/IDAC7_1.c **** *******************************************************************************/
  95:Generated_Source\PSoC6/IDAC7_1.c **** void IDAC7_1_Start(void)
  96:Generated_Source\PSoC6/IDAC7_1.c **** {
  97:Generated_Source\PSoC6/IDAC7_1.c ****     if(0u == IDAC7_1_initVar)
  98:Generated_Source\PSoC6/IDAC7_1.c ****     {
ARM GAS  C:\Users\oars0\AppData\Local\Temp\cc6SrMpq.s 			page 4


  99:Generated_Source\PSoC6/IDAC7_1.c ****         IDAC7_1_Init();
 100:Generated_Source\PSoC6/IDAC7_1.c ****         IDAC7_1_initVar = 1u;
 101:Generated_Source\PSoC6/IDAC7_1.c ****     }
 102:Generated_Source\PSoC6/IDAC7_1.c **** 
 103:Generated_Source\PSoC6/IDAC7_1.c ****     IDAC7_1_Enable();
 104:Generated_Source\PSoC6/IDAC7_1.c **** }
 105:Generated_Source\PSoC6/IDAC7_1.c **** 
 106:Generated_Source\PSoC6/IDAC7_1.c **** 
 107:Generated_Source\PSoC6/IDAC7_1.c **** /*******************************************************************************
 108:Generated_Source\PSoC6/IDAC7_1.c **** * Function Name: IDAC7_1_Stop
 109:Generated_Source\PSoC6/IDAC7_1.c **** ****************************************************************************//**
 110:Generated_Source\PSoC6/IDAC7_1.c **** *
 111:Generated_Source\PSoC6/IDAC7_1.c **** *  The Stop is not required.
 112:Generated_Source\PSoC6/IDAC7_1.c **** *
 113:Generated_Source\PSoC6/IDAC7_1.c **** *  This component does not stop the CSD IP block. One possible way to turn off 
 114:Generated_Source\PSoC6/IDAC7_1.c **** *  the entire CSD block is to use a specific define (IDAC7_1_CSD_CONFIG_ENABLE) 
 115:Generated_Source\PSoC6/IDAC7_1.c **** *  for the m0s8csdv2 IP block control register (IDAC7_1_CSD_CONTROL_REG): 
 116:Generated_Source\PSoC6/IDAC7_1.c **** *  IDAC7_1_CSD_CONTROL_REG &= ~IDAC7_1_CSD_CONFIG_ENABLE
 117:Generated_Source\PSoC6/IDAC7_1.c **** *
 118:Generated_Source\PSoC6/IDAC7_1.c **** *******************************************************************************/
 119:Generated_Source\PSoC6/IDAC7_1.c **** void IDAC7_1_Stop(void)
 120:Generated_Source\PSoC6/IDAC7_1.c **** {
  74              		.loc 1 120 0
  75              		.cfi_startproc
  76              		@ args = 0, pretend = 0, frame = 0
  77              		@ frame_needed = 0, uses_anonymous_args = 0
  78              		@ link register save eliminated.
 121:Generated_Source\PSoC6/IDAC7_1.c ****     /* Do nothing */
 122:Generated_Source\PSoC6/IDAC7_1.c **** }
  79              		.loc 1 122 0
  80              		@ sp needed
  81 0000 7047     		bx	lr
  82              		.cfi_endproc
  83              	.LFE48:
  84              		.size	IDAC7_1_Stop, .-IDAC7_1_Stop
  85 0002 C046     		.section	.text.IDAC7_1_SetValue,"ax",%progbits
  86              		.align	2
  87              		.global	IDAC7_1_SetValue
  88              		.code	16
  89              		.thumb_func
  90              		.type	IDAC7_1_SetValue, %function
  91              	IDAC7_1_SetValue:
  92              	.LFB49:
 123:Generated_Source\PSoC6/IDAC7_1.c **** 
 124:Generated_Source\PSoC6/IDAC7_1.c **** 
 125:Generated_Source\PSoC6/IDAC7_1.c **** /*******************************************************************************
 126:Generated_Source\PSoC6/IDAC7_1.c **** * Function Name: IDAC7_1_SetValue
 127:Generated_Source\PSoC6/IDAC7_1.c **** ****************************************************************************//**
 128:Generated_Source\PSoC6/IDAC7_1.c **** *
 129:Generated_Source\PSoC6/IDAC7_1.c **** *  Sets the IDAC current to the new value.
 130:Generated_Source\PSoC6/IDAC7_1.c **** *
 131:Generated_Source\PSoC6/IDAC7_1.c **** *  \param uint32_t current: The current value
 132:Generated_Source\PSoC6/IDAC7_1.c **** *  * Valid range    : [0 - 127]
 133:Generated_Source\PSoC6/IDAC7_1.c **** *
 134:Generated_Source\PSoC6/IDAC7_1.c **** *******************************************************************************/
 135:Generated_Source\PSoC6/IDAC7_1.c **** void IDAC7_1_SetValue(uint32_t current)
 136:Generated_Source\PSoC6/IDAC7_1.c **** {
ARM GAS  C:\Users\oars0\AppData\Local\Temp\cc6SrMpq.s 			page 5


  93              		.loc 1 136 0
  94              		.cfi_startproc
  95              		@ args = 0, pretend = 0, frame = 0
  96              		@ frame_needed = 0, uses_anonymous_args = 0
  97              	.LVL5:
  98 0000 70B5     		push	{r4, r5, r6, lr}
  99              		.cfi_def_cfa_offset 16
 100              		.cfi_offset 4, -16
 101              		.cfi_offset 5, -12
 102              		.cfi_offset 6, -8
 103              		.cfi_offset 14, -4
 104 0002 0400     		movs	r4, r0
 137:Generated_Source\PSoC6/IDAC7_1.c ****     uint32_t interruptState;
 138:Generated_Source\PSoC6/IDAC7_1.c ****     uint32_t newRegisterValue;
 139:Generated_Source\PSoC6/IDAC7_1.c **** 
 140:Generated_Source\PSoC6/IDAC7_1.c ****     interruptState = CyEnterCriticalSection();
 105              		.loc 1 140 0
 106 0004 FFF7FEFF 		bl	Cy_SysLib_EnterCriticalSection
 107              	.LVL6:
 108 0008 FF23     		movs	r3, #255
 109 000a 1840     		ands	r0, r3
 110              	.LVL7:
 141:Generated_Source\PSoC6/IDAC7_1.c **** 
 142:Generated_Source\PSoC6/IDAC7_1.c ****     newRegisterValue = (uint32_t)IDAC7_1_IDAC_CONTROL_REG & ~IDAC7_1_CURRENT_VALUE_MASK;
 111              		.loc 1 142 0
 112 000c 0549     		ldr	r1, .L6
 113 000e 8022     		movs	r2, #128
 114 0010 D200     		lsls	r2, r2, #3
 115 0012 8B58     		ldr	r3, [r1, r2]
 116 0014 7F25     		movs	r5, #127
 117 0016 AB43     		bics	r3, r5
 118              	.LVL8:
 143:Generated_Source\PSoC6/IDAC7_1.c **** 
 144:Generated_Source\PSoC6/IDAC7_1.c ****     newRegisterValue |= ((current << IDAC7_1_CURRENT_VALUE_POS) & IDAC7_1_CURRENT_VALUE_MASK);
 119              		.loc 1 144 0
 120 0018 2C40     		ands	r4, r5
 121              	.LVL9:
 122 001a 1C43     		orrs	r4, r3
 123              	.LVL10:
 145:Generated_Source\PSoC6/IDAC7_1.c **** 
 146:Generated_Source\PSoC6/IDAC7_1.c ****     IDAC7_1_IDAC_CONTROL_REG = newRegisterValue;
 124              		.loc 1 146 0
 125 001c 8C50     		str	r4, [r1, r2]
 147:Generated_Source\PSoC6/IDAC7_1.c **** 
 148:Generated_Source\PSoC6/IDAC7_1.c ****     CyExitCriticalSection(interruptState);
 126              		.loc 1 148 0
 127 001e FFF7FEFF 		bl	Cy_SysLib_ExitCriticalSection
 128              	.LVL11:
 149:Generated_Source\PSoC6/IDAC7_1.c **** }
 129              		.loc 1 149 0
 130              		@ sp needed
 131              	.LVL12:
 132 0022 70BD     		pop	{r4, r5, r6, pc}
 133              	.L7:
 134              		.align	2
 135              	.L6:
 136 0024 00003640 		.word	1077280768
ARM GAS  C:\Users\oars0\AppData\Local\Temp\cc6SrMpq.s 			page 6


 137              		.cfi_endproc
 138              	.LFE49:
 139              		.size	IDAC7_1_SetValue, .-IDAC7_1_SetValue
 140              		.section	.text.IDAC7_1_SetPolarity,"ax",%progbits
 141              		.align	2
 142              		.global	IDAC7_1_SetPolarity
 143              		.code	16
 144              		.thumb_func
 145              		.type	IDAC7_1_SetPolarity, %function
 146              	IDAC7_1_SetPolarity:
 147              	.LFB50:
 150:Generated_Source\PSoC6/IDAC7_1.c **** 
 151:Generated_Source\PSoC6/IDAC7_1.c **** 
 152:Generated_Source\PSoC6/IDAC7_1.c **** /*******************************************************************************
 153:Generated_Source\PSoC6/IDAC7_1.c **** * Function Name: IDAC7_1_SetPolarity
 154:Generated_Source\PSoC6/IDAC7_1.c **** ****************************************************************************//**
 155:Generated_Source\PSoC6/IDAC7_1.c **** *
 156:Generated_Source\PSoC6/IDAC7_1.c **** *  Sets polarity to either sink or source.
 157:Generated_Source\PSoC6/IDAC7_1.c **** *
 158:Generated_Source\PSoC6/IDAC7_1.c **** *  \param uint32_t polarity: Current polarity
 159:Generated_Source\PSoC6/IDAC7_1.c **** *  * IDAC7_1_POL_SOURCE   : Source polarity
 160:Generated_Source\PSoC6/IDAC7_1.c **** *  * IDAC7_1_POL_SINK     : Sink polarity
 161:Generated_Source\PSoC6/IDAC7_1.c **** *
 162:Generated_Source\PSoC6/IDAC7_1.c **** *******************************************************************************/
 163:Generated_Source\PSoC6/IDAC7_1.c **** void IDAC7_1_SetPolarity(uint32_t polarity)
 164:Generated_Source\PSoC6/IDAC7_1.c **** {
 148              		.loc 1 164 0
 149              		.cfi_startproc
 150              		@ args = 0, pretend = 0, frame = 0
 151              		@ frame_needed = 0, uses_anonymous_args = 0
 152              	.LVL13:
 153 0000 70B5     		push	{r4, r5, r6, lr}
 154              		.cfi_def_cfa_offset 16
 155              		.cfi_offset 4, -16
 156              		.cfi_offset 5, -12
 157              		.cfi_offset 6, -8
 158              		.cfi_offset 14, -4
 159 0002 0400     		movs	r4, r0
 165:Generated_Source\PSoC6/IDAC7_1.c ****     uint32_t interruptState;
 166:Generated_Source\PSoC6/IDAC7_1.c ****     uint32_t newRegisterValue;
 167:Generated_Source\PSoC6/IDAC7_1.c **** 
 168:Generated_Source\PSoC6/IDAC7_1.c ****     interruptState = CyEnterCriticalSection();
 160              		.loc 1 168 0
 161 0004 FFF7FEFF 		bl	Cy_SysLib_EnterCriticalSection
 162              	.LVL14:
 163 0008 FF23     		movs	r3, #255
 164 000a 1840     		ands	r0, r3
 165              	.LVL15:
 169:Generated_Source\PSoC6/IDAC7_1.c **** 
 170:Generated_Source\PSoC6/IDAC7_1.c ****     newRegisterValue = (uint32_t)IDAC7_1_IDAC_CONTROL_REG & ~IDAC7_1_POLARITY_MASK;
 166              		.loc 1 170 0
 167 000c 074E     		ldr	r6, .L9
 168 000e 8025     		movs	r5, #128
 169 0010 ED00     		lsls	r5, r5, #3
 170 0012 7359     		ldr	r3, [r6, r5]
 171 0014 064A     		ldr	r2, .L9+4
 172 0016 1340     		ands	r3, r2
ARM GAS  C:\Users\oars0\AppData\Local\Temp\cc6SrMpq.s 			page 7


 173 0018 1900     		movs	r1, r3
 174              	.LVL16:
 171:Generated_Source\PSoC6/IDAC7_1.c **** 
 172:Generated_Source\PSoC6/IDAC7_1.c ****     newRegisterValue |= ((polarity << IDAC7_1_POLARITY_POS) & IDAC7_1_POLARITY_MASK);
 175              		.loc 1 172 0
 176 001a 2302     		lsls	r3, r4, #8
 177 001c C022     		movs	r2, #192
 178 001e 9200     		lsls	r2, r2, #2
 179 0020 1340     		ands	r3, r2
 180 0022 0B43     		orrs	r3, r1
 181              	.LVL17:
 173:Generated_Source\PSoC6/IDAC7_1.c **** 
 174:Generated_Source\PSoC6/IDAC7_1.c ****     IDAC7_1_IDAC_CONTROL_REG = newRegisterValue;
 182              		.loc 1 174 0
 183 0024 7351     		str	r3, [r6, r5]
 175:Generated_Source\PSoC6/IDAC7_1.c **** 
 176:Generated_Source\PSoC6/IDAC7_1.c ****     CyExitCriticalSection(interruptState);
 184              		.loc 1 176 0
 185 0026 FFF7FEFF 		bl	Cy_SysLib_ExitCriticalSection
 186              	.LVL18:
 177:Generated_Source\PSoC6/IDAC7_1.c **** }
 187              		.loc 1 177 0
 188              		@ sp needed
 189              	.LVL19:
 190 002a 70BD     		pop	{r4, r5, r6, pc}
 191              	.L10:
 192              		.align	2
 193              	.L9:
 194 002c 00003640 		.word	1077280768
 195 0030 FFFCFFFF 		.word	-769
 196              		.cfi_endproc
 197              	.LFE50:
 198              		.size	IDAC7_1_SetPolarity, .-IDAC7_1_SetPolarity
 199              		.section	.text.IDAC7_1_SetRange,"ax",%progbits
 200              		.align	2
 201              		.global	IDAC7_1_SetRange
 202              		.code	16
 203              		.thumb_func
 204              		.type	IDAC7_1_SetRange, %function
 205              	IDAC7_1_SetRange:
 206              	.LFB51:
 178:Generated_Source\PSoC6/IDAC7_1.c **** 
 179:Generated_Source\PSoC6/IDAC7_1.c **** 
 180:Generated_Source\PSoC6/IDAC7_1.c **** /*******************************************************************************
 181:Generated_Source\PSoC6/IDAC7_1.c **** * Function Name: IDAC7_1_SetRange
 182:Generated_Source\PSoC6/IDAC7_1.c **** ****************************************************************************//**
 183:Generated_Source\PSoC6/IDAC7_1.c **** *
 184:Generated_Source\PSoC6/IDAC7_1.c **** * Sets the IDAC range to one of the six ranges.
 185:Generated_Source\PSoC6/IDAC7_1.c **** *
 186:Generated_Source\PSoC6/IDAC7_1.c **** *  \param uint32_t range: Current range
 187:Generated_Source\PSoC6/IDAC7_1.c **** *  * IDAC7_1_RNG_4_96UA   : 39.06 nA/bit current range
 188:Generated_Source\PSoC6/IDAC7_1.c **** *  * IDAC7_1_RNG_9_922UA   : 78.125 nA/bit current range
 189:Generated_Source\PSoC6/IDAC7_1.c **** *  * IDAC7_1_RNG_39_69UA   : 312.5 nA/bit current range
 190:Generated_Source\PSoC6/IDAC7_1.c **** *  * IDAC7_1_RNG_79_38UA   : 625 nA/bit current range
 191:Generated_Source\PSoC6/IDAC7_1.c **** *  * IDAC7_1_RNG_317_5UA  : 2.5 uA/bit current range
 192:Generated_Source\PSoC6/IDAC7_1.c **** *  * IDAC7_1_RNG_635_0UA  : 5.0 uA/bit current range
 193:Generated_Source\PSoC6/IDAC7_1.c **** *
ARM GAS  C:\Users\oars0\AppData\Local\Temp\cc6SrMpq.s 			page 8


 194:Generated_Source\PSoC6/IDAC7_1.c **** *******************************************************************************/
 195:Generated_Source\PSoC6/IDAC7_1.c **** void IDAC7_1_SetRange(uint32_t range)
 196:Generated_Source\PSoC6/IDAC7_1.c **** {
 207              		.loc 1 196 0
 208              		.cfi_startproc
 209              		@ args = 0, pretend = 0, frame = 0
 210              		@ frame_needed = 0, uses_anonymous_args = 0
 211              	.LVL20:
 212 0000 70B5     		push	{r4, r5, r6, lr}
 213              		.cfi_def_cfa_offset 16
 214              		.cfi_offset 4, -16
 215              		.cfi_offset 5, -12
 216              		.cfi_offset 6, -8
 217              		.cfi_offset 14, -4
 218 0002 0400     		movs	r4, r0
 197:Generated_Source\PSoC6/IDAC7_1.c ****     uint32_t interruptState;
 198:Generated_Source\PSoC6/IDAC7_1.c ****     uint32_t newRegisterValue;
 199:Generated_Source\PSoC6/IDAC7_1.c **** 
 200:Generated_Source\PSoC6/IDAC7_1.c ****     interruptState = CyEnterCriticalSection();
 219              		.loc 1 200 0
 220 0004 FFF7FEFF 		bl	Cy_SysLib_EnterCriticalSection
 221              	.LVL21:
 222 0008 FF23     		movs	r3, #255
 223 000a 1840     		ands	r0, r3
 224              	.LVL22:
 201:Generated_Source\PSoC6/IDAC7_1.c **** 
 202:Generated_Source\PSoC6/IDAC7_1.c ****     newRegisterValue = (uint32_t)IDAC7_1_IDAC_CONTROL_REG & (~IDAC7_1_RANGE_MASK    &
 225              		.loc 1 202 0
 226 000c 0549     		ldr	r1, .L12
 227 000e 8022     		movs	r2, #128
 228 0010 D200     		lsls	r2, r2, #3
 229 0012 8D58     		ldr	r5, [r1, r2]
 230 0014 044B     		ldr	r3, .L12+4
 231 0016 2B40     		ands	r3, r5
 232              	.LVL23:
 203:Generated_Source\PSoC6/IDAC7_1.c ****                                                             ~IDAC7_1_LEG1_EN       &
 204:Generated_Source\PSoC6/IDAC7_1.c ****                                                             ~IDAC7_1_LEG2_EN);
 205:Generated_Source\PSoC6/IDAC7_1.c **** 
 206:Generated_Source\PSoC6/IDAC7_1.c ****     newRegisterValue |= (range << IDAC7_1_RANGE_POS);
 233              		.loc 1 206 0
 234 0018 A405     		lsls	r4, r4, #22
 235              	.LVL24:
 236 001a 1C43     		orrs	r4, r3
 237              	.LVL25:
 207:Generated_Source\PSoC6/IDAC7_1.c **** 
 208:Generated_Source\PSoC6/IDAC7_1.c ****     IDAC7_1_IDAC_CONTROL_REG = newRegisterValue;
 238              		.loc 1 208 0
 239 001c 8C50     		str	r4, [r1, r2]
 209:Generated_Source\PSoC6/IDAC7_1.c **** 
 210:Generated_Source\PSoC6/IDAC7_1.c ****     CyExitCriticalSection(interruptState);
 240              		.loc 1 210 0
 241 001e FFF7FEFF 		bl	Cy_SysLib_ExitCriticalSection
 242              	.LVL26:
 211:Generated_Source\PSoC6/IDAC7_1.c **** }
 243              		.loc 1 211 0
 244              		@ sp needed
 245              	.LVL27:
ARM GAS  C:\Users\oars0\AppData\Local\Temp\cc6SrMpq.s 			page 9


 246              	.LVL28:
 247 0022 70BD     		pop	{r4, r5, r6, pc}
 248              	.L13:
 249              		.align	2
 250              	.L12:
 251 0024 00003640 		.word	1077280768
 252 0028 FFFF3FFC 		.word	-62914561
 253              		.cfi_endproc
 254              	.LFE51:
 255              		.size	IDAC7_1_SetRange, .-IDAC7_1_SetRange
 256              		.section	.text.IDAC7_1_Init,"ax",%progbits
 257              		.align	2
 258              		.global	IDAC7_1_Init
 259              		.code	16
 260              		.thumb_func
 261              		.type	IDAC7_1_Init, %function
 262              	IDAC7_1_Init:
 263              	.LFB45:
  29:Generated_Source\PSoC6/IDAC7_1.c ****     uint32_t interruptState;
 264              		.loc 1 29 0
 265              		.cfi_startproc
 266              		@ args = 0, pretend = 0, frame = 0
 267              		@ frame_needed = 0, uses_anonymous_args = 0
 268 0000 10B5     		push	{r4, lr}
 269              		.cfi_def_cfa_offset 8
 270              		.cfi_offset 4, -8
 271              		.cfi_offset 14, -4
  34:Generated_Source\PSoC6/IDAC7_1.c **** 
 272              		.loc 1 34 0
 273 0002 FFF7FEFF 		bl	Cy_SysLib_EnterCriticalSection
 274              	.LVL29:
 275 0006 FF23     		movs	r3, #255
 276 0008 1840     		ands	r0, r3
 277              	.LVL30:
  36:Generated_Source\PSoC6/IDAC7_1.c ****     newRegisterValue &= (uint32_t)(~IDAC7_1_POLY_DYN  &
 278              		.loc 1 36 0
 279 000a 0949     		ldr	r1, .L15
 280 000c 8022     		movs	r2, #128
 281 000e D200     		lsls	r2, r2, #3
 282 0010 8C58     		ldr	r4, [r1, r2]
 283              	.LVL31:
  37:Generated_Source\PSoC6/IDAC7_1.c ****                                  ~IDAC7_1_LEG1_MODE_MASK &
 284              		.loc 1 37 0
 285 0012 084B     		ldr	r3, .L15+4
 286 0014 2340     		ands	r3, r4
 287              	.LVL32:
  41:Generated_Source\PSoC6/IDAC7_1.c **** 
 288              		.loc 1 41 0
 289 0016 8B50     		str	r3, [r1, r2]
  43:Generated_Source\PSoC6/IDAC7_1.c **** 
 290              		.loc 1 43 0
 291 0018 FFF7FEFF 		bl	Cy_SysLib_ExitCriticalSection
 292              	.LVL33:
  46:Generated_Source\PSoC6/IDAC7_1.c ****     IDAC7_1_SetPolarity(IDAC7_1_CURRENT_POLARITY);
 293              		.loc 1 46 0
 294 001c 0020     		movs	r0, #0
 295 001e FFF7FEFF 		bl	IDAC7_1_SetValue
ARM GAS  C:\Users\oars0\AppData\Local\Temp\cc6SrMpq.s 			page 10


 296              	.LVL34:
  47:Generated_Source\PSoC6/IDAC7_1.c ****     IDAC7_1_SetRange(IDAC7_1_CURRENT_RANGE);
 297              		.loc 1 47 0
 298 0022 0020     		movs	r0, #0
 299 0024 FFF7FEFF 		bl	IDAC7_1_SetPolarity
 300              	.LVL35:
  48:Generated_Source\PSoC6/IDAC7_1.c **** }
 301              		.loc 1 48 0
 302 0028 0D20     		movs	r0, #13
 303 002a FFF7FEFF 		bl	IDAC7_1_SetRange
 304              	.LVL36:
  49:Generated_Source\PSoC6/IDAC7_1.c **** 
 305              		.loc 1 49 0
 306              		@ sp needed
 307              	.LVL37:
 308 002e 10BD     		pop	{r4, pc}
 309              	.L16:
 310              		.align	2
 311              	.L15:
 312 0030 00003640 		.word	1077280768
 313 0034 7FFFD0FF 		.word	-3080321
 314              		.cfi_endproc
 315              	.LFE45:
 316              		.size	IDAC7_1_Init, .-IDAC7_1_Init
 317              		.section	.text.IDAC7_1_Start,"ax",%progbits
 318              		.align	2
 319              		.global	IDAC7_1_Start
 320              		.code	16
 321              		.thumb_func
 322              		.type	IDAC7_1_Start, %function
 323              	IDAC7_1_Start:
 324              	.LFB47:
  96:Generated_Source\PSoC6/IDAC7_1.c ****     if(0u == IDAC7_1_initVar)
 325              		.loc 1 96 0
 326              		.cfi_startproc
 327              		@ args = 0, pretend = 0, frame = 0
 328              		@ frame_needed = 0, uses_anonymous_args = 0
 329 0000 10B5     		push	{r4, lr}
 330              		.cfi_def_cfa_offset 8
 331              		.cfi_offset 4, -8
 332              		.cfi_offset 14, -4
  97:Generated_Source\PSoC6/IDAC7_1.c ****     {
 333              		.loc 1 97 0
 334 0002 064B     		ldr	r3, .L19
 335 0004 1B68     		ldr	r3, [r3]
 336 0006 002B     		cmp	r3, #0
 337 0008 04D1     		bne	.L18
  99:Generated_Source\PSoC6/IDAC7_1.c ****         IDAC7_1_initVar = 1u;
 338              		.loc 1 99 0
 339 000a FFF7FEFF 		bl	IDAC7_1_Init
 340              	.LVL38:
 100:Generated_Source\PSoC6/IDAC7_1.c ****     }
 341              		.loc 1 100 0
 342 000e 0122     		movs	r2, #1
 343 0010 024B     		ldr	r3, .L19
 344 0012 1A60     		str	r2, [r3]
 345              	.L18:
ARM GAS  C:\Users\oars0\AppData\Local\Temp\cc6SrMpq.s 			page 11


 103:Generated_Source\PSoC6/IDAC7_1.c **** }
 346              		.loc 1 103 0
 347 0014 FFF7FEFF 		bl	IDAC7_1_Enable
 348              	.LVL39:
 104:Generated_Source\PSoC6/IDAC7_1.c **** 
 349              		.loc 1 104 0
 350              		@ sp needed
 351 0018 10BD     		pop	{r4, pc}
 352              	.L20:
 353 001a C046     		.align	2
 354              	.L19:
 355 001c 00000000 		.word	.LANCHOR0
 356              		.cfi_endproc
 357              	.LFE47:
 358              		.size	IDAC7_1_Start, .-IDAC7_1_Start
 359              		.global	IDAC7_1_initVar
 360              		.bss
 361              		.align	2
 362              		.set	.LANCHOR0,. + 0
 363              		.type	IDAC7_1_initVar, %object
 364              		.size	IDAC7_1_initVar, 4
 365              	IDAC7_1_initVar:
 366 0000 00000000 		.space	4
 367              		.text
 368              	.Letext0:
 369              		.file 2 "c:\\program files (x86)\\cypress\\psoc creator\\4.4\\psoc creator\\import\\gnu\\arm\\5.4.
 370              		.file 3 "c:\\program files (x86)\\cypress\\psoc creator\\4.4\\psoc creator\\import\\gnu\\arm\\5.4.
 371              		.file 4 "Generated_Source\\PSoC6\\pdl\\devices/psoc6/include/ip/cyip_csd.h"
 372              		.file 5 "Generated_Source\\PSoC6\\pdl\\devices/psoc6/include/psoc6_01_config.h"
 373              		.file 6 "Generated_Source\\PSoC6\\pdl\\drivers/peripheral/syslib/cy_syslib.h"