ARM GAS  C:\Users\oars0\AppData\Local\Temp\cccD4JDO.s 			page 1


   1              		.syntax unified
   2              		.cpu cortex-m3
   3              		.fpu softvfp
   4              		.eabi_attribute 20, 1
   5              		.eabi_attribute 21, 1
   6              		.eabi_attribute 23, 3
   7              		.eabi_attribute 24, 1
   8              		.eabi_attribute 25, 1
   9              		.eabi_attribute 26, 1
  10              		.eabi_attribute 30, 6
  11              		.eabi_attribute 34, 1
  12              		.eabi_attribute 18, 4
  13              		.thumb
  14              		.syntax unified
  15              		.file	"PWM_Stepper.c"
  16              		.text
  17              	.Ltext0:
  18              		.cfi_sections	.debug_frame
  19              		.global	PWM_Stepper_initVar
  20              		.bss
  21              		.type	PWM_Stepper_initVar, %object
  22              		.size	PWM_Stepper_initVar, 1
  23              	PWM_Stepper_initVar:
  24 0000 00       		.space	1
  25              		.section	.text.PWM_Stepper_Start,"ax",%progbits
  26              		.align	2
  27              		.global	PWM_Stepper_Start
  28              		.thumb
  29              		.thumb_func
  30              		.type	PWM_Stepper_Start, %function
  31              	PWM_Stepper_Start:
  32              	.LFB0:
  33              		.file 1 "Generated_Source\\PSoC5\\PWM_Stepper.c"
   1:Generated_Source\PSoC5/PWM_Stepper.c **** /*******************************************************************************
   2:Generated_Source\PSoC5/PWM_Stepper.c **** * File Name: PWM_Stepper.c
   3:Generated_Source\PSoC5/PWM_Stepper.c **** * Version 3.30
   4:Generated_Source\PSoC5/PWM_Stepper.c **** *
   5:Generated_Source\PSoC5/PWM_Stepper.c **** * Description:
   6:Generated_Source\PSoC5/PWM_Stepper.c **** *  The PWM User Module consist of an 8 or 16-bit counter with two 8 or 16-bit
   7:Generated_Source\PSoC5/PWM_Stepper.c **** *  comparitors. Each instance of this user module is capable of generating
   8:Generated_Source\PSoC5/PWM_Stepper.c **** *  two PWM outputs with the same period. The pulse width is selectable between
   9:Generated_Source\PSoC5/PWM_Stepper.c **** *  1 and 255/65535. The period is selectable between 2 and 255/65536 clocks.
  10:Generated_Source\PSoC5/PWM_Stepper.c **** *  The compare value output may be configured to be active when the present
  11:Generated_Source\PSoC5/PWM_Stepper.c **** *  counter is less than or less than/equal to the compare value.
  12:Generated_Source\PSoC5/PWM_Stepper.c **** *  A terminal count output is also provided. It generates a pulse one clock
  13:Generated_Source\PSoC5/PWM_Stepper.c **** *  width wide when the counter is equal to zero.
  14:Generated_Source\PSoC5/PWM_Stepper.c **** *
  15:Generated_Source\PSoC5/PWM_Stepper.c **** * Note:
  16:Generated_Source\PSoC5/PWM_Stepper.c **** *
  17:Generated_Source\PSoC5/PWM_Stepper.c **** *******************************************************************************
  18:Generated_Source\PSoC5/PWM_Stepper.c **** * Copyright 2008-2014, Cypress Semiconductor Corporation.  All rights reserved.
  19:Generated_Source\PSoC5/PWM_Stepper.c **** * You may use this file only in accordance with the license, terms, conditions,
  20:Generated_Source\PSoC5/PWM_Stepper.c **** * disclaimers, and limitations in the end user license agreement accompanying
  21:Generated_Source\PSoC5/PWM_Stepper.c **** * the software package with which this file was provided.
  22:Generated_Source\PSoC5/PWM_Stepper.c **** ********************************************************************************/
  23:Generated_Source\PSoC5/PWM_Stepper.c **** 
  24:Generated_Source\PSoC5/PWM_Stepper.c **** #include "PWM_Stepper.h"
ARM GAS  C:\Users\oars0\AppData\Local\Temp\cccD4JDO.s 			page 2


  25:Generated_Source\PSoC5/PWM_Stepper.c **** 
  26:Generated_Source\PSoC5/PWM_Stepper.c **** /* Error message for removed <resource> through optimization */
  27:Generated_Source\PSoC5/PWM_Stepper.c **** #ifdef PWM_Stepper_PWMUDB_genblk1_ctrlreg__REMOVED
  28:Generated_Source\PSoC5/PWM_Stepper.c ****     #error PWM_v3_30 detected with a constant 0 for the enable or \
  29:Generated_Source\PSoC5/PWM_Stepper.c ****          constant 1 for reset. This will prevent the component from operating.
  30:Generated_Source\PSoC5/PWM_Stepper.c **** #endif /* PWM_Stepper_PWMUDB_genblk1_ctrlreg__REMOVED */
  31:Generated_Source\PSoC5/PWM_Stepper.c **** 
  32:Generated_Source\PSoC5/PWM_Stepper.c **** uint8 PWM_Stepper_initVar = 0u;
  33:Generated_Source\PSoC5/PWM_Stepper.c **** 
  34:Generated_Source\PSoC5/PWM_Stepper.c **** 
  35:Generated_Source\PSoC5/PWM_Stepper.c **** /*******************************************************************************
  36:Generated_Source\PSoC5/PWM_Stepper.c **** * Function Name: PWM_Stepper_Start
  37:Generated_Source\PSoC5/PWM_Stepper.c **** ********************************************************************************
  38:Generated_Source\PSoC5/PWM_Stepper.c **** *
  39:Generated_Source\PSoC5/PWM_Stepper.c **** * Summary:
  40:Generated_Source\PSoC5/PWM_Stepper.c **** *  The start function initializes the pwm with the default values, the
  41:Generated_Source\PSoC5/PWM_Stepper.c **** *  enables the counter to begin counting.  It does not enable interrupts,
  42:Generated_Source\PSoC5/PWM_Stepper.c **** *  the EnableInt command should be called if interrupt generation is required.
  43:Generated_Source\PSoC5/PWM_Stepper.c **** *
  44:Generated_Source\PSoC5/PWM_Stepper.c **** * Parameters:
  45:Generated_Source\PSoC5/PWM_Stepper.c **** *  None
  46:Generated_Source\PSoC5/PWM_Stepper.c **** *
  47:Generated_Source\PSoC5/PWM_Stepper.c **** * Return:
  48:Generated_Source\PSoC5/PWM_Stepper.c **** *  None
  49:Generated_Source\PSoC5/PWM_Stepper.c **** *
  50:Generated_Source\PSoC5/PWM_Stepper.c **** * Global variables:
  51:Generated_Source\PSoC5/PWM_Stepper.c **** *  PWM_Stepper_initVar: Is modified when this function is called for the
  52:Generated_Source\PSoC5/PWM_Stepper.c **** *   first time. Is used to ensure that initialization happens only once.
  53:Generated_Source\PSoC5/PWM_Stepper.c **** *
  54:Generated_Source\PSoC5/PWM_Stepper.c **** *******************************************************************************/
  55:Generated_Source\PSoC5/PWM_Stepper.c **** void PWM_Stepper_Start(void) 
  56:Generated_Source\PSoC5/PWM_Stepper.c **** {
  34              		.loc 1 56 0
  35              		.cfi_startproc
  36              		@ args = 0, pretend = 0, frame = 0
  37              		@ frame_needed = 1, uses_anonymous_args = 0
  38 0000 80B5     		push	{r7, lr}
  39              		.cfi_def_cfa_offset 8
  40              		.cfi_offset 7, -8
  41              		.cfi_offset 14, -4
  42 0002 00AF     		add	r7, sp, #0
  43              		.cfi_def_cfa_register 7
  57:Generated_Source\PSoC5/PWM_Stepper.c ****     /* If not Initialized then initialize all required hardware and software */
  58:Generated_Source\PSoC5/PWM_Stepper.c ****     if(PWM_Stepper_initVar == 0u)
  44              		.loc 1 58 0
  45 0004 064B     		ldr	r3, .L3
  46 0006 1B78     		ldrb	r3, [r3]	@ zero_extendqisi2
  47 0008 002B     		cmp	r3, #0
  48 000a 04D1     		bne	.L2
  59:Generated_Source\PSoC5/PWM_Stepper.c ****     {
  60:Generated_Source\PSoC5/PWM_Stepper.c ****         PWM_Stepper_Init();
  49              		.loc 1 60 0
  50 000c FFF7FEFF 		bl	PWM_Stepper_Init
  61:Generated_Source\PSoC5/PWM_Stepper.c ****         PWM_Stepper_initVar = 1u;
  51              		.loc 1 61 0
  52 0010 034B     		ldr	r3, .L3
  53 0012 0122     		movs	r2, #1
ARM GAS  C:\Users\oars0\AppData\Local\Temp\cccD4JDO.s 			page 3


  54 0014 1A70     		strb	r2, [r3]
  55              	.L2:
  62:Generated_Source\PSoC5/PWM_Stepper.c ****     }
  63:Generated_Source\PSoC5/PWM_Stepper.c ****     PWM_Stepper_Enable();
  56              		.loc 1 63 0
  57 0016 FFF7FEFF 		bl	PWM_Stepper_Enable
  64:Generated_Source\PSoC5/PWM_Stepper.c **** 
  65:Generated_Source\PSoC5/PWM_Stepper.c **** }
  58              		.loc 1 65 0
  59 001a 00BF     		nop
  60 001c 80BD     		pop	{r7, pc}
  61              	.L4:
  62 001e 00BF     		.align	2
  63              	.L3:
  64 0020 00000000 		.word	PWM_Stepper_initVar
  65              		.cfi_endproc
  66              	.LFE0:
  67              		.size	PWM_Stepper_Start, .-PWM_Stepper_Start
  68              		.section	.text.PWM_Stepper_Init,"ax",%progbits
  69              		.align	2
  70              		.global	PWM_Stepper_Init
  71              		.thumb
  72              		.thumb_func
  73              		.type	PWM_Stepper_Init, %function
  74              	PWM_Stepper_Init:
  75              	.LFB1:
  66:Generated_Source\PSoC5/PWM_Stepper.c **** 
  67:Generated_Source\PSoC5/PWM_Stepper.c **** 
  68:Generated_Source\PSoC5/PWM_Stepper.c **** /*******************************************************************************
  69:Generated_Source\PSoC5/PWM_Stepper.c **** * Function Name: PWM_Stepper_Init
  70:Generated_Source\PSoC5/PWM_Stepper.c **** ********************************************************************************
  71:Generated_Source\PSoC5/PWM_Stepper.c **** *
  72:Generated_Source\PSoC5/PWM_Stepper.c **** * Summary:
  73:Generated_Source\PSoC5/PWM_Stepper.c **** *  Initialize component's parameters to the parameters set by user in the
  74:Generated_Source\PSoC5/PWM_Stepper.c **** *  customizer of the component placed onto schematic. Usually called in
  75:Generated_Source\PSoC5/PWM_Stepper.c **** *  PWM_Stepper_Start().
  76:Generated_Source\PSoC5/PWM_Stepper.c **** *
  77:Generated_Source\PSoC5/PWM_Stepper.c **** * Parameters:
  78:Generated_Source\PSoC5/PWM_Stepper.c **** *  None
  79:Generated_Source\PSoC5/PWM_Stepper.c **** *
  80:Generated_Source\PSoC5/PWM_Stepper.c **** * Return:
  81:Generated_Source\PSoC5/PWM_Stepper.c **** *  None
  82:Generated_Source\PSoC5/PWM_Stepper.c **** *
  83:Generated_Source\PSoC5/PWM_Stepper.c **** *******************************************************************************/
  84:Generated_Source\PSoC5/PWM_Stepper.c **** void PWM_Stepper_Init(void) 
  85:Generated_Source\PSoC5/PWM_Stepper.c **** {
  76              		.loc 1 85 0
  77              		.cfi_startproc
  78              		@ args = 0, pretend = 0, frame = 8
  79              		@ frame_needed = 1, uses_anonymous_args = 0
  80 0000 80B5     		push	{r7, lr}
  81              		.cfi_def_cfa_offset 8
  82              		.cfi_offset 7, -8
  83              		.cfi_offset 14, -4
  84 0002 82B0     		sub	sp, sp, #8
  85              		.cfi_def_cfa_offset 16
  86 0004 00AF     		add	r7, sp, #0
ARM GAS  C:\Users\oars0\AppData\Local\Temp\cccD4JDO.s 			page 4


  87              		.cfi_def_cfa_register 7
  86:Generated_Source\PSoC5/PWM_Stepper.c ****     #if (PWM_Stepper_UsingFixedFunction || PWM_Stepper_UseControl)
  87:Generated_Source\PSoC5/PWM_Stepper.c ****         uint8 ctrl;
  88:Generated_Source\PSoC5/PWM_Stepper.c ****     #endif /* (PWM_Stepper_UsingFixedFunction || PWM_Stepper_UseControl) */
  89:Generated_Source\PSoC5/PWM_Stepper.c **** 
  90:Generated_Source\PSoC5/PWM_Stepper.c ****     #if(!PWM_Stepper_UsingFixedFunction)
  91:Generated_Source\PSoC5/PWM_Stepper.c ****         #if(PWM_Stepper_UseStatus)
  92:Generated_Source\PSoC5/PWM_Stepper.c ****             /* Interrupt State Backup for Critical Region*/
  93:Generated_Source\PSoC5/PWM_Stepper.c ****             uint8 PWM_Stepper_interruptState;
  94:Generated_Source\PSoC5/PWM_Stepper.c ****         #endif /* (PWM_Stepper_UseStatus) */
  95:Generated_Source\PSoC5/PWM_Stepper.c ****     #endif /* (!PWM_Stepper_UsingFixedFunction) */
  96:Generated_Source\PSoC5/PWM_Stepper.c **** 
  97:Generated_Source\PSoC5/PWM_Stepper.c ****     #if (PWM_Stepper_UsingFixedFunction)
  98:Generated_Source\PSoC5/PWM_Stepper.c ****         /* You are allowed to write the compare value (FF only) */
  99:Generated_Source\PSoC5/PWM_Stepper.c ****         PWM_Stepper_CONTROL |= PWM_Stepper_CFG0_MODE;
 100:Generated_Source\PSoC5/PWM_Stepper.c ****         #if (PWM_Stepper_DeadBand2_4)
 101:Generated_Source\PSoC5/PWM_Stepper.c ****             PWM_Stepper_CONTROL |= PWM_Stepper_CFG0_DB;
 102:Generated_Source\PSoC5/PWM_Stepper.c ****         #endif /* (PWM_Stepper_DeadBand2_4) */
 103:Generated_Source\PSoC5/PWM_Stepper.c **** 
 104:Generated_Source\PSoC5/PWM_Stepper.c ****         ctrl = PWM_Stepper_CONTROL3 & ((uint8 )(~PWM_Stepper_CTRL_CMPMODE1_MASK));
 105:Generated_Source\PSoC5/PWM_Stepper.c ****         PWM_Stepper_CONTROL3 = ctrl | PWM_Stepper_DEFAULT_COMPARE1_MODE;
 106:Generated_Source\PSoC5/PWM_Stepper.c **** 
 107:Generated_Source\PSoC5/PWM_Stepper.c ****          /* Clear and Set SYNCTC and SYNCCMP bits of RT1 register */
 108:Generated_Source\PSoC5/PWM_Stepper.c ****         PWM_Stepper_RT1 &= ((uint8)(~PWM_Stepper_RT1_MASK));
 109:Generated_Source\PSoC5/PWM_Stepper.c ****         PWM_Stepper_RT1 |= PWM_Stepper_SYNC;
 110:Generated_Source\PSoC5/PWM_Stepper.c **** 
 111:Generated_Source\PSoC5/PWM_Stepper.c ****         /*Enable DSI Sync all all inputs of the PWM*/
 112:Generated_Source\PSoC5/PWM_Stepper.c ****         PWM_Stepper_RT1 &= ((uint8)(~PWM_Stepper_SYNCDSI_MASK));
 113:Generated_Source\PSoC5/PWM_Stepper.c ****         PWM_Stepper_RT1 |= PWM_Stepper_SYNCDSI_EN;
 114:Generated_Source\PSoC5/PWM_Stepper.c **** 
 115:Generated_Source\PSoC5/PWM_Stepper.c ****     #elif (PWM_Stepper_UseControl)
 116:Generated_Source\PSoC5/PWM_Stepper.c ****         /* Set the default compare mode defined in the parameter */
 117:Generated_Source\PSoC5/PWM_Stepper.c ****         ctrl = PWM_Stepper_CONTROL & ((uint8)(~PWM_Stepper_CTRL_CMPMODE2_MASK)) &
  88              		.loc 1 117 0
  89 0006 204B     		ldr	r3, .L6
  90 0008 1B78     		ldrb	r3, [r3]
  91 000a DBB2     		uxtb	r3, r3
  92 000c 23F03F03 		bic	r3, r3, #63
  93 0010 FB71     		strb	r3, [r7, #7]
 118:Generated_Source\PSoC5/PWM_Stepper.c ****                 ((uint8)(~PWM_Stepper_CTRL_CMPMODE1_MASK));
 119:Generated_Source\PSoC5/PWM_Stepper.c ****         PWM_Stepper_CONTROL = ctrl | PWM_Stepper_DEFAULT_COMPARE2_MODE |
  94              		.loc 1 119 0
  95 0012 1D4A     		ldr	r2, .L6
  96 0014 FB79     		ldrb	r3, [r7, #7]
  97 0016 43F00903 		orr	r3, r3, #9
  98 001a DBB2     		uxtb	r3, r3
  99 001c 1370     		strb	r3, [r2]
 120:Generated_Source\PSoC5/PWM_Stepper.c ****                                    PWM_Stepper_DEFAULT_COMPARE1_MODE;
 121:Generated_Source\PSoC5/PWM_Stepper.c ****     #endif /* (PWM_Stepper_UsingFixedFunction) */
 122:Generated_Source\PSoC5/PWM_Stepper.c **** 
 123:Generated_Source\PSoC5/PWM_Stepper.c ****     #if (!PWM_Stepper_UsingFixedFunction)
 124:Generated_Source\PSoC5/PWM_Stepper.c ****         #if (PWM_Stepper_Resolution == 8)
 125:Generated_Source\PSoC5/PWM_Stepper.c ****             /* Set FIFO 0 to 1 byte register for period*/
 126:Generated_Source\PSoC5/PWM_Stepper.c ****             PWM_Stepper_AUX_CONTROLDP0 |= (PWM_Stepper_AUX_CTRL_FIFO0_CLR);
 127:Generated_Source\PSoC5/PWM_Stepper.c ****         #else /* (PWM_Stepper_Resolution == 16)*/
 128:Generated_Source\PSoC5/PWM_Stepper.c ****             /* Set FIFO 0 to 1 byte register for period */
 129:Generated_Source\PSoC5/PWM_Stepper.c ****             PWM_Stepper_AUX_CONTROLDP0 |= (PWM_Stepper_AUX_CTRL_FIFO0_CLR);
ARM GAS  C:\Users\oars0\AppData\Local\Temp\cccD4JDO.s 			page 5


 100              		.loc 1 129 0
 101 001e 1B4A     		ldr	r2, .L6+4
 102 0020 1A4B     		ldr	r3, .L6+4
 103 0022 1B78     		ldrb	r3, [r3]
 104 0024 DBB2     		uxtb	r3, r3
 105 0026 43F00103 		orr	r3, r3, #1
 106 002a DBB2     		uxtb	r3, r3
 107 002c 1370     		strb	r3, [r2]
 130:Generated_Source\PSoC5/PWM_Stepper.c ****             PWM_Stepper_AUX_CONTROLDP1 |= (PWM_Stepper_AUX_CTRL_FIFO0_CLR);
 108              		.loc 1 130 0
 109 002e 184A     		ldr	r2, .L6+8
 110 0030 174B     		ldr	r3, .L6+8
 111 0032 1B78     		ldrb	r3, [r3]
 112 0034 DBB2     		uxtb	r3, r3
 113 0036 43F00103 		orr	r3, r3, #1
 114 003a DBB2     		uxtb	r3, r3
 115 003c 1370     		strb	r3, [r2]
 131:Generated_Source\PSoC5/PWM_Stepper.c ****         #endif /* (PWM_Stepper_Resolution == 8) */
 132:Generated_Source\PSoC5/PWM_Stepper.c **** 
 133:Generated_Source\PSoC5/PWM_Stepper.c ****         PWM_Stepper_WriteCounter(PWM_Stepper_INIT_PERIOD_VALUE);
 116              		.loc 1 133 0
 117 003e 42F6E060 		movw	r0, #12000
 118 0042 FFF7FEFF 		bl	PWM_Stepper_WriteCounter
 134:Generated_Source\PSoC5/PWM_Stepper.c ****     #endif /* (!PWM_Stepper_UsingFixedFunction) */
 135:Generated_Source\PSoC5/PWM_Stepper.c **** 
 136:Generated_Source\PSoC5/PWM_Stepper.c ****     PWM_Stepper_WritePeriod(PWM_Stepper_INIT_PERIOD_VALUE);
 119              		.loc 1 136 0
 120 0046 42F6E060 		movw	r0, #12000
 121 004a FFF7FEFF 		bl	PWM_Stepper_WritePeriod
 137:Generated_Source\PSoC5/PWM_Stepper.c **** 
 138:Generated_Source\PSoC5/PWM_Stepper.c ****         #if (PWM_Stepper_UseOneCompareMode)
 139:Generated_Source\PSoC5/PWM_Stepper.c ****             PWM_Stepper_WriteCompare(PWM_Stepper_INIT_COMPARE_VALUE1);
 122              		.loc 1 139 0
 123 004e 4FF47A60 		mov	r0, #4000
 124 0052 FFF7FEFF 		bl	PWM_Stepper_WriteCompare
 140:Generated_Source\PSoC5/PWM_Stepper.c ****         #else
 141:Generated_Source\PSoC5/PWM_Stepper.c ****             PWM_Stepper_WriteCompare1(PWM_Stepper_INIT_COMPARE_VALUE1);
 142:Generated_Source\PSoC5/PWM_Stepper.c ****             PWM_Stepper_WriteCompare2(PWM_Stepper_INIT_COMPARE_VALUE2);
 143:Generated_Source\PSoC5/PWM_Stepper.c ****         #endif /* (PWM_Stepper_UseOneCompareMode) */
 144:Generated_Source\PSoC5/PWM_Stepper.c **** 
 145:Generated_Source\PSoC5/PWM_Stepper.c ****         #if (PWM_Stepper_KillModeMinTime)
 146:Generated_Source\PSoC5/PWM_Stepper.c ****             PWM_Stepper_WriteKillTime(PWM_Stepper_MinimumKillTime);
 147:Generated_Source\PSoC5/PWM_Stepper.c ****         #endif /* (PWM_Stepper_KillModeMinTime) */
 148:Generated_Source\PSoC5/PWM_Stepper.c **** 
 149:Generated_Source\PSoC5/PWM_Stepper.c ****         #if (PWM_Stepper_DeadBandUsed)
 150:Generated_Source\PSoC5/PWM_Stepper.c ****             PWM_Stepper_WriteDeadTime(PWM_Stepper_INIT_DEAD_TIME);
 151:Generated_Source\PSoC5/PWM_Stepper.c ****         #endif /* (PWM_Stepper_DeadBandUsed) */
 152:Generated_Source\PSoC5/PWM_Stepper.c **** 
 153:Generated_Source\PSoC5/PWM_Stepper.c ****     #if (PWM_Stepper_UseStatus || PWM_Stepper_UsingFixedFunction)
 154:Generated_Source\PSoC5/PWM_Stepper.c ****         PWM_Stepper_SetInterruptMode(PWM_Stepper_INIT_INTERRUPTS_MODE);
 125              		.loc 1 154 0
 126 0056 0020     		movs	r0, #0
 127 0058 FFF7FEFF 		bl	PWM_Stepper_SetInterruptMode
 155:Generated_Source\PSoC5/PWM_Stepper.c ****     #endif /* (PWM_Stepper_UseStatus || PWM_Stepper_UsingFixedFunction) */
 156:Generated_Source\PSoC5/PWM_Stepper.c **** 
 157:Generated_Source\PSoC5/PWM_Stepper.c ****     #if (PWM_Stepper_UsingFixedFunction)
 158:Generated_Source\PSoC5/PWM_Stepper.c ****         /* Globally Enable the Fixed Function Block chosen */
ARM GAS  C:\Users\oars0\AppData\Local\Temp\cccD4JDO.s 			page 6


 159:Generated_Source\PSoC5/PWM_Stepper.c ****         PWM_Stepper_GLOBAL_ENABLE |= PWM_Stepper_BLOCK_EN_MASK;
 160:Generated_Source\PSoC5/PWM_Stepper.c ****         /* Set the Interrupt source to come from the status register */
 161:Generated_Source\PSoC5/PWM_Stepper.c ****         PWM_Stepper_CONTROL2 |= PWM_Stepper_CTRL2_IRQ_SEL;
 162:Generated_Source\PSoC5/PWM_Stepper.c ****     #else
 163:Generated_Source\PSoC5/PWM_Stepper.c ****         #if(PWM_Stepper_UseStatus)
 164:Generated_Source\PSoC5/PWM_Stepper.c **** 
 165:Generated_Source\PSoC5/PWM_Stepper.c ****             /* CyEnterCriticalRegion and CyExitCriticalRegion are used to mark following region cri
 166:Generated_Source\PSoC5/PWM_Stepper.c ****             /* Enter Critical Region*/
 167:Generated_Source\PSoC5/PWM_Stepper.c ****             PWM_Stepper_interruptState = CyEnterCriticalSection();
 128              		.loc 1 167 0
 129 005c FFF7FEFF 		bl	CyEnterCriticalSection
 130 0060 0346     		mov	r3, r0
 131 0062 BB71     		strb	r3, [r7, #6]
 168:Generated_Source\PSoC5/PWM_Stepper.c ****             /* Use the interrupt output of the status register for IRQ output */
 169:Generated_Source\PSoC5/PWM_Stepper.c ****             PWM_Stepper_STATUS_AUX_CTRL |= PWM_Stepper_STATUS_ACTL_INT_EN_MASK;
 132              		.loc 1 169 0
 133 0064 0B4A     		ldr	r2, .L6+12
 134 0066 0B4B     		ldr	r3, .L6+12
 135 0068 1B78     		ldrb	r3, [r3]
 136 006a DBB2     		uxtb	r3, r3
 137 006c 43F01003 		orr	r3, r3, #16
 138 0070 DBB2     		uxtb	r3, r3
 139 0072 1370     		strb	r3, [r2]
 170:Generated_Source\PSoC5/PWM_Stepper.c **** 
 171:Generated_Source\PSoC5/PWM_Stepper.c ****              /* Exit Critical Region*/
 172:Generated_Source\PSoC5/PWM_Stepper.c ****             CyExitCriticalSection(PWM_Stepper_interruptState);
 140              		.loc 1 172 0
 141 0074 BB79     		ldrb	r3, [r7, #6]	@ zero_extendqisi2
 142 0076 1846     		mov	r0, r3
 143 0078 FFF7FEFF 		bl	CyExitCriticalSection
 173:Generated_Source\PSoC5/PWM_Stepper.c **** 
 174:Generated_Source\PSoC5/PWM_Stepper.c ****             /* Clear the FIFO to enable the PWM_Stepper_STATUS_FIFOFULL
 175:Generated_Source\PSoC5/PWM_Stepper.c ****                    bit to be set on FIFO full. */
 176:Generated_Source\PSoC5/PWM_Stepper.c ****             PWM_Stepper_ClearFIFO();
 144              		.loc 1 176 0
 145 007c FFF7FEFF 		bl	PWM_Stepper_ClearFIFO
 177:Generated_Source\PSoC5/PWM_Stepper.c ****         #endif /* (PWM_Stepper_UseStatus) */
 178:Generated_Source\PSoC5/PWM_Stepper.c ****     #endif /* (PWM_Stepper_UsingFixedFunction) */
 179:Generated_Source\PSoC5/PWM_Stepper.c **** }
 146              		.loc 1 179 0
 147 0080 00BF     		nop
 148 0082 0837     		adds	r7, r7, #8
 149              		.cfi_def_cfa_offset 8
 150 0084 BD46     		mov	sp, r7
 151              		.cfi_def_cfa_register 13
 152              		@ sp needed
 153 0086 80BD     		pop	{r7, pc}
 154              	.L7:
 155              		.align	2
 156              	.L6:
 157 0088 7A650040 		.word	1073767802
 158 008c 98650040 		.word	1073767832
 159 0090 99650040 		.word	1073767833
 160 0094 9A650040 		.word	1073767834
 161              		.cfi_endproc
 162              	.LFE1:
 163              		.size	PWM_Stepper_Init, .-PWM_Stepper_Init
ARM GAS  C:\Users\oars0\AppData\Local\Temp\cccD4JDO.s 			page 7


 164              		.section	.text.PWM_Stepper_Enable,"ax",%progbits
 165              		.align	2
 166              		.global	PWM_Stepper_Enable
 167              		.thumb
 168              		.thumb_func
 169              		.type	PWM_Stepper_Enable, %function
 170              	PWM_Stepper_Enable:
 171              	.LFB2:
 180:Generated_Source\PSoC5/PWM_Stepper.c **** 
 181:Generated_Source\PSoC5/PWM_Stepper.c **** 
 182:Generated_Source\PSoC5/PWM_Stepper.c **** /*******************************************************************************
 183:Generated_Source\PSoC5/PWM_Stepper.c **** * Function Name: PWM_Stepper_Enable
 184:Generated_Source\PSoC5/PWM_Stepper.c **** ********************************************************************************
 185:Generated_Source\PSoC5/PWM_Stepper.c **** *
 186:Generated_Source\PSoC5/PWM_Stepper.c **** * Summary:
 187:Generated_Source\PSoC5/PWM_Stepper.c **** *  Enables the PWM block operation
 188:Generated_Source\PSoC5/PWM_Stepper.c **** *
 189:Generated_Source\PSoC5/PWM_Stepper.c **** * Parameters:
 190:Generated_Source\PSoC5/PWM_Stepper.c **** *  None
 191:Generated_Source\PSoC5/PWM_Stepper.c **** *
 192:Generated_Source\PSoC5/PWM_Stepper.c **** * Return:
 193:Generated_Source\PSoC5/PWM_Stepper.c **** *  None
 194:Generated_Source\PSoC5/PWM_Stepper.c **** *
 195:Generated_Source\PSoC5/PWM_Stepper.c **** * Side Effects:
 196:Generated_Source\PSoC5/PWM_Stepper.c **** *  This works only if software enable mode is chosen
 197:Generated_Source\PSoC5/PWM_Stepper.c **** *
 198:Generated_Source\PSoC5/PWM_Stepper.c **** *******************************************************************************/
 199:Generated_Source\PSoC5/PWM_Stepper.c **** void PWM_Stepper_Enable(void) 
 200:Generated_Source\PSoC5/PWM_Stepper.c **** {
 172              		.loc 1 200 0
 173              		.cfi_startproc
 174              		@ args = 0, pretend = 0, frame = 0
 175              		@ frame_needed = 1, uses_anonymous_args = 0
 176              		@ link register save eliminated.
 177 0000 80B4     		push	{r7}
 178              		.cfi_def_cfa_offset 4
 179              		.cfi_offset 7, -4
 180 0002 00AF     		add	r7, sp, #0
 181              		.cfi_def_cfa_register 7
 201:Generated_Source\PSoC5/PWM_Stepper.c ****     /* Globally Enable the Fixed Function Block chosen */
 202:Generated_Source\PSoC5/PWM_Stepper.c ****     #if (PWM_Stepper_UsingFixedFunction)
 203:Generated_Source\PSoC5/PWM_Stepper.c ****         PWM_Stepper_GLOBAL_ENABLE |= PWM_Stepper_BLOCK_EN_MASK;
 204:Generated_Source\PSoC5/PWM_Stepper.c ****         PWM_Stepper_GLOBAL_STBY_ENABLE |= PWM_Stepper_BLOCK_STBY_EN_MASK;
 205:Generated_Source\PSoC5/PWM_Stepper.c ****     #endif /* (PWM_Stepper_UsingFixedFunction) */
 206:Generated_Source\PSoC5/PWM_Stepper.c **** 
 207:Generated_Source\PSoC5/PWM_Stepper.c ****     /* Enable the PWM from the control register  */
 208:Generated_Source\PSoC5/PWM_Stepper.c ****     #if (PWM_Stepper_UseControl || PWM_Stepper_UsingFixedFunction)
 209:Generated_Source\PSoC5/PWM_Stepper.c ****         PWM_Stepper_CONTROL |= PWM_Stepper_CTRL_ENABLE;
 182              		.loc 1 209 0
 183 0004 054A     		ldr	r2, .L9
 184 0006 054B     		ldr	r3, .L9
 185 0008 1B78     		ldrb	r3, [r3]
 186 000a DBB2     		uxtb	r3, r3
 187 000c 63F07F03 		orn	r3, r3, #127
 188 0010 DBB2     		uxtb	r3, r3
 189 0012 1370     		strb	r3, [r2]
 210:Generated_Source\PSoC5/PWM_Stepper.c ****     #endif /* (PWM_Stepper_UseControl || PWM_Stepper_UsingFixedFunction) */
ARM GAS  C:\Users\oars0\AppData\Local\Temp\cccD4JDO.s 			page 8


 211:Generated_Source\PSoC5/PWM_Stepper.c **** }
 190              		.loc 1 211 0
 191 0014 00BF     		nop
 192 0016 BD46     		mov	sp, r7
 193              		.cfi_def_cfa_register 13
 194              		@ sp needed
 195 0018 80BC     		pop	{r7}
 196              		.cfi_restore 7
 197              		.cfi_def_cfa_offset 0
 198 001a 7047     		bx	lr
 199              	.L10:
 200              		.align	2
 201              	.L9:
 202 001c 7A650040 		.word	1073767802
 203              		.cfi_endproc
 204              	.LFE2:
 205              		.size	PWM_Stepper_Enable, .-PWM_Stepper_Enable
 206              		.section	.text.PWM_Stepper_Stop,"ax",%progbits
 207              		.align	2
 208              		.global	PWM_Stepper_Stop
 209              		.thumb
 210              		.thumb_func
 211              		.type	PWM_Stepper_Stop, %function
 212              	PWM_Stepper_Stop:
 213              	.LFB3:
 212:Generated_Source\PSoC5/PWM_Stepper.c **** 
 213:Generated_Source\PSoC5/PWM_Stepper.c **** 
 214:Generated_Source\PSoC5/PWM_Stepper.c **** /*******************************************************************************
 215:Generated_Source\PSoC5/PWM_Stepper.c **** * Function Name: PWM_Stepper_Stop
 216:Generated_Source\PSoC5/PWM_Stepper.c **** ********************************************************************************
 217:Generated_Source\PSoC5/PWM_Stepper.c **** *
 218:Generated_Source\PSoC5/PWM_Stepper.c **** * Summary:
 219:Generated_Source\PSoC5/PWM_Stepper.c **** *  The stop function halts the PWM, but does not change any modes or disable
 220:Generated_Source\PSoC5/PWM_Stepper.c **** *  interrupts.
 221:Generated_Source\PSoC5/PWM_Stepper.c **** *
 222:Generated_Source\PSoC5/PWM_Stepper.c **** * Parameters:
 223:Generated_Source\PSoC5/PWM_Stepper.c **** *  None
 224:Generated_Source\PSoC5/PWM_Stepper.c **** *
 225:Generated_Source\PSoC5/PWM_Stepper.c **** * Return:
 226:Generated_Source\PSoC5/PWM_Stepper.c **** *  None
 227:Generated_Source\PSoC5/PWM_Stepper.c **** *
 228:Generated_Source\PSoC5/PWM_Stepper.c **** * Side Effects:
 229:Generated_Source\PSoC5/PWM_Stepper.c **** *  If the Enable mode is set to Hardware only then this function
 230:Generated_Source\PSoC5/PWM_Stepper.c **** *  has no effect on the operation of the PWM
 231:Generated_Source\PSoC5/PWM_Stepper.c **** *
 232:Generated_Source\PSoC5/PWM_Stepper.c **** *******************************************************************************/
 233:Generated_Source\PSoC5/PWM_Stepper.c **** void PWM_Stepper_Stop(void) 
 234:Generated_Source\PSoC5/PWM_Stepper.c **** {
 214              		.loc 1 234 0
 215              		.cfi_startproc
 216              		@ args = 0, pretend = 0, frame = 0
 217              		@ frame_needed = 1, uses_anonymous_args = 0
 218              		@ link register save eliminated.
 219 0000 80B4     		push	{r7}
 220              		.cfi_def_cfa_offset 4
 221              		.cfi_offset 7, -4
 222 0002 00AF     		add	r7, sp, #0
ARM GAS  C:\Users\oars0\AppData\Local\Temp\cccD4JDO.s 			page 9


 223              		.cfi_def_cfa_register 7
 235:Generated_Source\PSoC5/PWM_Stepper.c ****     #if (PWM_Stepper_UseControl || PWM_Stepper_UsingFixedFunction)
 236:Generated_Source\PSoC5/PWM_Stepper.c ****         PWM_Stepper_CONTROL &= ((uint8)(~PWM_Stepper_CTRL_ENABLE));
 224              		.loc 1 236 0
 225 0004 054A     		ldr	r2, .L12
 226 0006 054B     		ldr	r3, .L12
 227 0008 1B78     		ldrb	r3, [r3]
 228 000a DBB2     		uxtb	r3, r3
 229 000c 03F07F03 		and	r3, r3, #127
 230 0010 DBB2     		uxtb	r3, r3
 231 0012 1370     		strb	r3, [r2]
 237:Generated_Source\PSoC5/PWM_Stepper.c ****     #endif /* (PWM_Stepper_UseControl || PWM_Stepper_UsingFixedFunction) */
 238:Generated_Source\PSoC5/PWM_Stepper.c **** 
 239:Generated_Source\PSoC5/PWM_Stepper.c ****     /* Globally disable the Fixed Function Block chosen */
 240:Generated_Source\PSoC5/PWM_Stepper.c ****     #if (PWM_Stepper_UsingFixedFunction)
 241:Generated_Source\PSoC5/PWM_Stepper.c ****         PWM_Stepper_GLOBAL_ENABLE &= ((uint8)(~PWM_Stepper_BLOCK_EN_MASK));
 242:Generated_Source\PSoC5/PWM_Stepper.c ****         PWM_Stepper_GLOBAL_STBY_ENABLE &= ((uint8)(~PWM_Stepper_BLOCK_STBY_EN_MASK));
 243:Generated_Source\PSoC5/PWM_Stepper.c ****     #endif /* (PWM_Stepper_UsingFixedFunction) */
 244:Generated_Source\PSoC5/PWM_Stepper.c **** }
 232              		.loc 1 244 0
 233 0014 00BF     		nop
 234 0016 BD46     		mov	sp, r7
 235              		.cfi_def_cfa_register 13
 236              		@ sp needed
 237 0018 80BC     		pop	{r7}
 238              		.cfi_restore 7
 239              		.cfi_def_cfa_offset 0
 240 001a 7047     		bx	lr
 241              	.L13:
 242              		.align	2
 243              	.L12:
 244 001c 7A650040 		.word	1073767802
 245              		.cfi_endproc
 246              	.LFE3:
 247              		.size	PWM_Stepper_Stop, .-PWM_Stepper_Stop
 248              		.section	.text.PWM_Stepper_WriteCounter,"ax",%progbits
 249              		.align	2
 250              		.global	PWM_Stepper_WriteCounter
 251              		.thumb
 252              		.thumb_func
 253              		.type	PWM_Stepper_WriteCounter, %function
 254              	PWM_Stepper_WriteCounter:
 255              	.LFB4:
 245:Generated_Source\PSoC5/PWM_Stepper.c **** 
 246:Generated_Source\PSoC5/PWM_Stepper.c **** #if (PWM_Stepper_UseOneCompareMode)
 247:Generated_Source\PSoC5/PWM_Stepper.c ****     #if (PWM_Stepper_CompareMode1SW)
 248:Generated_Source\PSoC5/PWM_Stepper.c **** 
 249:Generated_Source\PSoC5/PWM_Stepper.c **** 
 250:Generated_Source\PSoC5/PWM_Stepper.c ****         /*******************************************************************************
 251:Generated_Source\PSoC5/PWM_Stepper.c ****         * Function Name: PWM_Stepper_SetCompareMode
 252:Generated_Source\PSoC5/PWM_Stepper.c ****         ********************************************************************************
 253:Generated_Source\PSoC5/PWM_Stepper.c ****         *
 254:Generated_Source\PSoC5/PWM_Stepper.c ****         * Summary:
 255:Generated_Source\PSoC5/PWM_Stepper.c ****         *  This function writes the Compare Mode for the pwm output when in Dither mode,
 256:Generated_Source\PSoC5/PWM_Stepper.c ****         *  Center Align Mode or One Output Mode.
 257:Generated_Source\PSoC5/PWM_Stepper.c ****         *
 258:Generated_Source\PSoC5/PWM_Stepper.c ****         * Parameters:
ARM GAS  C:\Users\oars0\AppData\Local\Temp\cccD4JDO.s 			page 10


 259:Generated_Source\PSoC5/PWM_Stepper.c ****         *  comparemode:  The new compare mode for the PWM output. Use the compare types
 260:Generated_Source\PSoC5/PWM_Stepper.c ****         *                defined in the H file as input arguments.
 261:Generated_Source\PSoC5/PWM_Stepper.c ****         *
 262:Generated_Source\PSoC5/PWM_Stepper.c ****         * Return:
 263:Generated_Source\PSoC5/PWM_Stepper.c ****         *  None
 264:Generated_Source\PSoC5/PWM_Stepper.c ****         *
 265:Generated_Source\PSoC5/PWM_Stepper.c ****         *******************************************************************************/
 266:Generated_Source\PSoC5/PWM_Stepper.c ****         void PWM_Stepper_SetCompareMode(uint8 comparemode) 
 267:Generated_Source\PSoC5/PWM_Stepper.c ****         {
 268:Generated_Source\PSoC5/PWM_Stepper.c ****             #if(PWM_Stepper_UsingFixedFunction)
 269:Generated_Source\PSoC5/PWM_Stepper.c **** 
 270:Generated_Source\PSoC5/PWM_Stepper.c ****                 #if(0 != PWM_Stepper_CTRL_CMPMODE1_SHIFT)
 271:Generated_Source\PSoC5/PWM_Stepper.c ****                     uint8 comparemodemasked = ((uint8)((uint8)comparemode << PWM_Stepper_CTRL_CMPMO
 272:Generated_Source\PSoC5/PWM_Stepper.c ****                 #else
 273:Generated_Source\PSoC5/PWM_Stepper.c ****                     uint8 comparemodemasked = comparemode;
 274:Generated_Source\PSoC5/PWM_Stepper.c ****                 #endif /* (0 != PWM_Stepper_CTRL_CMPMODE1_SHIFT) */
 275:Generated_Source\PSoC5/PWM_Stepper.c **** 
 276:Generated_Source\PSoC5/PWM_Stepper.c ****                 PWM_Stepper_CONTROL3 &= ((uint8)(~PWM_Stepper_CTRL_CMPMODE1_MASK)); /*Clear Existin
 277:Generated_Source\PSoC5/PWM_Stepper.c ****                 PWM_Stepper_CONTROL3 |= comparemodemasked;
 278:Generated_Source\PSoC5/PWM_Stepper.c **** 
 279:Generated_Source\PSoC5/PWM_Stepper.c ****             #elif (PWM_Stepper_UseControl)
 280:Generated_Source\PSoC5/PWM_Stepper.c **** 
 281:Generated_Source\PSoC5/PWM_Stepper.c ****                 #if(0 != PWM_Stepper_CTRL_CMPMODE1_SHIFT)
 282:Generated_Source\PSoC5/PWM_Stepper.c ****                     uint8 comparemode1masked = ((uint8)((uint8)comparemode << PWM_Stepper_CTRL_CMPM
 283:Generated_Source\PSoC5/PWM_Stepper.c ****                                                 PWM_Stepper_CTRL_CMPMODE1_MASK;
 284:Generated_Source\PSoC5/PWM_Stepper.c ****                 #else
 285:Generated_Source\PSoC5/PWM_Stepper.c ****                     uint8 comparemode1masked = comparemode & PWM_Stepper_CTRL_CMPMODE1_MASK;
 286:Generated_Source\PSoC5/PWM_Stepper.c ****                 #endif /* (0 != PWM_Stepper_CTRL_CMPMODE1_SHIFT) */
 287:Generated_Source\PSoC5/PWM_Stepper.c **** 
 288:Generated_Source\PSoC5/PWM_Stepper.c ****                 #if(0 != PWM_Stepper_CTRL_CMPMODE2_SHIFT)
 289:Generated_Source\PSoC5/PWM_Stepper.c ****                     uint8 comparemode2masked = ((uint8)((uint8)comparemode << PWM_Stepper_CTRL_CMPM
 290:Generated_Source\PSoC5/PWM_Stepper.c ****                                                PWM_Stepper_CTRL_CMPMODE2_MASK;
 291:Generated_Source\PSoC5/PWM_Stepper.c ****                 #else
 292:Generated_Source\PSoC5/PWM_Stepper.c ****                     uint8 comparemode2masked = comparemode & PWM_Stepper_CTRL_CMPMODE2_MASK;
 293:Generated_Source\PSoC5/PWM_Stepper.c ****                 #endif /* (0 != PWM_Stepper_CTRL_CMPMODE2_SHIFT) */
 294:Generated_Source\PSoC5/PWM_Stepper.c **** 
 295:Generated_Source\PSoC5/PWM_Stepper.c ****                 /*Clear existing mode */
 296:Generated_Source\PSoC5/PWM_Stepper.c ****                 PWM_Stepper_CONTROL &= ((uint8)(~(PWM_Stepper_CTRL_CMPMODE1_MASK |
 297:Generated_Source\PSoC5/PWM_Stepper.c ****                                             PWM_Stepper_CTRL_CMPMODE2_MASK)));
 298:Generated_Source\PSoC5/PWM_Stepper.c ****                 PWM_Stepper_CONTROL |= (comparemode1masked | comparemode2masked);
 299:Generated_Source\PSoC5/PWM_Stepper.c **** 
 300:Generated_Source\PSoC5/PWM_Stepper.c ****             #else
 301:Generated_Source\PSoC5/PWM_Stepper.c ****                 uint8 temp = comparemode;
 302:Generated_Source\PSoC5/PWM_Stepper.c ****             #endif /* (PWM_Stepper_UsingFixedFunction) */
 303:Generated_Source\PSoC5/PWM_Stepper.c ****         }
 304:Generated_Source\PSoC5/PWM_Stepper.c ****     #endif /* PWM_Stepper_CompareMode1SW */
 305:Generated_Source\PSoC5/PWM_Stepper.c **** 
 306:Generated_Source\PSoC5/PWM_Stepper.c **** #else /* UseOneCompareMode */
 307:Generated_Source\PSoC5/PWM_Stepper.c **** 
 308:Generated_Source\PSoC5/PWM_Stepper.c ****     #if (PWM_Stepper_CompareMode1SW)
 309:Generated_Source\PSoC5/PWM_Stepper.c **** 
 310:Generated_Source\PSoC5/PWM_Stepper.c **** 
 311:Generated_Source\PSoC5/PWM_Stepper.c ****         /*******************************************************************************
 312:Generated_Source\PSoC5/PWM_Stepper.c ****         * Function Name: PWM_Stepper_SetCompareMode1
 313:Generated_Source\PSoC5/PWM_Stepper.c ****         ********************************************************************************
 314:Generated_Source\PSoC5/PWM_Stepper.c ****         *
 315:Generated_Source\PSoC5/PWM_Stepper.c ****         * Summary:
ARM GAS  C:\Users\oars0\AppData\Local\Temp\cccD4JDO.s 			page 11


 316:Generated_Source\PSoC5/PWM_Stepper.c ****         *  This function writes the Compare Mode for the pwm or pwm1 output
 317:Generated_Source\PSoC5/PWM_Stepper.c ****         *
 318:Generated_Source\PSoC5/PWM_Stepper.c ****         * Parameters:
 319:Generated_Source\PSoC5/PWM_Stepper.c ****         *  comparemode:  The new compare mode for the PWM output. Use the compare types
 320:Generated_Source\PSoC5/PWM_Stepper.c ****         *                defined in the H file as input arguments.
 321:Generated_Source\PSoC5/PWM_Stepper.c ****         *
 322:Generated_Source\PSoC5/PWM_Stepper.c ****         * Return:
 323:Generated_Source\PSoC5/PWM_Stepper.c ****         *  None
 324:Generated_Source\PSoC5/PWM_Stepper.c ****         *
 325:Generated_Source\PSoC5/PWM_Stepper.c ****         *******************************************************************************/
 326:Generated_Source\PSoC5/PWM_Stepper.c ****         void PWM_Stepper_SetCompareMode1(uint8 comparemode) 
 327:Generated_Source\PSoC5/PWM_Stepper.c ****         {
 328:Generated_Source\PSoC5/PWM_Stepper.c ****             #if(0 != PWM_Stepper_CTRL_CMPMODE1_SHIFT)
 329:Generated_Source\PSoC5/PWM_Stepper.c ****                 uint8 comparemodemasked = ((uint8)((uint8)comparemode << PWM_Stepper_CTRL_CMPMODE1_
 330:Generated_Source\PSoC5/PWM_Stepper.c ****                                            PWM_Stepper_CTRL_CMPMODE1_MASK;
 331:Generated_Source\PSoC5/PWM_Stepper.c ****             #else
 332:Generated_Source\PSoC5/PWM_Stepper.c ****                 uint8 comparemodemasked = comparemode & PWM_Stepper_CTRL_CMPMODE1_MASK;
 333:Generated_Source\PSoC5/PWM_Stepper.c ****             #endif /* (0 != PWM_Stepper_CTRL_CMPMODE1_SHIFT) */
 334:Generated_Source\PSoC5/PWM_Stepper.c **** 
 335:Generated_Source\PSoC5/PWM_Stepper.c ****             #if (PWM_Stepper_UseControl)
 336:Generated_Source\PSoC5/PWM_Stepper.c ****                 PWM_Stepper_CONTROL &= ((uint8)(~PWM_Stepper_CTRL_CMPMODE1_MASK)); /*Clear existing
 337:Generated_Source\PSoC5/PWM_Stepper.c ****                 PWM_Stepper_CONTROL |= comparemodemasked;
 338:Generated_Source\PSoC5/PWM_Stepper.c ****             #endif /* (PWM_Stepper_UseControl) */
 339:Generated_Source\PSoC5/PWM_Stepper.c ****         }
 340:Generated_Source\PSoC5/PWM_Stepper.c ****     #endif /* PWM_Stepper_CompareMode1SW */
 341:Generated_Source\PSoC5/PWM_Stepper.c **** 
 342:Generated_Source\PSoC5/PWM_Stepper.c **** #if (PWM_Stepper_CompareMode2SW)
 343:Generated_Source\PSoC5/PWM_Stepper.c **** 
 344:Generated_Source\PSoC5/PWM_Stepper.c **** 
 345:Generated_Source\PSoC5/PWM_Stepper.c ****     /*******************************************************************************
 346:Generated_Source\PSoC5/PWM_Stepper.c ****     * Function Name: PWM_Stepper_SetCompareMode2
 347:Generated_Source\PSoC5/PWM_Stepper.c ****     ********************************************************************************
 348:Generated_Source\PSoC5/PWM_Stepper.c ****     *
 349:Generated_Source\PSoC5/PWM_Stepper.c ****     * Summary:
 350:Generated_Source\PSoC5/PWM_Stepper.c ****     *  This function writes the Compare Mode for the pwm or pwm2 output
 351:Generated_Source\PSoC5/PWM_Stepper.c ****     *
 352:Generated_Source\PSoC5/PWM_Stepper.c ****     * Parameters:
 353:Generated_Source\PSoC5/PWM_Stepper.c ****     *  comparemode:  The new compare mode for the PWM output. Use the compare types
 354:Generated_Source\PSoC5/PWM_Stepper.c ****     *                defined in the H file as input arguments.
 355:Generated_Source\PSoC5/PWM_Stepper.c ****     *
 356:Generated_Source\PSoC5/PWM_Stepper.c ****     * Return:
 357:Generated_Source\PSoC5/PWM_Stepper.c ****     *  None
 358:Generated_Source\PSoC5/PWM_Stepper.c ****     *
 359:Generated_Source\PSoC5/PWM_Stepper.c ****     *******************************************************************************/
 360:Generated_Source\PSoC5/PWM_Stepper.c ****     void PWM_Stepper_SetCompareMode2(uint8 comparemode) 
 361:Generated_Source\PSoC5/PWM_Stepper.c ****     {
 362:Generated_Source\PSoC5/PWM_Stepper.c **** 
 363:Generated_Source\PSoC5/PWM_Stepper.c ****         #if(0 != PWM_Stepper_CTRL_CMPMODE2_SHIFT)
 364:Generated_Source\PSoC5/PWM_Stepper.c ****             uint8 comparemodemasked = ((uint8)((uint8)comparemode << PWM_Stepper_CTRL_CMPMODE2_SHIF
 365:Generated_Source\PSoC5/PWM_Stepper.c ****                                                  PWM_Stepper_CTRL_CMPMODE2_MASK;
 366:Generated_Source\PSoC5/PWM_Stepper.c ****         #else
 367:Generated_Source\PSoC5/PWM_Stepper.c ****             uint8 comparemodemasked = comparemode & PWM_Stepper_CTRL_CMPMODE2_MASK;
 368:Generated_Source\PSoC5/PWM_Stepper.c ****         #endif /* (0 != PWM_Stepper_CTRL_CMPMODE2_SHIFT) */
 369:Generated_Source\PSoC5/PWM_Stepper.c **** 
 370:Generated_Source\PSoC5/PWM_Stepper.c ****         #if (PWM_Stepper_UseControl)
 371:Generated_Source\PSoC5/PWM_Stepper.c ****             PWM_Stepper_CONTROL &= ((uint8)(~PWM_Stepper_CTRL_CMPMODE2_MASK)); /*Clear existing mod
 372:Generated_Source\PSoC5/PWM_Stepper.c ****             PWM_Stepper_CONTROL |= comparemodemasked;
ARM GAS  C:\Users\oars0\AppData\Local\Temp\cccD4JDO.s 			page 12


 373:Generated_Source\PSoC5/PWM_Stepper.c ****         #endif /* (PWM_Stepper_UseControl) */
 374:Generated_Source\PSoC5/PWM_Stepper.c ****     }
 375:Generated_Source\PSoC5/PWM_Stepper.c ****     #endif /*PWM_Stepper_CompareMode2SW */
 376:Generated_Source\PSoC5/PWM_Stepper.c **** 
 377:Generated_Source\PSoC5/PWM_Stepper.c **** #endif /* UseOneCompareMode */
 378:Generated_Source\PSoC5/PWM_Stepper.c **** 
 379:Generated_Source\PSoC5/PWM_Stepper.c **** 
 380:Generated_Source\PSoC5/PWM_Stepper.c **** #if (!PWM_Stepper_UsingFixedFunction)
 381:Generated_Source\PSoC5/PWM_Stepper.c **** 
 382:Generated_Source\PSoC5/PWM_Stepper.c **** 
 383:Generated_Source\PSoC5/PWM_Stepper.c ****     /*******************************************************************************
 384:Generated_Source\PSoC5/PWM_Stepper.c ****     * Function Name: PWM_Stepper_WriteCounter
 385:Generated_Source\PSoC5/PWM_Stepper.c ****     ********************************************************************************
 386:Generated_Source\PSoC5/PWM_Stepper.c ****     *
 387:Generated_Source\PSoC5/PWM_Stepper.c ****     * Summary:
 388:Generated_Source\PSoC5/PWM_Stepper.c ****     *  Writes a new counter value directly to the counter register. This will be
 389:Generated_Source\PSoC5/PWM_Stepper.c ****     *  implemented for that currently running period and only that period. This API
 390:Generated_Source\PSoC5/PWM_Stepper.c ****     *  is valid only for UDB implementation and not available for fixed function
 391:Generated_Source\PSoC5/PWM_Stepper.c ****     *  PWM implementation.
 392:Generated_Source\PSoC5/PWM_Stepper.c ****     *
 393:Generated_Source\PSoC5/PWM_Stepper.c ****     * Parameters:
 394:Generated_Source\PSoC5/PWM_Stepper.c ****     *  counter:  The period new period counter value.
 395:Generated_Source\PSoC5/PWM_Stepper.c ****     *
 396:Generated_Source\PSoC5/PWM_Stepper.c ****     * Return:
 397:Generated_Source\PSoC5/PWM_Stepper.c ****     *  None
 398:Generated_Source\PSoC5/PWM_Stepper.c ****     *
 399:Generated_Source\PSoC5/PWM_Stepper.c ****     * Side Effects:
 400:Generated_Source\PSoC5/PWM_Stepper.c ****     *  The PWM Period will be reloaded when a counter value will be a zero
 401:Generated_Source\PSoC5/PWM_Stepper.c ****     *
 402:Generated_Source\PSoC5/PWM_Stepper.c ****     *******************************************************************************/
 403:Generated_Source\PSoC5/PWM_Stepper.c ****     void PWM_Stepper_WriteCounter(uint16 counter) \
 404:Generated_Source\PSoC5/PWM_Stepper.c ****                                        
 405:Generated_Source\PSoC5/PWM_Stepper.c ****     {
 256              		.loc 1 405 0
 257              		.cfi_startproc
 258              		@ args = 0, pretend = 0, frame = 8
 259              		@ frame_needed = 1, uses_anonymous_args = 0
 260              		@ link register save eliminated.
 261 0000 80B4     		push	{r7}
 262              		.cfi_def_cfa_offset 4
 263              		.cfi_offset 7, -4
 264 0002 83B0     		sub	sp, sp, #12
 265              		.cfi_def_cfa_offset 16
 266 0004 00AF     		add	r7, sp, #0
 267              		.cfi_def_cfa_register 7
 268 0006 0346     		mov	r3, r0
 269 0008 FB80     		strh	r3, [r7, #6]	@ movhi
 406:Generated_Source\PSoC5/PWM_Stepper.c ****         CY_SET_REG16(PWM_Stepper_COUNTER_LSB_PTR, counter);
 270              		.loc 1 406 0
 271 000a 044A     		ldr	r2, .L15
 272 000c FB88     		ldrh	r3, [r7, #6]	@ movhi
 273 000e 1380     		strh	r3, [r2]	@ movhi
 407:Generated_Source\PSoC5/PWM_Stepper.c ****     }
 274              		.loc 1 407 0
 275 0010 00BF     		nop
 276 0012 0C37     		adds	r7, r7, #12
 277              		.cfi_def_cfa_offset 4
ARM GAS  C:\Users\oars0\AppData\Local\Temp\cccD4JDO.s 			page 13


 278 0014 BD46     		mov	sp, r7
 279              		.cfi_def_cfa_register 13
 280              		@ sp needed
 281 0016 80BC     		pop	{r7}
 282              		.cfi_restore 7
 283              		.cfi_def_cfa_offset 0
 284 0018 7047     		bx	lr
 285              	.L16:
 286 001a 00BF     		.align	2
 287              	.L15:
 288 001c 106A0040 		.word	1073768976
 289              		.cfi_endproc
 290              	.LFE4:
 291              		.size	PWM_Stepper_WriteCounter, .-PWM_Stepper_WriteCounter
 292              		.section	.text.PWM_Stepper_ReadCounter,"ax",%progbits
 293              		.align	2
 294              		.global	PWM_Stepper_ReadCounter
 295              		.thumb
 296              		.thumb_func
 297              		.type	PWM_Stepper_ReadCounter, %function
 298              	PWM_Stepper_ReadCounter:
 299              	.LFB5:
 408:Generated_Source\PSoC5/PWM_Stepper.c **** 
 409:Generated_Source\PSoC5/PWM_Stepper.c **** 
 410:Generated_Source\PSoC5/PWM_Stepper.c ****     /*******************************************************************************
 411:Generated_Source\PSoC5/PWM_Stepper.c ****     * Function Name: PWM_Stepper_ReadCounter
 412:Generated_Source\PSoC5/PWM_Stepper.c ****     ********************************************************************************
 413:Generated_Source\PSoC5/PWM_Stepper.c ****     *
 414:Generated_Source\PSoC5/PWM_Stepper.c ****     * Summary:
 415:Generated_Source\PSoC5/PWM_Stepper.c ****     *  This function returns the current value of the counter.  It doesn't matter
 416:Generated_Source\PSoC5/PWM_Stepper.c ****     *  if the counter is enabled or running.
 417:Generated_Source\PSoC5/PWM_Stepper.c ****     *
 418:Generated_Source\PSoC5/PWM_Stepper.c ****     * Parameters:
 419:Generated_Source\PSoC5/PWM_Stepper.c ****     *  None
 420:Generated_Source\PSoC5/PWM_Stepper.c ****     *
 421:Generated_Source\PSoC5/PWM_Stepper.c ****     * Return:
 422:Generated_Source\PSoC5/PWM_Stepper.c ****     *  The current value of the counter.
 423:Generated_Source\PSoC5/PWM_Stepper.c ****     *
 424:Generated_Source\PSoC5/PWM_Stepper.c ****     *******************************************************************************/
 425:Generated_Source\PSoC5/PWM_Stepper.c ****     uint16 PWM_Stepper_ReadCounter(void) 
 426:Generated_Source\PSoC5/PWM_Stepper.c ****     {
 300              		.loc 1 426 0
 301              		.cfi_startproc
 302              		@ args = 0, pretend = 0, frame = 0
 303              		@ frame_needed = 1, uses_anonymous_args = 0
 304              		@ link register save eliminated.
 305 0000 80B4     		push	{r7}
 306              		.cfi_def_cfa_offset 4
 307              		.cfi_offset 7, -4
 308 0002 00AF     		add	r7, sp, #0
 309              		.cfi_def_cfa_register 7
 427:Generated_Source\PSoC5/PWM_Stepper.c ****         /* Force capture by reading Accumulator */
 428:Generated_Source\PSoC5/PWM_Stepper.c ****         /* Must first do a software capture to be able to read the counter */
 429:Generated_Source\PSoC5/PWM_Stepper.c ****         /* It is up to the user code to make sure there isn't already captured data in the FIFO */
 430:Generated_Source\PSoC5/PWM_Stepper.c ****           (void)CY_GET_REG8(PWM_Stepper_COUNTERCAP_LSB_PTR_8BIT);
 310              		.loc 1 430 0
 311 0004 044B     		ldr	r3, .L19
ARM GAS  C:\Users\oars0\AppData\Local\Temp\cccD4JDO.s 			page 14


 312 0006 1B78     		ldrb	r3, [r3]
 431:Generated_Source\PSoC5/PWM_Stepper.c **** 
 432:Generated_Source\PSoC5/PWM_Stepper.c ****         /* Read the data from the FIFO */
 433:Generated_Source\PSoC5/PWM_Stepper.c ****         return (CY_GET_REG16(PWM_Stepper_CAPTURE_LSB_PTR));
 313              		.loc 1 433 0
 314 0008 044B     		ldr	r3, .L19+4
 315 000a 1B88     		ldrh	r3, [r3]	@ movhi
 316 000c 9BB2     		uxth	r3, r3
 434:Generated_Source\PSoC5/PWM_Stepper.c ****     }
 317              		.loc 1 434 0
 318 000e 1846     		mov	r0, r3
 319 0010 BD46     		mov	sp, r7
 320              		.cfi_def_cfa_register 13
 321              		@ sp needed
 322 0012 80BC     		pop	{r7}
 323              		.cfi_restore 7
 324              		.cfi_def_cfa_offset 0
 325 0014 7047     		bx	lr
 326              	.L20:
 327 0016 00BF     		.align	2
 328              	.L19:
 329 0018 18650040 		.word	1073767704
 330 001c B06A0040 		.word	1073769136
 331              		.cfi_endproc
 332              	.LFE5:
 333              		.size	PWM_Stepper_ReadCounter, .-PWM_Stepper_ReadCounter
 334              		.section	.text.PWM_Stepper_ClearFIFO,"ax",%progbits
 335              		.align	2
 336              		.global	PWM_Stepper_ClearFIFO
 337              		.thumb
 338              		.thumb_func
 339              		.type	PWM_Stepper_ClearFIFO, %function
 340              	PWM_Stepper_ClearFIFO:
 341              	.LFB6:
 435:Generated_Source\PSoC5/PWM_Stepper.c **** 
 436:Generated_Source\PSoC5/PWM_Stepper.c ****     #if (PWM_Stepper_UseStatus)
 437:Generated_Source\PSoC5/PWM_Stepper.c **** 
 438:Generated_Source\PSoC5/PWM_Stepper.c **** 
 439:Generated_Source\PSoC5/PWM_Stepper.c ****         /*******************************************************************************
 440:Generated_Source\PSoC5/PWM_Stepper.c ****         * Function Name: PWM_Stepper_ClearFIFO
 441:Generated_Source\PSoC5/PWM_Stepper.c ****         ********************************************************************************
 442:Generated_Source\PSoC5/PWM_Stepper.c ****         *
 443:Generated_Source\PSoC5/PWM_Stepper.c ****         * Summary:
 444:Generated_Source\PSoC5/PWM_Stepper.c ****         *  This function clears all capture data from the capture FIFO
 445:Generated_Source\PSoC5/PWM_Stepper.c ****         *
 446:Generated_Source\PSoC5/PWM_Stepper.c ****         * Parameters:
 447:Generated_Source\PSoC5/PWM_Stepper.c ****         *  None
 448:Generated_Source\PSoC5/PWM_Stepper.c ****         *
 449:Generated_Source\PSoC5/PWM_Stepper.c ****         * Return:
 450:Generated_Source\PSoC5/PWM_Stepper.c ****         *  None
 451:Generated_Source\PSoC5/PWM_Stepper.c ****         *
 452:Generated_Source\PSoC5/PWM_Stepper.c ****         *******************************************************************************/
 453:Generated_Source\PSoC5/PWM_Stepper.c ****         void PWM_Stepper_ClearFIFO(void) 
 454:Generated_Source\PSoC5/PWM_Stepper.c ****         {
 342              		.loc 1 454 0
 343              		.cfi_startproc
 344              		@ args = 0, pretend = 0, frame = 0
ARM GAS  C:\Users\oars0\AppData\Local\Temp\cccD4JDO.s 			page 15


 345              		@ frame_needed = 1, uses_anonymous_args = 0
 346 0000 80B5     		push	{r7, lr}
 347              		.cfi_def_cfa_offset 8
 348              		.cfi_offset 7, -8
 349              		.cfi_offset 14, -4
 350 0002 00AF     		add	r7, sp, #0
 351              		.cfi_def_cfa_register 7
 455:Generated_Source\PSoC5/PWM_Stepper.c ****             while(0u != (PWM_Stepper_ReadStatusRegister() & PWM_Stepper_STATUS_FIFONEMPTY))
 352              		.loc 1 455 0
 353 0004 01E0     		b	.L22
 354              	.L23:
 456:Generated_Source\PSoC5/PWM_Stepper.c ****             {
 457:Generated_Source\PSoC5/PWM_Stepper.c ****                 (void)PWM_Stepper_ReadCapture();
 355              		.loc 1 457 0
 356 0006 FFF7FEFF 		bl	PWM_Stepper_ReadCapture
 357              	.L22:
 455:Generated_Source\PSoC5/PWM_Stepper.c ****             while(0u != (PWM_Stepper_ReadStatusRegister() & PWM_Stepper_STATUS_FIFONEMPTY))
 358              		.loc 1 455 0
 359 000a FFF7FEFF 		bl	PWM_Stepper_ReadStatusRegister
 360 000e 0346     		mov	r3, r0
 361 0010 03F01003 		and	r3, r3, #16
 362 0014 002B     		cmp	r3, #0
 363 0016 F6D1     		bne	.L23
 458:Generated_Source\PSoC5/PWM_Stepper.c ****             }
 459:Generated_Source\PSoC5/PWM_Stepper.c ****         }
 364              		.loc 1 459 0
 365 0018 00BF     		nop
 366 001a 80BD     		pop	{r7, pc}
 367              		.cfi_endproc
 368              	.LFE6:
 369              		.size	PWM_Stepper_ClearFIFO, .-PWM_Stepper_ClearFIFO
 370              		.section	.text.PWM_Stepper_WritePeriod,"ax",%progbits
 371              		.align	2
 372              		.global	PWM_Stepper_WritePeriod
 373              		.thumb
 374              		.thumb_func
 375              		.type	PWM_Stepper_WritePeriod, %function
 376              	PWM_Stepper_WritePeriod:
 377              	.LFB7:
 460:Generated_Source\PSoC5/PWM_Stepper.c **** 
 461:Generated_Source\PSoC5/PWM_Stepper.c ****     #endif /* PWM_Stepper_UseStatus */
 462:Generated_Source\PSoC5/PWM_Stepper.c **** 
 463:Generated_Source\PSoC5/PWM_Stepper.c **** #endif /* !PWM_Stepper_UsingFixedFunction */
 464:Generated_Source\PSoC5/PWM_Stepper.c **** 
 465:Generated_Source\PSoC5/PWM_Stepper.c **** 
 466:Generated_Source\PSoC5/PWM_Stepper.c **** /*******************************************************************************
 467:Generated_Source\PSoC5/PWM_Stepper.c **** * Function Name: PWM_Stepper_WritePeriod
 468:Generated_Source\PSoC5/PWM_Stepper.c **** ********************************************************************************
 469:Generated_Source\PSoC5/PWM_Stepper.c **** *
 470:Generated_Source\PSoC5/PWM_Stepper.c **** * Summary:
 471:Generated_Source\PSoC5/PWM_Stepper.c **** *  This function is used to change the period of the counter.  The new period
 472:Generated_Source\PSoC5/PWM_Stepper.c **** *  will be loaded the next time terminal count is detected.
 473:Generated_Source\PSoC5/PWM_Stepper.c **** *
 474:Generated_Source\PSoC5/PWM_Stepper.c **** * Parameters:
 475:Generated_Source\PSoC5/PWM_Stepper.c **** *  period:  Period value. May be between 1 and (2^Resolution)-1.  A value of 0
 476:Generated_Source\PSoC5/PWM_Stepper.c **** *           will result in the counter remaining at zero.
 477:Generated_Source\PSoC5/PWM_Stepper.c **** *
ARM GAS  C:\Users\oars0\AppData\Local\Temp\cccD4JDO.s 			page 16


 478:Generated_Source\PSoC5/PWM_Stepper.c **** * Return:
 479:Generated_Source\PSoC5/PWM_Stepper.c **** *  None
 480:Generated_Source\PSoC5/PWM_Stepper.c **** *
 481:Generated_Source\PSoC5/PWM_Stepper.c **** *******************************************************************************/
 482:Generated_Source\PSoC5/PWM_Stepper.c **** void PWM_Stepper_WritePeriod(uint16 period) 
 483:Generated_Source\PSoC5/PWM_Stepper.c **** {
 378              		.loc 1 483 0
 379              		.cfi_startproc
 380              		@ args = 0, pretend = 0, frame = 8
 381              		@ frame_needed = 1, uses_anonymous_args = 0
 382              		@ link register save eliminated.
 383 0000 80B4     		push	{r7}
 384              		.cfi_def_cfa_offset 4
 385              		.cfi_offset 7, -4
 386 0002 83B0     		sub	sp, sp, #12
 387              		.cfi_def_cfa_offset 16
 388 0004 00AF     		add	r7, sp, #0
 389              		.cfi_def_cfa_register 7
 390 0006 0346     		mov	r3, r0
 391 0008 FB80     		strh	r3, [r7, #6]	@ movhi
 484:Generated_Source\PSoC5/PWM_Stepper.c ****     #if(PWM_Stepper_UsingFixedFunction)
 485:Generated_Source\PSoC5/PWM_Stepper.c ****         CY_SET_REG16(PWM_Stepper_PERIOD_LSB_PTR, (uint16)period);
 486:Generated_Source\PSoC5/PWM_Stepper.c ****     #else
 487:Generated_Source\PSoC5/PWM_Stepper.c ****         CY_SET_REG16(PWM_Stepper_PERIOD_LSB_PTR, period);
 392              		.loc 1 487 0
 393 000a 044A     		ldr	r2, .L25
 394 000c FB88     		ldrh	r3, [r7, #6]	@ movhi
 395 000e 1380     		strh	r3, [r2]	@ movhi
 488:Generated_Source\PSoC5/PWM_Stepper.c ****     #endif /* (PWM_Stepper_UsingFixedFunction) */
 489:Generated_Source\PSoC5/PWM_Stepper.c **** }
 396              		.loc 1 489 0
 397 0010 00BF     		nop
 398 0012 0C37     		adds	r7, r7, #12
 399              		.cfi_def_cfa_offset 4
 400 0014 BD46     		mov	sp, r7
 401              		.cfi_def_cfa_register 13
 402              		@ sp needed
 403 0016 80BC     		pop	{r7}
 404              		.cfi_restore 7
 405              		.cfi_def_cfa_offset 0
 406 0018 7047     		bx	lr
 407              	.L26:
 408 001a 00BF     		.align	2
 409              	.L25:
 410 001c 906A0040 		.word	1073769104
 411              		.cfi_endproc
 412              	.LFE7:
 413              		.size	PWM_Stepper_WritePeriod, .-PWM_Stepper_WritePeriod
 414              		.section	.text.PWM_Stepper_WriteCompare,"ax",%progbits
 415              		.align	2
 416              		.global	PWM_Stepper_WriteCompare
 417              		.thumb
 418              		.thumb_func
 419              		.type	PWM_Stepper_WriteCompare, %function
 420              	PWM_Stepper_WriteCompare:
 421              	.LFB8:
 490:Generated_Source\PSoC5/PWM_Stepper.c **** 
ARM GAS  C:\Users\oars0\AppData\Local\Temp\cccD4JDO.s 			page 17


 491:Generated_Source\PSoC5/PWM_Stepper.c **** #if (PWM_Stepper_UseOneCompareMode)
 492:Generated_Source\PSoC5/PWM_Stepper.c **** 
 493:Generated_Source\PSoC5/PWM_Stepper.c **** 
 494:Generated_Source\PSoC5/PWM_Stepper.c ****     /*******************************************************************************
 495:Generated_Source\PSoC5/PWM_Stepper.c ****     * Function Name: PWM_Stepper_WriteCompare
 496:Generated_Source\PSoC5/PWM_Stepper.c ****     ********************************************************************************
 497:Generated_Source\PSoC5/PWM_Stepper.c ****     *
 498:Generated_Source\PSoC5/PWM_Stepper.c ****     * Summary:
 499:Generated_Source\PSoC5/PWM_Stepper.c ****     *  This funtion is used to change the compare1 value when the PWM is in Dither
 500:Generated_Source\PSoC5/PWM_Stepper.c ****     *  mode. The compare output will reflect the new value on the next UDB clock.
 501:Generated_Source\PSoC5/PWM_Stepper.c ****     *  The compare output will be driven high when the present counter value is
 502:Generated_Source\PSoC5/PWM_Stepper.c ****     *  compared to the compare value based on the compare mode defined in
 503:Generated_Source\PSoC5/PWM_Stepper.c ****     *  Dither Mode.
 504:Generated_Source\PSoC5/PWM_Stepper.c ****     *
 505:Generated_Source\PSoC5/PWM_Stepper.c ****     * Parameters:
 506:Generated_Source\PSoC5/PWM_Stepper.c ****     *  compare:  New compare value.
 507:Generated_Source\PSoC5/PWM_Stepper.c ****     *
 508:Generated_Source\PSoC5/PWM_Stepper.c ****     * Return:
 509:Generated_Source\PSoC5/PWM_Stepper.c ****     *  None
 510:Generated_Source\PSoC5/PWM_Stepper.c ****     *
 511:Generated_Source\PSoC5/PWM_Stepper.c ****     * Side Effects:
 512:Generated_Source\PSoC5/PWM_Stepper.c ****     *  This function is only available if the PWM mode parameter is set to
 513:Generated_Source\PSoC5/PWM_Stepper.c ****     *  Dither Mode, Center Aligned Mode or One Output Mode
 514:Generated_Source\PSoC5/PWM_Stepper.c ****     *
 515:Generated_Source\PSoC5/PWM_Stepper.c ****     *******************************************************************************/
 516:Generated_Source\PSoC5/PWM_Stepper.c ****     void PWM_Stepper_WriteCompare(uint16 compare) \
 517:Generated_Source\PSoC5/PWM_Stepper.c ****                                        
 518:Generated_Source\PSoC5/PWM_Stepper.c ****     {
 422              		.loc 1 518 0
 423              		.cfi_startproc
 424              		@ args = 0, pretend = 0, frame = 8
 425              		@ frame_needed = 1, uses_anonymous_args = 0
 426              		@ link register save eliminated.
 427 0000 80B4     		push	{r7}
 428              		.cfi_def_cfa_offset 4
 429              		.cfi_offset 7, -4
 430 0002 83B0     		sub	sp, sp, #12
 431              		.cfi_def_cfa_offset 16
 432 0004 00AF     		add	r7, sp, #0
 433              		.cfi_def_cfa_register 7
 434 0006 0346     		mov	r3, r0
 435 0008 FB80     		strh	r3, [r7, #6]	@ movhi
 519:Generated_Source\PSoC5/PWM_Stepper.c ****         #if(PWM_Stepper_UsingFixedFunction)
 520:Generated_Source\PSoC5/PWM_Stepper.c ****             CY_SET_REG16(PWM_Stepper_COMPARE1_LSB_PTR, (uint16)compare);
 521:Generated_Source\PSoC5/PWM_Stepper.c ****         #else
 522:Generated_Source\PSoC5/PWM_Stepper.c ****             CY_SET_REG16(PWM_Stepper_COMPARE1_LSB_PTR, compare);
 436              		.loc 1 522 0
 437 000a 044A     		ldr	r2, .L28
 438 000c FB88     		ldrh	r3, [r7, #6]	@ movhi
 439 000e 1380     		strh	r3, [r2]	@ movhi
 523:Generated_Source\PSoC5/PWM_Stepper.c ****         #endif /* (PWM_Stepper_UsingFixedFunction) */
 524:Generated_Source\PSoC5/PWM_Stepper.c **** 
 525:Generated_Source\PSoC5/PWM_Stepper.c ****         #if (PWM_Stepper_PWMMode == PWM_Stepper__B_PWM__DITHER)
 526:Generated_Source\PSoC5/PWM_Stepper.c ****             #if(PWM_Stepper_UsingFixedFunction)
 527:Generated_Source\PSoC5/PWM_Stepper.c ****                 CY_SET_REG16(PWM_Stepper_COMPARE2_LSB_PTR, (uint16)(compare + 1u));
 528:Generated_Source\PSoC5/PWM_Stepper.c ****             #else
 529:Generated_Source\PSoC5/PWM_Stepper.c ****                 CY_SET_REG16(PWM_Stepper_COMPARE2_LSB_PTR, (compare + 1u));
ARM GAS  C:\Users\oars0\AppData\Local\Temp\cccD4JDO.s 			page 18


 530:Generated_Source\PSoC5/PWM_Stepper.c ****             #endif /* (PWM_Stepper_UsingFixedFunction) */
 531:Generated_Source\PSoC5/PWM_Stepper.c ****         #endif /* (PWM_Stepper_PWMMode == PWM_Stepper__B_PWM__DITHER) */
 532:Generated_Source\PSoC5/PWM_Stepper.c ****     }
 440              		.loc 1 532 0
 441 0010 00BF     		nop
 442 0012 0C37     		adds	r7, r7, #12
 443              		.cfi_def_cfa_offset 4
 444 0014 BD46     		mov	sp, r7
 445              		.cfi_def_cfa_register 13
 446              		@ sp needed
 447 0016 80BC     		pop	{r7}
 448              		.cfi_restore 7
 449              		.cfi_def_cfa_offset 0
 450 0018 7047     		bx	lr
 451              	.L29:
 452 001a 00BF     		.align	2
 453              	.L28:
 454 001c 506A0040 		.word	1073769040
 455              		.cfi_endproc
 456              	.LFE8:
 457              		.size	PWM_Stepper_WriteCompare, .-PWM_Stepper_WriteCompare
 458              		.section	.text.PWM_Stepper_SetInterruptMode,"ax",%progbits
 459              		.align	2
 460              		.global	PWM_Stepper_SetInterruptMode
 461              		.thumb
 462              		.thumb_func
 463              		.type	PWM_Stepper_SetInterruptMode, %function
 464              	PWM_Stepper_SetInterruptMode:
 465              	.LFB9:
 533:Generated_Source\PSoC5/PWM_Stepper.c **** 
 534:Generated_Source\PSoC5/PWM_Stepper.c **** 
 535:Generated_Source\PSoC5/PWM_Stepper.c **** #else
 536:Generated_Source\PSoC5/PWM_Stepper.c **** 
 537:Generated_Source\PSoC5/PWM_Stepper.c **** 
 538:Generated_Source\PSoC5/PWM_Stepper.c ****     /*******************************************************************************
 539:Generated_Source\PSoC5/PWM_Stepper.c ****     * Function Name: PWM_Stepper_WriteCompare1
 540:Generated_Source\PSoC5/PWM_Stepper.c ****     ********************************************************************************
 541:Generated_Source\PSoC5/PWM_Stepper.c ****     *
 542:Generated_Source\PSoC5/PWM_Stepper.c ****     * Summary:
 543:Generated_Source\PSoC5/PWM_Stepper.c ****     *  This funtion is used to change the compare1 value.  The compare output will
 544:Generated_Source\PSoC5/PWM_Stepper.c ****     *  reflect the new value on the next UDB clock.  The compare output will be
 545:Generated_Source\PSoC5/PWM_Stepper.c ****     *  driven high when the present counter value is less than or less than or
 546:Generated_Source\PSoC5/PWM_Stepper.c ****     *  equal to the compare register, depending on the mode.
 547:Generated_Source\PSoC5/PWM_Stepper.c ****     *
 548:Generated_Source\PSoC5/PWM_Stepper.c ****     * Parameters:
 549:Generated_Source\PSoC5/PWM_Stepper.c ****     *  compare:  New compare value.
 550:Generated_Source\PSoC5/PWM_Stepper.c ****     *
 551:Generated_Source\PSoC5/PWM_Stepper.c ****     * Return:
 552:Generated_Source\PSoC5/PWM_Stepper.c ****     *  None
 553:Generated_Source\PSoC5/PWM_Stepper.c ****     *
 554:Generated_Source\PSoC5/PWM_Stepper.c ****     *******************************************************************************/
 555:Generated_Source\PSoC5/PWM_Stepper.c ****     void PWM_Stepper_WriteCompare1(uint16 compare) \
 556:Generated_Source\PSoC5/PWM_Stepper.c ****                                         
 557:Generated_Source\PSoC5/PWM_Stepper.c ****     {
 558:Generated_Source\PSoC5/PWM_Stepper.c ****         #if(PWM_Stepper_UsingFixedFunction)
 559:Generated_Source\PSoC5/PWM_Stepper.c ****             CY_SET_REG16(PWM_Stepper_COMPARE1_LSB_PTR, (uint16)compare);
 560:Generated_Source\PSoC5/PWM_Stepper.c ****         #else
ARM GAS  C:\Users\oars0\AppData\Local\Temp\cccD4JDO.s 			page 19


 561:Generated_Source\PSoC5/PWM_Stepper.c ****             CY_SET_REG16(PWM_Stepper_COMPARE1_LSB_PTR, compare);
 562:Generated_Source\PSoC5/PWM_Stepper.c ****         #endif /* (PWM_Stepper_UsingFixedFunction) */
 563:Generated_Source\PSoC5/PWM_Stepper.c ****     }
 564:Generated_Source\PSoC5/PWM_Stepper.c **** 
 565:Generated_Source\PSoC5/PWM_Stepper.c **** 
 566:Generated_Source\PSoC5/PWM_Stepper.c ****     /*******************************************************************************
 567:Generated_Source\PSoC5/PWM_Stepper.c ****     * Function Name: PWM_Stepper_WriteCompare2
 568:Generated_Source\PSoC5/PWM_Stepper.c ****     ********************************************************************************
 569:Generated_Source\PSoC5/PWM_Stepper.c ****     *
 570:Generated_Source\PSoC5/PWM_Stepper.c ****     * Summary:
 571:Generated_Source\PSoC5/PWM_Stepper.c ****     *  This funtion is used to change the compare value, for compare1 output.
 572:Generated_Source\PSoC5/PWM_Stepper.c ****     *  The compare output will reflect the new value on the next UDB clock.
 573:Generated_Source\PSoC5/PWM_Stepper.c ****     *  The compare output will be driven high when the present counter value is
 574:Generated_Source\PSoC5/PWM_Stepper.c ****     *  less than or less than or equal to the compare register, depending on the
 575:Generated_Source\PSoC5/PWM_Stepper.c ****     *  mode.
 576:Generated_Source\PSoC5/PWM_Stepper.c ****     *
 577:Generated_Source\PSoC5/PWM_Stepper.c ****     * Parameters:
 578:Generated_Source\PSoC5/PWM_Stepper.c ****     *  compare:  New compare value.
 579:Generated_Source\PSoC5/PWM_Stepper.c ****     *
 580:Generated_Source\PSoC5/PWM_Stepper.c ****     * Return:
 581:Generated_Source\PSoC5/PWM_Stepper.c ****     *  None
 582:Generated_Source\PSoC5/PWM_Stepper.c ****     *
 583:Generated_Source\PSoC5/PWM_Stepper.c ****     *******************************************************************************/
 584:Generated_Source\PSoC5/PWM_Stepper.c ****     void PWM_Stepper_WriteCompare2(uint16 compare) \
 585:Generated_Source\PSoC5/PWM_Stepper.c ****                                         
 586:Generated_Source\PSoC5/PWM_Stepper.c ****     {
 587:Generated_Source\PSoC5/PWM_Stepper.c ****         #if(PWM_Stepper_UsingFixedFunction)
 588:Generated_Source\PSoC5/PWM_Stepper.c ****             CY_SET_REG16(PWM_Stepper_COMPARE2_LSB_PTR, compare);
 589:Generated_Source\PSoC5/PWM_Stepper.c ****         #else
 590:Generated_Source\PSoC5/PWM_Stepper.c ****             CY_SET_REG16(PWM_Stepper_COMPARE2_LSB_PTR, compare);
 591:Generated_Source\PSoC5/PWM_Stepper.c ****         #endif /* (PWM_Stepper_UsingFixedFunction) */
 592:Generated_Source\PSoC5/PWM_Stepper.c ****     }
 593:Generated_Source\PSoC5/PWM_Stepper.c **** #endif /* UseOneCompareMode */
 594:Generated_Source\PSoC5/PWM_Stepper.c **** 
 595:Generated_Source\PSoC5/PWM_Stepper.c **** #if (PWM_Stepper_DeadBandUsed)
 596:Generated_Source\PSoC5/PWM_Stepper.c **** 
 597:Generated_Source\PSoC5/PWM_Stepper.c **** 
 598:Generated_Source\PSoC5/PWM_Stepper.c ****     /*******************************************************************************
 599:Generated_Source\PSoC5/PWM_Stepper.c ****     * Function Name: PWM_Stepper_WriteDeadTime
 600:Generated_Source\PSoC5/PWM_Stepper.c ****     ********************************************************************************
 601:Generated_Source\PSoC5/PWM_Stepper.c ****     *
 602:Generated_Source\PSoC5/PWM_Stepper.c ****     * Summary:
 603:Generated_Source\PSoC5/PWM_Stepper.c ****     *  This function writes the dead-band counts to the corresponding register
 604:Generated_Source\PSoC5/PWM_Stepper.c ****     *
 605:Generated_Source\PSoC5/PWM_Stepper.c ****     * Parameters:
 606:Generated_Source\PSoC5/PWM_Stepper.c ****     *  deadtime:  Number of counts for dead time
 607:Generated_Source\PSoC5/PWM_Stepper.c ****     *
 608:Generated_Source\PSoC5/PWM_Stepper.c ****     * Return:
 609:Generated_Source\PSoC5/PWM_Stepper.c ****     *  None
 610:Generated_Source\PSoC5/PWM_Stepper.c ****     *
 611:Generated_Source\PSoC5/PWM_Stepper.c ****     *******************************************************************************/
 612:Generated_Source\PSoC5/PWM_Stepper.c ****     void PWM_Stepper_WriteDeadTime(uint8 deadtime) 
 613:Generated_Source\PSoC5/PWM_Stepper.c ****     {
 614:Generated_Source\PSoC5/PWM_Stepper.c ****         /* If using the Dead Band 1-255 mode then just write the register */
 615:Generated_Source\PSoC5/PWM_Stepper.c ****         #if(!PWM_Stepper_DeadBand2_4)
 616:Generated_Source\PSoC5/PWM_Stepper.c ****             CY_SET_REG8(PWM_Stepper_DEADBAND_COUNT_PTR, deadtime);
 617:Generated_Source\PSoC5/PWM_Stepper.c ****         #else
ARM GAS  C:\Users\oars0\AppData\Local\Temp\cccD4JDO.s 			page 20


 618:Generated_Source\PSoC5/PWM_Stepper.c ****             /* Otherwise the data has to be masked and offset */
 619:Generated_Source\PSoC5/PWM_Stepper.c ****             /* Clear existing data */
 620:Generated_Source\PSoC5/PWM_Stepper.c ****             PWM_Stepper_DEADBAND_COUNT &= ((uint8)(~PWM_Stepper_DEADBAND_COUNT_MASK));
 621:Generated_Source\PSoC5/PWM_Stepper.c **** 
 622:Generated_Source\PSoC5/PWM_Stepper.c ****             /* Set new dead time */
 623:Generated_Source\PSoC5/PWM_Stepper.c ****             #if(PWM_Stepper_DEADBAND_COUNT_SHIFT)
 624:Generated_Source\PSoC5/PWM_Stepper.c ****                 PWM_Stepper_DEADBAND_COUNT |= ((uint8)((uint8)deadtime << PWM_Stepper_DEADBAND_COUN
 625:Generated_Source\PSoC5/PWM_Stepper.c ****                                                     PWM_Stepper_DEADBAND_COUNT_MASK;
 626:Generated_Source\PSoC5/PWM_Stepper.c ****             #else
 627:Generated_Source\PSoC5/PWM_Stepper.c ****                 PWM_Stepper_DEADBAND_COUNT |= deadtime & PWM_Stepper_DEADBAND_COUNT_MASK;
 628:Generated_Source\PSoC5/PWM_Stepper.c ****             #endif /* (PWM_Stepper_DEADBAND_COUNT_SHIFT) */
 629:Generated_Source\PSoC5/PWM_Stepper.c **** 
 630:Generated_Source\PSoC5/PWM_Stepper.c ****         #endif /* (!PWM_Stepper_DeadBand2_4) */
 631:Generated_Source\PSoC5/PWM_Stepper.c ****     }
 632:Generated_Source\PSoC5/PWM_Stepper.c **** 
 633:Generated_Source\PSoC5/PWM_Stepper.c **** 
 634:Generated_Source\PSoC5/PWM_Stepper.c ****     /*******************************************************************************
 635:Generated_Source\PSoC5/PWM_Stepper.c ****     * Function Name: PWM_Stepper_ReadDeadTime
 636:Generated_Source\PSoC5/PWM_Stepper.c ****     ********************************************************************************
 637:Generated_Source\PSoC5/PWM_Stepper.c ****     *
 638:Generated_Source\PSoC5/PWM_Stepper.c ****     * Summary:
 639:Generated_Source\PSoC5/PWM_Stepper.c ****     *  This function reads the dead-band counts from the corresponding register
 640:Generated_Source\PSoC5/PWM_Stepper.c ****     *
 641:Generated_Source\PSoC5/PWM_Stepper.c ****     * Parameters:
 642:Generated_Source\PSoC5/PWM_Stepper.c ****     *  None
 643:Generated_Source\PSoC5/PWM_Stepper.c ****     *
 644:Generated_Source\PSoC5/PWM_Stepper.c ****     * Return:
 645:Generated_Source\PSoC5/PWM_Stepper.c ****     *  Dead Band Counts
 646:Generated_Source\PSoC5/PWM_Stepper.c ****     *
 647:Generated_Source\PSoC5/PWM_Stepper.c ****     *******************************************************************************/
 648:Generated_Source\PSoC5/PWM_Stepper.c ****     uint8 PWM_Stepper_ReadDeadTime(void) 
 649:Generated_Source\PSoC5/PWM_Stepper.c ****     {
 650:Generated_Source\PSoC5/PWM_Stepper.c ****         /* If using the Dead Band 1-255 mode then just read the register */
 651:Generated_Source\PSoC5/PWM_Stepper.c ****         #if(!PWM_Stepper_DeadBand2_4)
 652:Generated_Source\PSoC5/PWM_Stepper.c ****             return (CY_GET_REG8(PWM_Stepper_DEADBAND_COUNT_PTR));
 653:Generated_Source\PSoC5/PWM_Stepper.c ****         #else
 654:Generated_Source\PSoC5/PWM_Stepper.c **** 
 655:Generated_Source\PSoC5/PWM_Stepper.c ****             /* Otherwise the data has to be masked and offset */
 656:Generated_Source\PSoC5/PWM_Stepper.c ****             #if(PWM_Stepper_DEADBAND_COUNT_SHIFT)
 657:Generated_Source\PSoC5/PWM_Stepper.c ****                 return ((uint8)(((uint8)(PWM_Stepper_DEADBAND_COUNT & PWM_Stepper_DEADBAND_COUNT_MA
 658:Generated_Source\PSoC5/PWM_Stepper.c ****                                                                            PWM_Stepper_DEADBAND_COU
 659:Generated_Source\PSoC5/PWM_Stepper.c ****             #else
 660:Generated_Source\PSoC5/PWM_Stepper.c ****                 return (PWM_Stepper_DEADBAND_COUNT & PWM_Stepper_DEADBAND_COUNT_MASK);
 661:Generated_Source\PSoC5/PWM_Stepper.c ****             #endif /* (PWM_Stepper_DEADBAND_COUNT_SHIFT) */
 662:Generated_Source\PSoC5/PWM_Stepper.c ****         #endif /* (!PWM_Stepper_DeadBand2_4) */
 663:Generated_Source\PSoC5/PWM_Stepper.c ****     }
 664:Generated_Source\PSoC5/PWM_Stepper.c **** #endif /* DeadBandUsed */
 665:Generated_Source\PSoC5/PWM_Stepper.c **** 
 666:Generated_Source\PSoC5/PWM_Stepper.c **** #if (PWM_Stepper_UseStatus || PWM_Stepper_UsingFixedFunction)
 667:Generated_Source\PSoC5/PWM_Stepper.c **** 
 668:Generated_Source\PSoC5/PWM_Stepper.c **** 
 669:Generated_Source\PSoC5/PWM_Stepper.c ****     /*******************************************************************************
 670:Generated_Source\PSoC5/PWM_Stepper.c ****     * Function Name: PWM_Stepper_SetInterruptMode
 671:Generated_Source\PSoC5/PWM_Stepper.c ****     ********************************************************************************
 672:Generated_Source\PSoC5/PWM_Stepper.c ****     *
 673:Generated_Source\PSoC5/PWM_Stepper.c ****     * Summary:
 674:Generated_Source\PSoC5/PWM_Stepper.c ****     *  This function configures the interrupts mask control of theinterrupt
ARM GAS  C:\Users\oars0\AppData\Local\Temp\cccD4JDO.s 			page 21


 675:Generated_Source\PSoC5/PWM_Stepper.c ****     *  source status register.
 676:Generated_Source\PSoC5/PWM_Stepper.c ****     *
 677:Generated_Source\PSoC5/PWM_Stepper.c ****     * Parameters:
 678:Generated_Source\PSoC5/PWM_Stepper.c ****     *  uint8 interruptMode: Bit field containing the interrupt sources enabled
 679:Generated_Source\PSoC5/PWM_Stepper.c ****     *
 680:Generated_Source\PSoC5/PWM_Stepper.c ****     * Return:
 681:Generated_Source\PSoC5/PWM_Stepper.c ****     *  None
 682:Generated_Source\PSoC5/PWM_Stepper.c ****     *
 683:Generated_Source\PSoC5/PWM_Stepper.c ****     *******************************************************************************/
 684:Generated_Source\PSoC5/PWM_Stepper.c ****     void PWM_Stepper_SetInterruptMode(uint8 interruptMode) 
 685:Generated_Source\PSoC5/PWM_Stepper.c ****     {
 466              		.loc 1 685 0
 467              		.cfi_startproc
 468              		@ args = 0, pretend = 0, frame = 8
 469              		@ frame_needed = 1, uses_anonymous_args = 0
 470              		@ link register save eliminated.
 471 0000 80B4     		push	{r7}
 472              		.cfi_def_cfa_offset 4
 473              		.cfi_offset 7, -4
 474 0002 83B0     		sub	sp, sp, #12
 475              		.cfi_def_cfa_offset 16
 476 0004 00AF     		add	r7, sp, #0
 477              		.cfi_def_cfa_register 7
 478 0006 0346     		mov	r3, r0
 479 0008 FB71     		strb	r3, [r7, #7]
 686:Generated_Source\PSoC5/PWM_Stepper.c ****         CY_SET_REG8(PWM_Stepper_STATUS_MASK_PTR, interruptMode);
 480              		.loc 1 686 0
 481 000a 044A     		ldr	r2, .L31
 482 000c FB79     		ldrb	r3, [r7, #7]
 483 000e 1370     		strb	r3, [r2]
 687:Generated_Source\PSoC5/PWM_Stepper.c ****     }
 484              		.loc 1 687 0
 485 0010 00BF     		nop
 486 0012 0C37     		adds	r7, r7, #12
 487              		.cfi_def_cfa_offset 4
 488 0014 BD46     		mov	sp, r7
 489              		.cfi_def_cfa_register 13
 490              		@ sp needed
 491 0016 80BC     		pop	{r7}
 492              		.cfi_restore 7
 493              		.cfi_def_cfa_offset 0
 494 0018 7047     		bx	lr
 495              	.L32:
 496 001a 00BF     		.align	2
 497              	.L31:
 498 001c 8A650040 		.word	1073767818
 499              		.cfi_endproc
 500              	.LFE9:
 501              		.size	PWM_Stepper_SetInterruptMode, .-PWM_Stepper_SetInterruptMode
 502              		.section	.text.PWM_Stepper_ReadStatusRegister,"ax",%progbits
 503              		.align	2
 504              		.global	PWM_Stepper_ReadStatusRegister
 505              		.thumb
 506              		.thumb_func
 507              		.type	PWM_Stepper_ReadStatusRegister, %function
 508              	PWM_Stepper_ReadStatusRegister:
 509              	.LFB10:
ARM GAS  C:\Users\oars0\AppData\Local\Temp\cccD4JDO.s 			page 22


 688:Generated_Source\PSoC5/PWM_Stepper.c **** 
 689:Generated_Source\PSoC5/PWM_Stepper.c **** 
 690:Generated_Source\PSoC5/PWM_Stepper.c ****     /*******************************************************************************
 691:Generated_Source\PSoC5/PWM_Stepper.c ****     * Function Name: PWM_Stepper_ReadStatusRegister
 692:Generated_Source\PSoC5/PWM_Stepper.c ****     ********************************************************************************
 693:Generated_Source\PSoC5/PWM_Stepper.c ****     *
 694:Generated_Source\PSoC5/PWM_Stepper.c ****     * Summary:
 695:Generated_Source\PSoC5/PWM_Stepper.c ****     *  This function returns the current state of the status register.
 696:Generated_Source\PSoC5/PWM_Stepper.c ****     *
 697:Generated_Source\PSoC5/PWM_Stepper.c ****     * Parameters:
 698:Generated_Source\PSoC5/PWM_Stepper.c ****     *  None
 699:Generated_Source\PSoC5/PWM_Stepper.c ****     *
 700:Generated_Source\PSoC5/PWM_Stepper.c ****     * Return:
 701:Generated_Source\PSoC5/PWM_Stepper.c ****     *  uint8 : Current status register value. The status register bits are:
 702:Generated_Source\PSoC5/PWM_Stepper.c ****     *  [7:6] : Unused(0)
 703:Generated_Source\PSoC5/PWM_Stepper.c ****     *  [5]   : Kill event output
 704:Generated_Source\PSoC5/PWM_Stepper.c ****     *  [4]   : FIFO not empty
 705:Generated_Source\PSoC5/PWM_Stepper.c ****     *  [3]   : FIFO full
 706:Generated_Source\PSoC5/PWM_Stepper.c ****     *  [2]   : Terminal count
 707:Generated_Source\PSoC5/PWM_Stepper.c ****     *  [1]   : Compare output 2
 708:Generated_Source\PSoC5/PWM_Stepper.c ****     *  [0]   : Compare output 1
 709:Generated_Source\PSoC5/PWM_Stepper.c ****     *
 710:Generated_Source\PSoC5/PWM_Stepper.c ****     *******************************************************************************/
 711:Generated_Source\PSoC5/PWM_Stepper.c ****     uint8 PWM_Stepper_ReadStatusRegister(void) 
 712:Generated_Source\PSoC5/PWM_Stepper.c ****     {
 510              		.loc 1 712 0
 511              		.cfi_startproc
 512              		@ args = 0, pretend = 0, frame = 0
 513              		@ frame_needed = 1, uses_anonymous_args = 0
 514              		@ link register save eliminated.
 515 0000 80B4     		push	{r7}
 516              		.cfi_def_cfa_offset 4
 517              		.cfi_offset 7, -4
 518 0002 00AF     		add	r7, sp, #0
 519              		.cfi_def_cfa_register 7
 713:Generated_Source\PSoC5/PWM_Stepper.c ****         return (CY_GET_REG8(PWM_Stepper_STATUS_PTR));
 520              		.loc 1 713 0
 521 0004 034B     		ldr	r3, .L35
 522 0006 1B78     		ldrb	r3, [r3]
 523 0008 DBB2     		uxtb	r3, r3
 714:Generated_Source\PSoC5/PWM_Stepper.c ****     }
 524              		.loc 1 714 0
 525 000a 1846     		mov	r0, r3
 526 000c BD46     		mov	sp, r7
 527              		.cfi_def_cfa_register 13
 528              		@ sp needed
 529 000e 80BC     		pop	{r7}
 530              		.cfi_restore 7
 531              		.cfi_def_cfa_offset 0
 532 0010 7047     		bx	lr
 533              	.L36:
 534 0012 00BF     		.align	2
 535              	.L35:
 536 0014 6A650040 		.word	1073767786
 537              		.cfi_endproc
 538              	.LFE10:
 539              		.size	PWM_Stepper_ReadStatusRegister, .-PWM_Stepper_ReadStatusRegister
ARM GAS  C:\Users\oars0\AppData\Local\Temp\cccD4JDO.s 			page 23


 540              		.section	.text.PWM_Stepper_ReadControlRegister,"ax",%progbits
 541              		.align	2
 542              		.global	PWM_Stepper_ReadControlRegister
 543              		.thumb
 544              		.thumb_func
 545              		.type	PWM_Stepper_ReadControlRegister, %function
 546              	PWM_Stepper_ReadControlRegister:
 547              	.LFB11:
 715:Generated_Source\PSoC5/PWM_Stepper.c **** 
 716:Generated_Source\PSoC5/PWM_Stepper.c **** #endif /* (PWM_Stepper_UseStatus || PWM_Stepper_UsingFixedFunction) */
 717:Generated_Source\PSoC5/PWM_Stepper.c **** 
 718:Generated_Source\PSoC5/PWM_Stepper.c **** 
 719:Generated_Source\PSoC5/PWM_Stepper.c **** #if (PWM_Stepper_UseControl)
 720:Generated_Source\PSoC5/PWM_Stepper.c **** 
 721:Generated_Source\PSoC5/PWM_Stepper.c **** 
 722:Generated_Source\PSoC5/PWM_Stepper.c ****     /*******************************************************************************
 723:Generated_Source\PSoC5/PWM_Stepper.c ****     * Function Name: PWM_Stepper_ReadControlRegister
 724:Generated_Source\PSoC5/PWM_Stepper.c ****     ********************************************************************************
 725:Generated_Source\PSoC5/PWM_Stepper.c ****     *
 726:Generated_Source\PSoC5/PWM_Stepper.c ****     * Summary:
 727:Generated_Source\PSoC5/PWM_Stepper.c ****     *  Returns the current state of the control register. This API is available
 728:Generated_Source\PSoC5/PWM_Stepper.c ****     *  only if the control register is not removed.
 729:Generated_Source\PSoC5/PWM_Stepper.c ****     *
 730:Generated_Source\PSoC5/PWM_Stepper.c ****     * Parameters:
 731:Generated_Source\PSoC5/PWM_Stepper.c ****     *  None
 732:Generated_Source\PSoC5/PWM_Stepper.c ****     *
 733:Generated_Source\PSoC5/PWM_Stepper.c ****     * Return:
 734:Generated_Source\PSoC5/PWM_Stepper.c ****     *  uint8 : Current control register value
 735:Generated_Source\PSoC5/PWM_Stepper.c ****     *
 736:Generated_Source\PSoC5/PWM_Stepper.c ****     *******************************************************************************/
 737:Generated_Source\PSoC5/PWM_Stepper.c ****     uint8 PWM_Stepper_ReadControlRegister(void) 
 738:Generated_Source\PSoC5/PWM_Stepper.c ****     {
 548              		.loc 1 738 0
 549              		.cfi_startproc
 550              		@ args = 0, pretend = 0, frame = 8
 551              		@ frame_needed = 1, uses_anonymous_args = 0
 552              		@ link register save eliminated.
 553 0000 80B4     		push	{r7}
 554              		.cfi_def_cfa_offset 4
 555              		.cfi_offset 7, -4
 556 0002 83B0     		sub	sp, sp, #12
 557              		.cfi_def_cfa_offset 16
 558 0004 00AF     		add	r7, sp, #0
 559              		.cfi_def_cfa_register 7
 739:Generated_Source\PSoC5/PWM_Stepper.c ****         uint8 result;
 740:Generated_Source\PSoC5/PWM_Stepper.c **** 
 741:Generated_Source\PSoC5/PWM_Stepper.c ****         result = CY_GET_REG8(PWM_Stepper_CONTROL_PTR);
 560              		.loc 1 741 0
 561 0006 044B     		ldr	r3, .L39
 562 0008 1B78     		ldrb	r3, [r3]
 563 000a FB71     		strb	r3, [r7, #7]
 742:Generated_Source\PSoC5/PWM_Stepper.c ****         return (result);
 564              		.loc 1 742 0
 565 000c FB79     		ldrb	r3, [r7, #7]	@ zero_extendqisi2
 743:Generated_Source\PSoC5/PWM_Stepper.c ****     }
 566              		.loc 1 743 0
 567 000e 1846     		mov	r0, r3
ARM GAS  C:\Users\oars0\AppData\Local\Temp\cccD4JDO.s 			page 24


 568 0010 0C37     		adds	r7, r7, #12
 569              		.cfi_def_cfa_offset 4
 570 0012 BD46     		mov	sp, r7
 571              		.cfi_def_cfa_register 13
 572              		@ sp needed
 573 0014 80BC     		pop	{r7}
 574              		.cfi_restore 7
 575              		.cfi_def_cfa_offset 0
 576 0016 7047     		bx	lr
 577              	.L40:
 578              		.align	2
 579              	.L39:
 580 0018 7A650040 		.word	1073767802
 581              		.cfi_endproc
 582              	.LFE11:
 583              		.size	PWM_Stepper_ReadControlRegister, .-PWM_Stepper_ReadControlRegister
 584              		.section	.text.PWM_Stepper_WriteControlRegister,"ax",%progbits
 585              		.align	2
 586              		.global	PWM_Stepper_WriteControlRegister
 587              		.thumb
 588              		.thumb_func
 589              		.type	PWM_Stepper_WriteControlRegister, %function
 590              	PWM_Stepper_WriteControlRegister:
 591              	.LFB12:
 744:Generated_Source\PSoC5/PWM_Stepper.c **** 
 745:Generated_Source\PSoC5/PWM_Stepper.c **** 
 746:Generated_Source\PSoC5/PWM_Stepper.c ****     /*******************************************************************************
 747:Generated_Source\PSoC5/PWM_Stepper.c ****     * Function Name: PWM_Stepper_WriteControlRegister
 748:Generated_Source\PSoC5/PWM_Stepper.c ****     ********************************************************************************
 749:Generated_Source\PSoC5/PWM_Stepper.c ****     *
 750:Generated_Source\PSoC5/PWM_Stepper.c ****     * Summary:
 751:Generated_Source\PSoC5/PWM_Stepper.c ****     *  Sets the bit field of the control register. This API is available only if
 752:Generated_Source\PSoC5/PWM_Stepper.c ****     *  the control register is not removed.
 753:Generated_Source\PSoC5/PWM_Stepper.c ****     *
 754:Generated_Source\PSoC5/PWM_Stepper.c ****     * Parameters:
 755:Generated_Source\PSoC5/PWM_Stepper.c ****     *  uint8 control: Control register bit field, The status register bits are:
 756:Generated_Source\PSoC5/PWM_Stepper.c ****     *  [7]   : PWM Enable
 757:Generated_Source\PSoC5/PWM_Stepper.c ****     *  [6]   : Reset
 758:Generated_Source\PSoC5/PWM_Stepper.c ****     *  [5:3] : Compare Mode2
 759:Generated_Source\PSoC5/PWM_Stepper.c ****     *  [2:0] : Compare Mode2
 760:Generated_Source\PSoC5/PWM_Stepper.c ****     *
 761:Generated_Source\PSoC5/PWM_Stepper.c ****     * Return:
 762:Generated_Source\PSoC5/PWM_Stepper.c ****     *  None
 763:Generated_Source\PSoC5/PWM_Stepper.c ****     *
 764:Generated_Source\PSoC5/PWM_Stepper.c ****     *******************************************************************************/
 765:Generated_Source\PSoC5/PWM_Stepper.c ****     void PWM_Stepper_WriteControlRegister(uint8 control) 
 766:Generated_Source\PSoC5/PWM_Stepper.c ****     {
 592              		.loc 1 766 0
 593              		.cfi_startproc
 594              		@ args = 0, pretend = 0, frame = 8
 595              		@ frame_needed = 1, uses_anonymous_args = 0
 596              		@ link register save eliminated.
 597 0000 80B4     		push	{r7}
 598              		.cfi_def_cfa_offset 4
 599              		.cfi_offset 7, -4
 600 0002 83B0     		sub	sp, sp, #12
 601              		.cfi_def_cfa_offset 16
ARM GAS  C:\Users\oars0\AppData\Local\Temp\cccD4JDO.s 			page 25


 602 0004 00AF     		add	r7, sp, #0
 603              		.cfi_def_cfa_register 7
 604 0006 0346     		mov	r3, r0
 605 0008 FB71     		strb	r3, [r7, #7]
 767:Generated_Source\PSoC5/PWM_Stepper.c ****         CY_SET_REG8(PWM_Stepper_CONTROL_PTR, control);
 606              		.loc 1 767 0
 607 000a 044A     		ldr	r2, .L42
 608 000c FB79     		ldrb	r3, [r7, #7]
 609 000e 1370     		strb	r3, [r2]
 768:Generated_Source\PSoC5/PWM_Stepper.c ****     }
 610              		.loc 1 768 0
 611 0010 00BF     		nop
 612 0012 0C37     		adds	r7, r7, #12
 613              		.cfi_def_cfa_offset 4
 614 0014 BD46     		mov	sp, r7
 615              		.cfi_def_cfa_register 13
 616              		@ sp needed
 617 0016 80BC     		pop	{r7}
 618              		.cfi_restore 7
 619              		.cfi_def_cfa_offset 0
 620 0018 7047     		bx	lr
 621              	.L43:
 622 001a 00BF     		.align	2
 623              	.L42:
 624 001c 7A650040 		.word	1073767802
 625              		.cfi_endproc
 626              	.LFE12:
 627              		.size	PWM_Stepper_WriteControlRegister, .-PWM_Stepper_WriteControlRegister
 628              		.section	.text.PWM_Stepper_ReadCapture,"ax",%progbits
 629              		.align	2
 630              		.global	PWM_Stepper_ReadCapture
 631              		.thumb
 632              		.thumb_func
 633              		.type	PWM_Stepper_ReadCapture, %function
 634              	PWM_Stepper_ReadCapture:
 635              	.LFB13:
 769:Generated_Source\PSoC5/PWM_Stepper.c **** 
 770:Generated_Source\PSoC5/PWM_Stepper.c **** #endif /* (PWM_Stepper_UseControl) */
 771:Generated_Source\PSoC5/PWM_Stepper.c **** 
 772:Generated_Source\PSoC5/PWM_Stepper.c **** 
 773:Generated_Source\PSoC5/PWM_Stepper.c **** #if (!PWM_Stepper_UsingFixedFunction)
 774:Generated_Source\PSoC5/PWM_Stepper.c **** 
 775:Generated_Source\PSoC5/PWM_Stepper.c **** 
 776:Generated_Source\PSoC5/PWM_Stepper.c ****     /*******************************************************************************
 777:Generated_Source\PSoC5/PWM_Stepper.c ****     * Function Name: PWM_Stepper_ReadCapture
 778:Generated_Source\PSoC5/PWM_Stepper.c ****     ********************************************************************************
 779:Generated_Source\PSoC5/PWM_Stepper.c ****     *
 780:Generated_Source\PSoC5/PWM_Stepper.c ****     * Summary:
 781:Generated_Source\PSoC5/PWM_Stepper.c ****     *  Reads the capture value from the capture FIFO.
 782:Generated_Source\PSoC5/PWM_Stepper.c ****     *
 783:Generated_Source\PSoC5/PWM_Stepper.c ****     * Parameters:
 784:Generated_Source\PSoC5/PWM_Stepper.c ****     *  None
 785:Generated_Source\PSoC5/PWM_Stepper.c ****     *
 786:Generated_Source\PSoC5/PWM_Stepper.c ****     * Return:
 787:Generated_Source\PSoC5/PWM_Stepper.c ****     *  uint8/uint16: The current capture value
 788:Generated_Source\PSoC5/PWM_Stepper.c ****     *
 789:Generated_Source\PSoC5/PWM_Stepper.c ****     *******************************************************************************/
ARM GAS  C:\Users\oars0\AppData\Local\Temp\cccD4JDO.s 			page 26


 790:Generated_Source\PSoC5/PWM_Stepper.c ****     uint16 PWM_Stepper_ReadCapture(void) 
 791:Generated_Source\PSoC5/PWM_Stepper.c ****     {
 636              		.loc 1 791 0
 637              		.cfi_startproc
 638              		@ args = 0, pretend = 0, frame = 0
 639              		@ frame_needed = 1, uses_anonymous_args = 0
 640              		@ link register save eliminated.
 641 0000 80B4     		push	{r7}
 642              		.cfi_def_cfa_offset 4
 643              		.cfi_offset 7, -4
 644 0002 00AF     		add	r7, sp, #0
 645              		.cfi_def_cfa_register 7
 792:Generated_Source\PSoC5/PWM_Stepper.c ****         return (CY_GET_REG16(PWM_Stepper_CAPTURE_LSB_PTR));
 646              		.loc 1 792 0
 647 0004 034B     		ldr	r3, .L46
 648 0006 1B88     		ldrh	r3, [r3]	@ movhi
 649 0008 9BB2     		uxth	r3, r3
 793:Generated_Source\PSoC5/PWM_Stepper.c ****     }
 650              		.loc 1 793 0
 651 000a 1846     		mov	r0, r3
 652 000c BD46     		mov	sp, r7
 653              		.cfi_def_cfa_register 13
 654              		@ sp needed
 655 000e 80BC     		pop	{r7}
 656              		.cfi_restore 7
 657              		.cfi_def_cfa_offset 0
 658 0010 7047     		bx	lr
 659              	.L47:
 660 0012 00BF     		.align	2
 661              	.L46:
 662 0014 B06A0040 		.word	1073769136
 663              		.cfi_endproc
 664              	.LFE13:
 665              		.size	PWM_Stepper_ReadCapture, .-PWM_Stepper_ReadCapture
 666              		.section	.text.PWM_Stepper_ReadCompare,"ax",%progbits
 667              		.align	2
 668              		.global	PWM_Stepper_ReadCompare
 669              		.thumb
 670              		.thumb_func
 671              		.type	PWM_Stepper_ReadCompare, %function
 672              	PWM_Stepper_ReadCompare:
 673              	.LFB14:
 794:Generated_Source\PSoC5/PWM_Stepper.c **** 
 795:Generated_Source\PSoC5/PWM_Stepper.c **** #endif /* (!PWM_Stepper_UsingFixedFunction) */
 796:Generated_Source\PSoC5/PWM_Stepper.c **** 
 797:Generated_Source\PSoC5/PWM_Stepper.c **** 
 798:Generated_Source\PSoC5/PWM_Stepper.c **** #if (PWM_Stepper_UseOneCompareMode)
 799:Generated_Source\PSoC5/PWM_Stepper.c **** 
 800:Generated_Source\PSoC5/PWM_Stepper.c **** 
 801:Generated_Source\PSoC5/PWM_Stepper.c ****     /*******************************************************************************
 802:Generated_Source\PSoC5/PWM_Stepper.c ****     * Function Name: PWM_Stepper_ReadCompare
 803:Generated_Source\PSoC5/PWM_Stepper.c ****     ********************************************************************************
 804:Generated_Source\PSoC5/PWM_Stepper.c ****     *
 805:Generated_Source\PSoC5/PWM_Stepper.c ****     * Summary:
 806:Generated_Source\PSoC5/PWM_Stepper.c ****     *  Reads the compare value for the compare output when the PWM Mode parameter is
 807:Generated_Source\PSoC5/PWM_Stepper.c ****     *  set to Dither mode, Center Aligned mode, or One Output mode.
 808:Generated_Source\PSoC5/PWM_Stepper.c ****     *
ARM GAS  C:\Users\oars0\AppData\Local\Temp\cccD4JDO.s 			page 27


 809:Generated_Source\PSoC5/PWM_Stepper.c ****     * Parameters:
 810:Generated_Source\PSoC5/PWM_Stepper.c ****     *  None
 811:Generated_Source\PSoC5/PWM_Stepper.c ****     *
 812:Generated_Source\PSoC5/PWM_Stepper.c ****     * Return:
 813:Generated_Source\PSoC5/PWM_Stepper.c ****     *  uint8/uint16: Current compare value
 814:Generated_Source\PSoC5/PWM_Stepper.c ****     *
 815:Generated_Source\PSoC5/PWM_Stepper.c ****     *******************************************************************************/
 816:Generated_Source\PSoC5/PWM_Stepper.c ****     uint16 PWM_Stepper_ReadCompare(void) 
 817:Generated_Source\PSoC5/PWM_Stepper.c ****     {
 674              		.loc 1 817 0
 675              		.cfi_startproc
 676              		@ args = 0, pretend = 0, frame = 0
 677              		@ frame_needed = 1, uses_anonymous_args = 0
 678              		@ link register save eliminated.
 679 0000 80B4     		push	{r7}
 680              		.cfi_def_cfa_offset 4
 681              		.cfi_offset 7, -4
 682 0002 00AF     		add	r7, sp, #0
 683              		.cfi_def_cfa_register 7
 818:Generated_Source\PSoC5/PWM_Stepper.c ****         #if(PWM_Stepper_UsingFixedFunction)
 819:Generated_Source\PSoC5/PWM_Stepper.c ****             return ((uint16)CY_GET_REG16(PWM_Stepper_COMPARE1_LSB_PTR));
 820:Generated_Source\PSoC5/PWM_Stepper.c ****         #else
 821:Generated_Source\PSoC5/PWM_Stepper.c ****             return (CY_GET_REG16(PWM_Stepper_COMPARE1_LSB_PTR));
 684              		.loc 1 821 0
 685 0004 034B     		ldr	r3, .L50
 686 0006 1B88     		ldrh	r3, [r3]	@ movhi
 687 0008 9BB2     		uxth	r3, r3
 822:Generated_Source\PSoC5/PWM_Stepper.c ****         #endif /* (PWM_Stepper_UsingFixedFunction) */
 823:Generated_Source\PSoC5/PWM_Stepper.c ****     }
 688              		.loc 1 823 0
 689 000a 1846     		mov	r0, r3
 690 000c BD46     		mov	sp, r7
 691              		.cfi_def_cfa_register 13
 692              		@ sp needed
 693 000e 80BC     		pop	{r7}
 694              		.cfi_restore 7
 695              		.cfi_def_cfa_offset 0
 696 0010 7047     		bx	lr
 697              	.L51:
 698 0012 00BF     		.align	2
 699              	.L50:
 700 0014 506A0040 		.word	1073769040
 701              		.cfi_endproc
 702              	.LFE14:
 703              		.size	PWM_Stepper_ReadCompare, .-PWM_Stepper_ReadCompare
 704              		.section	.text.PWM_Stepper_ReadPeriod,"ax",%progbits
 705              		.align	2
 706              		.global	PWM_Stepper_ReadPeriod
 707              		.thumb
 708              		.thumb_func
 709              		.type	PWM_Stepper_ReadPeriod, %function
 710              	PWM_Stepper_ReadPeriod:
 711              	.LFB15:
 824:Generated_Source\PSoC5/PWM_Stepper.c **** 
 825:Generated_Source\PSoC5/PWM_Stepper.c **** #else
 826:Generated_Source\PSoC5/PWM_Stepper.c **** 
 827:Generated_Source\PSoC5/PWM_Stepper.c **** 
ARM GAS  C:\Users\oars0\AppData\Local\Temp\cccD4JDO.s 			page 28


 828:Generated_Source\PSoC5/PWM_Stepper.c ****     /*******************************************************************************
 829:Generated_Source\PSoC5/PWM_Stepper.c ****     * Function Name: PWM_Stepper_ReadCompare1
 830:Generated_Source\PSoC5/PWM_Stepper.c ****     ********************************************************************************
 831:Generated_Source\PSoC5/PWM_Stepper.c ****     *
 832:Generated_Source\PSoC5/PWM_Stepper.c ****     * Summary:
 833:Generated_Source\PSoC5/PWM_Stepper.c ****     *  Reads the compare value for the compare1 output.
 834:Generated_Source\PSoC5/PWM_Stepper.c ****     *
 835:Generated_Source\PSoC5/PWM_Stepper.c ****     * Parameters:
 836:Generated_Source\PSoC5/PWM_Stepper.c ****     *  None
 837:Generated_Source\PSoC5/PWM_Stepper.c ****     *
 838:Generated_Source\PSoC5/PWM_Stepper.c ****     * Return:
 839:Generated_Source\PSoC5/PWM_Stepper.c ****     *  uint8/uint16: Current compare value.
 840:Generated_Source\PSoC5/PWM_Stepper.c ****     *
 841:Generated_Source\PSoC5/PWM_Stepper.c ****     *******************************************************************************/
 842:Generated_Source\PSoC5/PWM_Stepper.c ****     uint16 PWM_Stepper_ReadCompare1(void) 
 843:Generated_Source\PSoC5/PWM_Stepper.c ****     {
 844:Generated_Source\PSoC5/PWM_Stepper.c ****         return (CY_GET_REG16(PWM_Stepper_COMPARE1_LSB_PTR));
 845:Generated_Source\PSoC5/PWM_Stepper.c ****     }
 846:Generated_Source\PSoC5/PWM_Stepper.c **** 
 847:Generated_Source\PSoC5/PWM_Stepper.c **** 
 848:Generated_Source\PSoC5/PWM_Stepper.c ****     /*******************************************************************************
 849:Generated_Source\PSoC5/PWM_Stepper.c ****     * Function Name: PWM_Stepper_ReadCompare2
 850:Generated_Source\PSoC5/PWM_Stepper.c ****     ********************************************************************************
 851:Generated_Source\PSoC5/PWM_Stepper.c ****     *
 852:Generated_Source\PSoC5/PWM_Stepper.c ****     * Summary:
 853:Generated_Source\PSoC5/PWM_Stepper.c ****     *  Reads the compare value for the compare2 output.
 854:Generated_Source\PSoC5/PWM_Stepper.c ****     *
 855:Generated_Source\PSoC5/PWM_Stepper.c ****     * Parameters:
 856:Generated_Source\PSoC5/PWM_Stepper.c ****     *  None
 857:Generated_Source\PSoC5/PWM_Stepper.c ****     *
 858:Generated_Source\PSoC5/PWM_Stepper.c ****     * Return:
 859:Generated_Source\PSoC5/PWM_Stepper.c ****     *  uint8/uint16: Current compare value.
 860:Generated_Source\PSoC5/PWM_Stepper.c ****     *
 861:Generated_Source\PSoC5/PWM_Stepper.c ****     *******************************************************************************/
 862:Generated_Source\PSoC5/PWM_Stepper.c ****     uint16 PWM_Stepper_ReadCompare2(void) 
 863:Generated_Source\PSoC5/PWM_Stepper.c ****     {
 864:Generated_Source\PSoC5/PWM_Stepper.c ****         return (CY_GET_REG16(PWM_Stepper_COMPARE2_LSB_PTR));
 865:Generated_Source\PSoC5/PWM_Stepper.c ****     }
 866:Generated_Source\PSoC5/PWM_Stepper.c **** 
 867:Generated_Source\PSoC5/PWM_Stepper.c **** #endif /* (PWM_Stepper_UseOneCompareMode) */
 868:Generated_Source\PSoC5/PWM_Stepper.c **** 
 869:Generated_Source\PSoC5/PWM_Stepper.c **** 
 870:Generated_Source\PSoC5/PWM_Stepper.c **** /*******************************************************************************
 871:Generated_Source\PSoC5/PWM_Stepper.c **** * Function Name: PWM_Stepper_ReadPeriod
 872:Generated_Source\PSoC5/PWM_Stepper.c **** ********************************************************************************
 873:Generated_Source\PSoC5/PWM_Stepper.c **** *
 874:Generated_Source\PSoC5/PWM_Stepper.c **** * Summary:
 875:Generated_Source\PSoC5/PWM_Stepper.c **** *  Reads the period value used by the PWM hardware.
 876:Generated_Source\PSoC5/PWM_Stepper.c **** *
 877:Generated_Source\PSoC5/PWM_Stepper.c **** * Parameters:
 878:Generated_Source\PSoC5/PWM_Stepper.c **** *  None
 879:Generated_Source\PSoC5/PWM_Stepper.c **** *
 880:Generated_Source\PSoC5/PWM_Stepper.c **** * Return:
 881:Generated_Source\PSoC5/PWM_Stepper.c **** *  uint8/16: Period value
 882:Generated_Source\PSoC5/PWM_Stepper.c **** *
 883:Generated_Source\PSoC5/PWM_Stepper.c **** *******************************************************************************/
 884:Generated_Source\PSoC5/PWM_Stepper.c **** uint16 PWM_Stepper_ReadPeriod(void) 
ARM GAS  C:\Users\oars0\AppData\Local\Temp\cccD4JDO.s 			page 29


 885:Generated_Source\PSoC5/PWM_Stepper.c **** {
 712              		.loc 1 885 0
 713              		.cfi_startproc
 714              		@ args = 0, pretend = 0, frame = 0
 715              		@ frame_needed = 1, uses_anonymous_args = 0
 716              		@ link register save eliminated.
 717 0000 80B4     		push	{r7}
 718              		.cfi_def_cfa_offset 4
 719              		.cfi_offset 7, -4
 720 0002 00AF     		add	r7, sp, #0
 721              		.cfi_def_cfa_register 7
 886:Generated_Source\PSoC5/PWM_Stepper.c ****     #if(PWM_Stepper_UsingFixedFunction)
 887:Generated_Source\PSoC5/PWM_Stepper.c ****         return ((uint16)CY_GET_REG16(PWM_Stepper_PERIOD_LSB_PTR));
 888:Generated_Source\PSoC5/PWM_Stepper.c ****     #else
 889:Generated_Source\PSoC5/PWM_Stepper.c ****         return (CY_GET_REG16(PWM_Stepper_PERIOD_LSB_PTR));
 722              		.loc 1 889 0
 723 0004 034B     		ldr	r3, .L54
 724 0006 1B88     		ldrh	r3, [r3]	@ movhi
 725 0008 9BB2     		uxth	r3, r3
 890:Generated_Source\PSoC5/PWM_Stepper.c ****     #endif /* (PWM_Stepper_UsingFixedFunction) */
 891:Generated_Source\PSoC5/PWM_Stepper.c **** }
 726              		.loc 1 891 0
 727 000a 1846     		mov	r0, r3
 728 000c BD46     		mov	sp, r7
 729              		.cfi_def_cfa_register 13
 730              		@ sp needed
 731 000e 80BC     		pop	{r7}
 732              		.cfi_restore 7
 733              		.cfi_def_cfa_offset 0
 734 0010 7047     		bx	lr
 735              	.L55:
 736 0012 00BF     		.align	2
 737              	.L54:
 738 0014 906A0040 		.word	1073769104
 739              		.cfi_endproc
 740              	.LFE15:
 741              		.size	PWM_Stepper_ReadPeriod, .-PWM_Stepper_ReadPeriod
 742              		.text
 743              	.Letext0:
 744              		.file 2 "Generated_Source\\PSoC5\\cytypes.h"