ARM GAS  C:\Users\oars0\AppData\Local\Temp\cc7aWiR5.s 			page 1


   1              		.syntax unified
   2              		.cpu cortex-m3
   3              		.fpu softvfp
   4              		.eabi_attribute 20, 1
   5              		.eabi_attribute 21, 1
   6              		.eabi_attribute 23, 3
   7              		.eabi_attribute 24, 1
   8              		.eabi_attribute 25, 1
   9              		.eabi_attribute 26, 1
  10              		.eabi_attribute 30, 6
  11              		.eabi_attribute 34, 1
  12              		.eabi_attribute 18, 4
  13              		.thumb
  14              		.syntax unified
  15              		.file	"cyfitter_cfg.c"
  16              		.text
  17              	.Ltext0:
  18              		.cfi_sections	.debug_frame
  19              		.section	.text.CYMEMZERO,"ax",%progbits
  20              		.align	2
  21              		.thumb
  22              		.thumb_func
  23              		.type	CYMEMZERO, %function
  24              	CYMEMZERO:
  25              	.LFB0:
  26              		.file 1 "Generated_Source\\PSoC5\\cyfitter_cfg.c"
   1:Generated_Source\PSoC5/cyfitter_cfg.c **** 
   2:Generated_Source\PSoC5/cyfitter_cfg.c **** /*******************************************************************************
   3:Generated_Source\PSoC5/cyfitter_cfg.c **** * File Name: cyfitter_cfg.c
   4:Generated_Source\PSoC5/cyfitter_cfg.c **** * 
   5:Generated_Source\PSoC5/cyfitter_cfg.c **** * PSoC Creator  4.4
   6:Generated_Source\PSoC5/cyfitter_cfg.c **** *
   7:Generated_Source\PSoC5/cyfitter_cfg.c **** * Description:
   8:Generated_Source\PSoC5/cyfitter_cfg.c **** * This file contains device initialization code.
   9:Generated_Source\PSoC5/cyfitter_cfg.c **** * Except for the user defined sections in CyClockStartupError(), this file should not be modified.
  10:Generated_Source\PSoC5/cyfitter_cfg.c **** * This file is automatically generated by PSoC Creator.
  11:Generated_Source\PSoC5/cyfitter_cfg.c **** *
  12:Generated_Source\PSoC5/cyfitter_cfg.c **** ********************************************************************************
  13:Generated_Source\PSoC5/cyfitter_cfg.c **** * Copyright (c) 2007-2020 Cypress Semiconductor.  All rights reserved.
  14:Generated_Source\PSoC5/cyfitter_cfg.c **** * You may use this file only in accordance with the license, terms, conditions, 
  15:Generated_Source\PSoC5/cyfitter_cfg.c **** * disclaimers, and limitations in the end user license agreement accompanying 
  16:Generated_Source\PSoC5/cyfitter_cfg.c **** * the software package with which this file was provided.
  17:Generated_Source\PSoC5/cyfitter_cfg.c **** ********************************************************************************/
  18:Generated_Source\PSoC5/cyfitter_cfg.c **** 
  19:Generated_Source\PSoC5/cyfitter_cfg.c **** #include <string.h>
  20:Generated_Source\PSoC5/cyfitter_cfg.c **** #include "cytypes.h"
  21:Generated_Source\PSoC5/cyfitter_cfg.c **** #include "cydevice_trm.h"
  22:Generated_Source\PSoC5/cyfitter_cfg.c **** #include "cyfitter.h"
  23:Generated_Source\PSoC5/cyfitter_cfg.c **** #include "CyLib.h"
  24:Generated_Source\PSoC5/cyfitter_cfg.c **** #include "cyfitter_cfg.h"
  25:Generated_Source\PSoC5/cyfitter_cfg.c **** #include "cyapicallbacks.h"
  26:Generated_Source\PSoC5/cyfitter_cfg.c **** 
  27:Generated_Source\PSoC5/cyfitter_cfg.c **** #define CY_NEED_CYCLOCKSTARTUPERROR 1
  28:Generated_Source\PSoC5/cyfitter_cfg.c **** 
  29:Generated_Source\PSoC5/cyfitter_cfg.c **** 
  30:Generated_Source\PSoC5/cyfitter_cfg.c **** #if defined(__GNUC__) || defined(__ARMCC_VERSION)
  31:Generated_Source\PSoC5/cyfitter_cfg.c ****     #define CYPACKED 
ARM GAS  C:\Users\oars0\AppData\Local\Temp\cc7aWiR5.s 			page 2


  32:Generated_Source\PSoC5/cyfitter_cfg.c ****     #define CYPACKED_ATTR __attribute__ ((packed))
  33:Generated_Source\PSoC5/cyfitter_cfg.c ****     #define CYALIGNED __attribute__ ((aligned))
  34:Generated_Source\PSoC5/cyfitter_cfg.c ****     #define CY_CFG_UNUSED __attribute__ ((unused))
  35:Generated_Source\PSoC5/cyfitter_cfg.c ****     #ifndef CY_CFG_SECTION
  36:Generated_Source\PSoC5/cyfitter_cfg.c ****         #define CY_CFG_SECTION __attribute__ ((section(".psocinit")))
  37:Generated_Source\PSoC5/cyfitter_cfg.c ****     #endif
  38:Generated_Source\PSoC5/cyfitter_cfg.c ****     
  39:Generated_Source\PSoC5/cyfitter_cfg.c ****     #if defined(__ARMCC_VERSION)
  40:Generated_Source\PSoC5/cyfitter_cfg.c ****         #define CY_CFG_MEMORY_BARRIER() __memory_changed()
  41:Generated_Source\PSoC5/cyfitter_cfg.c ****     #else
  42:Generated_Source\PSoC5/cyfitter_cfg.c ****         #define CY_CFG_MEMORY_BARRIER() __sync_synchronize()
  43:Generated_Source\PSoC5/cyfitter_cfg.c ****     #endif
  44:Generated_Source\PSoC5/cyfitter_cfg.c ****     
  45:Generated_Source\PSoC5/cyfitter_cfg.c **** #elif defined(__ICCARM__)
  46:Generated_Source\PSoC5/cyfitter_cfg.c ****     #include <intrinsics.h>
  47:Generated_Source\PSoC5/cyfitter_cfg.c **** 
  48:Generated_Source\PSoC5/cyfitter_cfg.c ****     #define CYPACKED __packed
  49:Generated_Source\PSoC5/cyfitter_cfg.c ****     #define CYPACKED_ATTR 
  50:Generated_Source\PSoC5/cyfitter_cfg.c ****     #define CYALIGNED _Pragma("data_alignment=4")
  51:Generated_Source\PSoC5/cyfitter_cfg.c ****     #define CY_CFG_UNUSED _Pragma("diag_suppress=Pe177")
  52:Generated_Source\PSoC5/cyfitter_cfg.c ****     #define CY_CFG_SECTION _Pragma("location=\".psocinit\"")
  53:Generated_Source\PSoC5/cyfitter_cfg.c ****     
  54:Generated_Source\PSoC5/cyfitter_cfg.c ****     #define CY_CFG_MEMORY_BARRIER() __DMB()
  55:Generated_Source\PSoC5/cyfitter_cfg.c ****     
  56:Generated_Source\PSoC5/cyfitter_cfg.c **** #else
  57:Generated_Source\PSoC5/cyfitter_cfg.c ****     #error Unsupported toolchain
  58:Generated_Source\PSoC5/cyfitter_cfg.c **** #endif
  59:Generated_Source\PSoC5/cyfitter_cfg.c **** 
  60:Generated_Source\PSoC5/cyfitter_cfg.c **** #ifndef CYCODE
  61:Generated_Source\PSoC5/cyfitter_cfg.c ****     #define CYCODE
  62:Generated_Source\PSoC5/cyfitter_cfg.c **** #endif
  63:Generated_Source\PSoC5/cyfitter_cfg.c **** #ifndef CYDATA
  64:Generated_Source\PSoC5/cyfitter_cfg.c ****     #define CYDATA
  65:Generated_Source\PSoC5/cyfitter_cfg.c **** #endif
  66:Generated_Source\PSoC5/cyfitter_cfg.c **** #ifndef CYFAR
  67:Generated_Source\PSoC5/cyfitter_cfg.c ****     #define CYFAR
  68:Generated_Source\PSoC5/cyfitter_cfg.c **** #endif
  69:Generated_Source\PSoC5/cyfitter_cfg.c **** #ifndef CYXDATA
  70:Generated_Source\PSoC5/cyfitter_cfg.c ****     #define CYXDATA
  71:Generated_Source\PSoC5/cyfitter_cfg.c **** #endif
  72:Generated_Source\PSoC5/cyfitter_cfg.c **** 
  73:Generated_Source\PSoC5/cyfitter_cfg.c **** 
  74:Generated_Source\PSoC5/cyfitter_cfg.c **** CY_CFG_UNUSED
  75:Generated_Source\PSoC5/cyfitter_cfg.c **** static void CYMEMZERO(void *s, size_t n);
  76:Generated_Source\PSoC5/cyfitter_cfg.c **** CY_CFG_UNUSED
  77:Generated_Source\PSoC5/cyfitter_cfg.c **** static void CYMEMZERO(void *s, size_t n)
  78:Generated_Source\PSoC5/cyfitter_cfg.c **** {
  27              		.loc 1 78 0
  28              		.cfi_startproc
  29              		@ args = 0, pretend = 0, frame = 8
  30              		@ frame_needed = 1, uses_anonymous_args = 0
  31 0000 80B5     		push	{r7, lr}
  32              		.cfi_def_cfa_offset 8
  33              		.cfi_offset 7, -8
  34              		.cfi_offset 14, -4
  35 0002 82B0     		sub	sp, sp, #8
  36              		.cfi_def_cfa_offset 16
ARM GAS  C:\Users\oars0\AppData\Local\Temp\cc7aWiR5.s 			page 3


  37 0004 00AF     		add	r7, sp, #0
  38              		.cfi_def_cfa_register 7
  39 0006 7860     		str	r0, [r7, #4]
  40 0008 3960     		str	r1, [r7]
  79:Generated_Source\PSoC5/cyfitter_cfg.c **** 	(void)memset(s, 0, n);
  41              		.loc 1 79 0
  42 000a 3A68     		ldr	r2, [r7]
  43 000c 0021     		movs	r1, #0
  44 000e 7868     		ldr	r0, [r7, #4]
  45 0010 FFF7FEFF 		bl	memset
  80:Generated_Source\PSoC5/cyfitter_cfg.c **** }
  46              		.loc 1 80 0
  47 0014 00BF     		nop
  48 0016 0837     		adds	r7, r7, #8
  49              		.cfi_def_cfa_offset 8
  50 0018 BD46     		mov	sp, r7
  51              		.cfi_def_cfa_register 13
  52              		@ sp needed
  53 001a 80BD     		pop	{r7, pc}
  54              		.cfi_endproc
  55              	.LFE0:
  56              		.size	CYMEMZERO, .-CYMEMZERO
  57              		.section	.text.CYCONFIGCPY,"ax",%progbits
  58              		.align	2
  59              		.thumb
  60              		.thumb_func
  61              		.type	CYCONFIGCPY, %function
  62              	CYCONFIGCPY:
  63              	.LFB1:
  81:Generated_Source\PSoC5/cyfitter_cfg.c **** CY_CFG_UNUSED
  82:Generated_Source\PSoC5/cyfitter_cfg.c **** static void CYCONFIGCPY(void *dest, const void *src, size_t n);
  83:Generated_Source\PSoC5/cyfitter_cfg.c **** CY_CFG_UNUSED
  84:Generated_Source\PSoC5/cyfitter_cfg.c **** static void CYCONFIGCPY(void *dest, const void *src, size_t n)
  85:Generated_Source\PSoC5/cyfitter_cfg.c **** {
  64              		.loc 1 85 0
  65              		.cfi_startproc
  66              		@ args = 0, pretend = 0, frame = 16
  67              		@ frame_needed = 1, uses_anonymous_args = 0
  68 0000 80B5     		push	{r7, lr}
  69              		.cfi_def_cfa_offset 8
  70              		.cfi_offset 7, -8
  71              		.cfi_offset 14, -4
  72 0002 84B0     		sub	sp, sp, #16
  73              		.cfi_def_cfa_offset 24
  74 0004 00AF     		add	r7, sp, #0
  75              		.cfi_def_cfa_register 7
  76 0006 F860     		str	r0, [r7, #12]
  77 0008 B960     		str	r1, [r7, #8]
  78 000a 7A60     		str	r2, [r7, #4]
  86:Generated_Source\PSoC5/cyfitter_cfg.c **** 	(void)memcpy(dest, src, n);
  79              		.loc 1 86 0
  80 000c 7A68     		ldr	r2, [r7, #4]
  81 000e B968     		ldr	r1, [r7, #8]
  82 0010 F868     		ldr	r0, [r7, #12]
  83 0012 FFF7FEFF 		bl	memcpy
  87:Generated_Source\PSoC5/cyfitter_cfg.c **** }
  84              		.loc 1 87 0
ARM GAS  C:\Users\oars0\AppData\Local\Temp\cc7aWiR5.s 			page 4


  85 0016 00BF     		nop
  86 0018 1037     		adds	r7, r7, #16
  87              		.cfi_def_cfa_offset 8
  88 001a BD46     		mov	sp, r7
  89              		.cfi_def_cfa_register 13
  90              		@ sp needed
  91 001c 80BD     		pop	{r7, pc}
  92              		.cfi_endproc
  93              	.LFE1:
  94              		.size	CYCONFIGCPY, .-CYCONFIGCPY
  95 001e 00BF     		.section	.text.CYCONFIGCPYCODE,"ax",%progbits
  96              		.align	2
  97              		.thumb
  98              		.thumb_func
  99              		.type	CYCONFIGCPYCODE, %function
 100              	CYCONFIGCPYCODE:
 101              	.LFB2:
  88:Generated_Source\PSoC5/cyfitter_cfg.c **** CY_CFG_UNUSED
  89:Generated_Source\PSoC5/cyfitter_cfg.c **** static void CYCONFIGCPYCODE(void *dest, const void *src, size_t n);
  90:Generated_Source\PSoC5/cyfitter_cfg.c **** CY_CFG_UNUSED
  91:Generated_Source\PSoC5/cyfitter_cfg.c **** static void CYCONFIGCPYCODE(void *dest, const void *src, size_t n)
  92:Generated_Source\PSoC5/cyfitter_cfg.c **** {
 102              		.loc 1 92 0
 103              		.cfi_startproc
 104              		@ args = 0, pretend = 0, frame = 16
 105              		@ frame_needed = 1, uses_anonymous_args = 0
 106 0000 80B5     		push	{r7, lr}
 107              		.cfi_def_cfa_offset 8
 108              		.cfi_offset 7, -8
 109              		.cfi_offset 14, -4
 110 0002 84B0     		sub	sp, sp, #16
 111              		.cfi_def_cfa_offset 24
 112 0004 00AF     		add	r7, sp, #0
 113              		.cfi_def_cfa_register 7
 114 0006 F860     		str	r0, [r7, #12]
 115 0008 B960     		str	r1, [r7, #8]
 116 000a 7A60     		str	r2, [r7, #4]
  93:Generated_Source\PSoC5/cyfitter_cfg.c **** 	(void)memcpy(dest, src, n);
 117              		.loc 1 93 0
 118 000c 7A68     		ldr	r2, [r7, #4]
 119 000e B968     		ldr	r1, [r7, #8]
 120 0010 F868     		ldr	r0, [r7, #12]
 121 0012 FFF7FEFF 		bl	memcpy
  94:Generated_Source\PSoC5/cyfitter_cfg.c **** }
 122              		.loc 1 94 0
 123 0016 00BF     		nop
 124 0018 1037     		adds	r7, r7, #16
 125              		.cfi_def_cfa_offset 8
 126 001a BD46     		mov	sp, r7
 127              		.cfi_def_cfa_register 13
 128              		@ sp needed
 129 001c 80BD     		pop	{r7, pc}
 130              		.cfi_endproc
 131              	.LFE2:
 132              		.size	CYCONFIGCPYCODE, .-CYCONFIGCPYCODE
 133 001e 00BF     		.section	.text.CyClockStartupError,"ax",%progbits
 134              		.align	2
ARM GAS  C:\Users\oars0\AppData\Local\Temp\cc7aWiR5.s 			page 5


 135              		.thumb
 136              		.thumb_func
 137              		.type	CyClockStartupError, %function
 138              	CyClockStartupError:
 139              	.LFB3:
  95:Generated_Source\PSoC5/cyfitter_cfg.c **** 
  96:Generated_Source\PSoC5/cyfitter_cfg.c **** 
  97:Generated_Source\PSoC5/cyfitter_cfg.c **** 
  98:Generated_Source\PSoC5/cyfitter_cfg.c **** 
  99:Generated_Source\PSoC5/cyfitter_cfg.c **** /* Clock startup error codes                                                   */
 100:Generated_Source\PSoC5/cyfitter_cfg.c **** #define CYCLOCKSTART_NO_ERROR    0u
 101:Generated_Source\PSoC5/cyfitter_cfg.c **** #define CYCLOCKSTART_XTAL_ERROR  1u
 102:Generated_Source\PSoC5/cyfitter_cfg.c **** #define CYCLOCKSTART_32KHZ_ERROR 2u
 103:Generated_Source\PSoC5/cyfitter_cfg.c **** #define CYCLOCKSTART_PLL_ERROR   3u
 104:Generated_Source\PSoC5/cyfitter_cfg.c **** #define CYCLOCKSTART_FLL_ERROR   4u
 105:Generated_Source\PSoC5/cyfitter_cfg.c **** #define CYCLOCKSTART_WCO_ERROR   5u
 106:Generated_Source\PSoC5/cyfitter_cfg.c **** 
 107:Generated_Source\PSoC5/cyfitter_cfg.c **** 
 108:Generated_Source\PSoC5/cyfitter_cfg.c **** #ifdef CY_NEED_CYCLOCKSTARTUPERROR
 109:Generated_Source\PSoC5/cyfitter_cfg.c **** /*******************************************************************************
 110:Generated_Source\PSoC5/cyfitter_cfg.c **** * Function Name: CyClockStartupError
 111:Generated_Source\PSoC5/cyfitter_cfg.c **** ********************************************************************************
 112:Generated_Source\PSoC5/cyfitter_cfg.c **** * Summary:
 113:Generated_Source\PSoC5/cyfitter_cfg.c **** *  If an error is encountered during clock configuration (crystal startup error,
 114:Generated_Source\PSoC5/cyfitter_cfg.c **** *  PLL lock error, etc.), the system will end up here.  Unless reimplemented by
 115:Generated_Source\PSoC5/cyfitter_cfg.c **** *  the customer, this function will stop in an infinite loop.
 116:Generated_Source\PSoC5/cyfitter_cfg.c **** *
 117:Generated_Source\PSoC5/cyfitter_cfg.c **** * Parameters:
 118:Generated_Source\PSoC5/cyfitter_cfg.c **** *   void
 119:Generated_Source\PSoC5/cyfitter_cfg.c **** *
 120:Generated_Source\PSoC5/cyfitter_cfg.c **** * Return:
 121:Generated_Source\PSoC5/cyfitter_cfg.c **** *   void
 122:Generated_Source\PSoC5/cyfitter_cfg.c **** *
 123:Generated_Source\PSoC5/cyfitter_cfg.c **** *******************************************************************************/
 124:Generated_Source\PSoC5/cyfitter_cfg.c **** CY_CFG_UNUSED
 125:Generated_Source\PSoC5/cyfitter_cfg.c **** static void CyClockStartupError(uint8 errorCode);
 126:Generated_Source\PSoC5/cyfitter_cfg.c **** CY_CFG_UNUSED
 127:Generated_Source\PSoC5/cyfitter_cfg.c **** static void CyClockStartupError(uint8 errorCode)
 128:Generated_Source\PSoC5/cyfitter_cfg.c **** {
 140              		.loc 1 128 0
 141              		.cfi_startproc
 142              		@ args = 0, pretend = 0, frame = 8
 143              		@ frame_needed = 1, uses_anonymous_args = 0
 144              		@ link register save eliminated.
 145 0000 80B4     		push	{r7}
 146              		.cfi_def_cfa_offset 4
 147              		.cfi_offset 7, -4
 148 0002 83B0     		sub	sp, sp, #12
 149              		.cfi_def_cfa_offset 16
 150 0004 00AF     		add	r7, sp, #0
 151              		.cfi_def_cfa_register 7
 152 0006 0346     		mov	r3, r0
 153 0008 FB71     		strb	r3, [r7, #7]
 154              	.L5:
 129:Generated_Source\PSoC5/cyfitter_cfg.c ****     /* To remove the compiler warning if errorCode not used.                */
 130:Generated_Source\PSoC5/cyfitter_cfg.c ****     errorCode = errorCode;
 131:Generated_Source\PSoC5/cyfitter_cfg.c **** 
ARM GAS  C:\Users\oars0\AppData\Local\Temp\cc7aWiR5.s 			page 6


 132:Generated_Source\PSoC5/cyfitter_cfg.c ****     /* If we have a clock startup error (bad MHz crystal, PLL lock, etc.),  */
 133:Generated_Source\PSoC5/cyfitter_cfg.c ****     /* we will end up here to allow the customer to implement something to  */
 134:Generated_Source\PSoC5/cyfitter_cfg.c ****     /* deal with the clock condition.                                       */
 135:Generated_Source\PSoC5/cyfitter_cfg.c **** 
 136:Generated_Source\PSoC5/cyfitter_cfg.c **** #ifdef CY_CFG_CLOCK_STARTUP_ERROR_CALLBACK
 137:Generated_Source\PSoC5/cyfitter_cfg.c ****     CY_CFG_Clock_Startup_ErrorCallback();
 138:Generated_Source\PSoC5/cyfitter_cfg.c **** #else
 139:Generated_Source\PSoC5/cyfitter_cfg.c ****     /*  If not using CY_CFG_CLOCK_STARTUP_ERROR_CALLBACK, place your clock startup code here. */
 140:Generated_Source\PSoC5/cyfitter_cfg.c ****     /* `#START CyClockStartupError` */
 141:Generated_Source\PSoC5/cyfitter_cfg.c **** 
 142:Generated_Source\PSoC5/cyfitter_cfg.c **** 
 143:Generated_Source\PSoC5/cyfitter_cfg.c **** 
 144:Generated_Source\PSoC5/cyfitter_cfg.c ****     /* `#END` */
 145:Generated_Source\PSoC5/cyfitter_cfg.c **** 
 146:Generated_Source\PSoC5/cyfitter_cfg.c ****     while(1) {}
 155              		.loc 1 146 0 discriminator 1
 156 000a FEE7     		b	.L5
 157              		.cfi_endproc
 158              	.LFE3:
 159              		.size	CyClockStartupError, .-CyClockStartupError
 160              		.section	.text.cfg_write_bytes32,"ax",%progbits
 161              		.align	2
 162              		.thumb
 163              		.thumb_func
 164              		.type	cfg_write_bytes32, %function
 165              	cfg_write_bytes32:
 166              	.LFB4:
 147:Generated_Source\PSoC5/cyfitter_cfg.c **** #endif /* CY_CFG_CLOCK_STARTUP_ERROR_CALLBACK */
 148:Generated_Source\PSoC5/cyfitter_cfg.c **** }
 149:Generated_Source\PSoC5/cyfitter_cfg.c **** #endif
 150:Generated_Source\PSoC5/cyfitter_cfg.c **** 
 151:Generated_Source\PSoC5/cyfitter_cfg.c **** #define CY_CFG_BASE_ADDR_COUNT 37u
 152:Generated_Source\PSoC5/cyfitter_cfg.c **** CYPACKED typedef struct
 153:Generated_Source\PSoC5/cyfitter_cfg.c **** {
 154:Generated_Source\PSoC5/cyfitter_cfg.c **** 	uint8 offset;
 155:Generated_Source\PSoC5/cyfitter_cfg.c **** 	uint8 value;
 156:Generated_Source\PSoC5/cyfitter_cfg.c **** } CYPACKED_ATTR cy_cfg_addrvalue_t;
 157:Generated_Source\PSoC5/cyfitter_cfg.c **** 
 158:Generated_Source\PSoC5/cyfitter_cfg.c **** 
 159:Generated_Source\PSoC5/cyfitter_cfg.c **** 
 160:Generated_Source\PSoC5/cyfitter_cfg.c **** /*******************************************************************************
 161:Generated_Source\PSoC5/cyfitter_cfg.c **** * Function Name: cfg_write_bytes32
 162:Generated_Source\PSoC5/cyfitter_cfg.c **** ********************************************************************************
 163:Generated_Source\PSoC5/cyfitter_cfg.c **** * Summary:
 164:Generated_Source\PSoC5/cyfitter_cfg.c **** *  This function is used for setting up the chip configuration areas that
 165:Generated_Source\PSoC5/cyfitter_cfg.c **** *  contain relatively sparse data.
 166:Generated_Source\PSoC5/cyfitter_cfg.c **** *
 167:Generated_Source\PSoC5/cyfitter_cfg.c **** * Parameters:
 168:Generated_Source\PSoC5/cyfitter_cfg.c **** *   void
 169:Generated_Source\PSoC5/cyfitter_cfg.c **** *
 170:Generated_Source\PSoC5/cyfitter_cfg.c **** * Return:
 171:Generated_Source\PSoC5/cyfitter_cfg.c **** *   void
 172:Generated_Source\PSoC5/cyfitter_cfg.c **** *
 173:Generated_Source\PSoC5/cyfitter_cfg.c **** *******************************************************************************/
 174:Generated_Source\PSoC5/cyfitter_cfg.c **** static void cfg_write_bytes32(const uint32 addr_table[], const cy_cfg_addrvalue_t data_table[]);
 175:Generated_Source\PSoC5/cyfitter_cfg.c **** static void cfg_write_bytes32(const uint32 addr_table[], const cy_cfg_addrvalue_t data_table[])
 176:Generated_Source\PSoC5/cyfitter_cfg.c **** {
ARM GAS  C:\Users\oars0\AppData\Local\Temp\cc7aWiR5.s 			page 7


 167              		.loc 1 176 0
 168              		.cfi_startproc
 169              		@ args = 0, pretend = 0, frame = 24
 170              		@ frame_needed = 1, uses_anonymous_args = 0
 171              		@ link register save eliminated.
 172 0000 80B4     		push	{r7}
 173              		.cfi_def_cfa_offset 4
 174              		.cfi_offset 7, -4
 175 0002 87B0     		sub	sp, sp, #28
 176              		.cfi_def_cfa_offset 32
 177 0004 00AF     		add	r7, sp, #0
 178              		.cfi_def_cfa_register 7
 179 0006 7860     		str	r0, [r7, #4]
 180 0008 3960     		str	r1, [r7]
 177:Generated_Source\PSoC5/cyfitter_cfg.c **** 	/* For 32-bit little-endian architectures */
 178:Generated_Source\PSoC5/cyfitter_cfg.c **** 	uint32 i, j = 0u;
 181              		.loc 1 178 0
 182 000a 0023     		movs	r3, #0
 183 000c 3B61     		str	r3, [r7, #16]
 179:Generated_Source\PSoC5/cyfitter_cfg.c **** 	for (i = 0u; i < CY_CFG_BASE_ADDR_COUNT; i++)
 184              		.loc 1 179 0
 185 000e 0023     		movs	r3, #0
 186 0010 7B61     		str	r3, [r7, #20]
 187 0012 27E0     		b	.L7
 188              	.L10:
 189              	.LBB2:
 180:Generated_Source\PSoC5/cyfitter_cfg.c **** 	{
 181:Generated_Source\PSoC5/cyfitter_cfg.c **** 		uint32 baseAddr = addr_table[i];
 190              		.loc 1 181 0
 191 0014 7B69     		ldr	r3, [r7, #20]
 192 0016 9B00     		lsls	r3, r3, #2
 193 0018 7A68     		ldr	r2, [r7, #4]
 194 001a 1344     		add	r3, r3, r2
 195 001c 1B68     		ldr	r3, [r3]
 196 001e BB60     		str	r3, [r7, #8]
 182:Generated_Source\PSoC5/cyfitter_cfg.c **** 		uint8 count = (uint8)baseAddr;
 197              		.loc 1 182 0
 198 0020 BB68     		ldr	r3, [r7, #8]
 199 0022 FB73     		strb	r3, [r7, #15]
 183:Generated_Source\PSoC5/cyfitter_cfg.c **** 		baseAddr &= 0xFFFFFF00u;
 200              		.loc 1 183 0
 201 0024 BB68     		ldr	r3, [r7, #8]
 202 0026 23F0FF03 		bic	r3, r3, #255
 203 002a BB60     		str	r3, [r7, #8]
 184:Generated_Source\PSoC5/cyfitter_cfg.c **** 		while (count != 0u)
 204              		.loc 1 184 0
 205 002c 14E0     		b	.L8
 206              	.L9:
 185:Generated_Source\PSoC5/cyfitter_cfg.c **** 		{
 186:Generated_Source\PSoC5/cyfitter_cfg.c **** 			CY_SET_REG8((void *)(baseAddr + data_table[j].offset), data_table[j].value);
 207              		.loc 1 186 0
 208 002e 3B69     		ldr	r3, [r7, #16]
 209 0030 5B00     		lsls	r3, r3, #1
 210 0032 3A68     		ldr	r2, [r7]
 211 0034 1344     		add	r3, r3, r2
 212 0036 1B78     		ldrb	r3, [r3]	@ zero_extendqisi2
 213 0038 1A46     		mov	r2, r3
ARM GAS  C:\Users\oars0\AppData\Local\Temp\cc7aWiR5.s 			page 8


 214 003a BB68     		ldr	r3, [r7, #8]
 215 003c 1344     		add	r3, r3, r2
 216 003e 1946     		mov	r1, r3
 217 0040 3B69     		ldr	r3, [r7, #16]
 218 0042 5B00     		lsls	r3, r3, #1
 219 0044 3A68     		ldr	r2, [r7]
 220 0046 1344     		add	r3, r3, r2
 221 0048 5B78     		ldrb	r3, [r3, #1]	@ zero_extendqisi2
 222 004a 0B70     		strb	r3, [r1]
 187:Generated_Source\PSoC5/cyfitter_cfg.c **** 			j++;
 223              		.loc 1 187 0
 224 004c 3B69     		ldr	r3, [r7, #16]
 225 004e 0133     		adds	r3, r3, #1
 226 0050 3B61     		str	r3, [r7, #16]
 188:Generated_Source\PSoC5/cyfitter_cfg.c **** 			count--;
 227              		.loc 1 188 0
 228 0052 FB7B     		ldrb	r3, [r7, #15]	@ zero_extendqisi2
 229 0054 013B     		subs	r3, r3, #1
 230 0056 FB73     		strb	r3, [r7, #15]
 231              	.L8:
 184:Generated_Source\PSoC5/cyfitter_cfg.c **** 		{
 232              		.loc 1 184 0
 233 0058 FB7B     		ldrb	r3, [r7, #15]	@ zero_extendqisi2
 234 005a 002B     		cmp	r3, #0
 235 005c E7D1     		bne	.L9
 236              	.LBE2:
 179:Generated_Source\PSoC5/cyfitter_cfg.c **** 	{
 237              		.loc 1 179 0 discriminator 2
 238 005e 7B69     		ldr	r3, [r7, #20]
 239 0060 0133     		adds	r3, r3, #1
 240 0062 7B61     		str	r3, [r7, #20]
 241              	.L7:
 179:Generated_Source\PSoC5/cyfitter_cfg.c **** 	{
 242              		.loc 1 179 0 is_stmt 0 discriminator 1
 243 0064 7B69     		ldr	r3, [r7, #20]
 244 0066 242B     		cmp	r3, #36
 245 0068 D4D9     		bls	.L10
 189:Generated_Source\PSoC5/cyfitter_cfg.c **** 		}
 190:Generated_Source\PSoC5/cyfitter_cfg.c **** 	}
 191:Generated_Source\PSoC5/cyfitter_cfg.c **** }
 246              		.loc 1 191 0 is_stmt 1
 247 006a 00BF     		nop
 248 006c 1C37     		adds	r7, r7, #28
 249              		.cfi_def_cfa_offset 4
 250 006e BD46     		mov	sp, r7
 251              		.cfi_def_cfa_register 13
 252              		@ sp needed
 253 0070 80BC     		pop	{r7}
 254              		.cfi_restore 7
 255              		.cfi_def_cfa_offset 0
 256 0072 7047     		bx	lr
 257              		.cfi_endproc
 258              	.LFE4:
 259              		.size	cfg_write_bytes32, .-cfg_write_bytes32
 260              		.section	.text.ClockSetup,"ax",%progbits
 261              		.align	2
 262              		.thumb
ARM GAS  C:\Users\oars0\AppData\Local\Temp\cc7aWiR5.s 			page 9


 263              		.thumb_func
 264              		.type	ClockSetup, %function
 265              	ClockSetup:
 266              	.LFB5:
 192:Generated_Source\PSoC5/cyfitter_cfg.c **** 
 193:Generated_Source\PSoC5/cyfitter_cfg.c **** /*******************************************************************************
 194:Generated_Source\PSoC5/cyfitter_cfg.c **** * Function Name: ClockSetup
 195:Generated_Source\PSoC5/cyfitter_cfg.c **** ********************************************************************************
 196:Generated_Source\PSoC5/cyfitter_cfg.c **** *
 197:Generated_Source\PSoC5/cyfitter_cfg.c **** * Summary:
 198:Generated_Source\PSoC5/cyfitter_cfg.c **** *  Performs the initialization of all of the clocks in the device based on the
 199:Generated_Source\PSoC5/cyfitter_cfg.c **** *  settings in the Clock tab of the DWR.  This includes enabling the requested
 200:Generated_Source\PSoC5/cyfitter_cfg.c **** *  clocks and setting the necessary dividers to produce the desired frequency. 
 201:Generated_Source\PSoC5/cyfitter_cfg.c **** *
 202:Generated_Source\PSoC5/cyfitter_cfg.c **** * Parameters:
 203:Generated_Source\PSoC5/cyfitter_cfg.c **** *  void
 204:Generated_Source\PSoC5/cyfitter_cfg.c **** *
 205:Generated_Source\PSoC5/cyfitter_cfg.c **** * Return:
 206:Generated_Source\PSoC5/cyfitter_cfg.c **** *  void
 207:Generated_Source\PSoC5/cyfitter_cfg.c **** *
 208:Generated_Source\PSoC5/cyfitter_cfg.c **** *******************************************************************************/
 209:Generated_Source\PSoC5/cyfitter_cfg.c **** static void ClockSetup(void);
 210:Generated_Source\PSoC5/cyfitter_cfg.c **** static void ClockSetup(void)
 211:Generated_Source\PSoC5/cyfitter_cfg.c **** {
 267              		.loc 1 211 0
 268              		.cfi_startproc
 269              		@ args = 0, pretend = 0, frame = 8
 270              		@ frame_needed = 1, uses_anonymous_args = 0
 271 0000 80B5     		push	{r7, lr}
 272              		.cfi_def_cfa_offset 8
 273              		.cfi_offset 7, -8
 274              		.cfi_offset 14, -4
 275 0002 82B0     		sub	sp, sp, #8
 276              		.cfi_def_cfa_offset 16
 277 0004 00AF     		add	r7, sp, #0
 278              		.cfi_def_cfa_register 7
 212:Generated_Source\PSoC5/cyfitter_cfg.c **** 	uint32 timeout;
 213:Generated_Source\PSoC5/cyfitter_cfg.c **** 	uint8 pllLock;
 214:Generated_Source\PSoC5/cyfitter_cfg.c **** 
 215:Generated_Source\PSoC5/cyfitter_cfg.c **** 
 216:Generated_Source\PSoC5/cyfitter_cfg.c **** 	/* Configure Digital Clocks based on settings from Clock DWR */
 217:Generated_Source\PSoC5/cyfitter_cfg.c **** 	CY_SET_XTND_REG16((void CYFAR *)(CYREG_CLKDIST_DCFG0_CFG0), 0x0019u);
 279              		.loc 1 217 0
 280 0006 334B     		ldr	r3, .L16
 281 0008 1922     		movs	r2, #25
 282 000a 1A80     		strh	r2, [r3]	@ movhi
 218:Generated_Source\PSoC5/cyfitter_cfg.c **** 	CY_SET_XTND_REG8((void CYFAR *)(CYREG_CLKDIST_DCFG0_CFG0 + 0x2u), 0x1Cu);
 283              		.loc 1 218 0
 284 000c 324B     		ldr	r3, .L16+4
 285 000e 1C22     		movs	r2, #28
 286 0010 1A70     		strb	r2, [r3]
 219:Generated_Source\PSoC5/cyfitter_cfg.c **** 	CY_SET_XTND_REG16((void CYFAR *)(CYREG_CLKDIST_DCFG1_CFG0), 0x0019u);
 287              		.loc 1 219 0
 288 0012 324B     		ldr	r3, .L16+8
 289 0014 1922     		movs	r2, #25
 290 0016 1A80     		strh	r2, [r3]	@ movhi
 220:Generated_Source\PSoC5/cyfitter_cfg.c **** 	CY_SET_XTND_REG8((void CYFAR *)(CYREG_CLKDIST_DCFG1_CFG0 + 0x2u), 0x19u);
ARM GAS  C:\Users\oars0\AppData\Local\Temp\cc7aWiR5.s 			page 10


 291              		.loc 1 220 0
 292 0018 314B     		ldr	r3, .L16+12
 293 001a 1922     		movs	r2, #25
 294 001c 1A70     		strb	r2, [r3]
 221:Generated_Source\PSoC5/cyfitter_cfg.c **** 
 222:Generated_Source\PSoC5/cyfitter_cfg.c **** 	/* Configure ILO based on settings from Clock DWR */
 223:Generated_Source\PSoC5/cyfitter_cfg.c **** 	CY_SET_XTND_REG8((void CYFAR *)(CYREG_SLOWCLK_ILO_CR0), 0x06u);
 295              		.loc 1 223 0
 296 001e 314B     		ldr	r3, .L16+16
 297 0020 0622     		movs	r2, #6
 298 0022 1A70     		strb	r2, [r3]
 224:Generated_Source\PSoC5/cyfitter_cfg.c **** 
 225:Generated_Source\PSoC5/cyfitter_cfg.c **** 	/* Configure IMO based on settings from Clock DWR */
 226:Generated_Source\PSoC5/cyfitter_cfg.c **** 	CY_SET_XTND_REG8((void CYFAR *)(CYREG_FASTCLK_IMO_CR), 0x52u);
 299              		.loc 1 226 0
 300 0024 304B     		ldr	r3, .L16+20
 301 0026 5222     		movs	r2, #82
 302 0028 1A70     		strb	r2, [r3]
 227:Generated_Source\PSoC5/cyfitter_cfg.c **** 	CY_SET_XTND_REG8((void CYFAR *)(CYREG_IMO_TR1), (CY_GET_XTND_REG8((void CYFAR *)CYREG_FLSHID_CUST_
 303              		.loc 1 227 0
 304 002a 304B     		ldr	r3, .L16+24
 305 002c 304A     		ldr	r2, .L16+28
 306 002e 1278     		ldrb	r2, [r2]
 307 0030 D2B2     		uxtb	r2, r2
 308 0032 1A70     		strb	r2, [r3]
 228:Generated_Source\PSoC5/cyfitter_cfg.c **** 
 229:Generated_Source\PSoC5/cyfitter_cfg.c **** 	/* Configure PLL based on settings from Clock DWR */
 230:Generated_Source\PSoC5/cyfitter_cfg.c **** 	CY_SET_XTND_REG16((void CYFAR *)(CYREG_FASTCLK_PLL_P), 0x0710u);
 309              		.loc 1 230 0
 310 0034 2F4B     		ldr	r3, .L16+32
 311 0036 4FF4E262 		mov	r2, #1808
 312 003a 1A80     		strh	r2, [r3]	@ movhi
 231:Generated_Source\PSoC5/cyfitter_cfg.c **** 	CY_SET_XTND_REG16((void CYFAR *)(CYREG_FASTCLK_PLL_CFG0), 0x1251u);
 313              		.loc 1 231 0
 314 003c 2E4B     		ldr	r3, .L16+36
 315 003e 41F25122 		movw	r2, #4689
 316 0042 1A80     		strh	r2, [r3]	@ movhi
 232:Generated_Source\PSoC5/cyfitter_cfg.c **** 	/* Wait up to 250us for the PLL to lock */
 233:Generated_Source\PSoC5/cyfitter_cfg.c **** 	pllLock = 0u;
 317              		.loc 1 233 0
 318 0044 0023     		movs	r3, #0
 319 0046 FB70     		strb	r3, [r7, #3]
 234:Generated_Source\PSoC5/cyfitter_cfg.c **** 	for (timeout = 250u / 10u; (timeout > 0u) && (pllLock != 0x03u); timeout--)
 320              		.loc 1 234 0
 321 0048 1923     		movs	r3, #25
 322 004a 7B60     		str	r3, [r7, #4]
 323 004c 14E0     		b	.L12
 324              	.L14:
 235:Generated_Source\PSoC5/cyfitter_cfg.c **** 	{ 
 236:Generated_Source\PSoC5/cyfitter_cfg.c **** 		pllLock = 0x03u & ((uint8)((uint8)pllLock << 1) | ((CY_GET_XTND_REG8((void CYFAR *)CYREG_FASTCLK_
 325              		.loc 1 236 0 discriminator 4
 326 004e FB78     		ldrb	r3, [r7, #3]
 327 0050 5B00     		lsls	r3, r3, #1
 328 0052 DAB2     		uxtb	r2, r3
 329 0054 294B     		ldr	r3, .L16+40
 330 0056 1B78     		ldrb	r3, [r3]
 331 0058 DBB2     		uxtb	r3, r3
ARM GAS  C:\Users\oars0\AppData\Local\Temp\cc7aWiR5.s 			page 11


 332 005a 03F00103 		and	r3, r3, #1
 333 005e DBB2     		uxtb	r3, r3
 334 0060 1343     		orrs	r3, r3, r2
 335 0062 DBB2     		uxtb	r3, r3
 336 0064 03F00303 		and	r3, r3, #3
 337 0068 FB70     		strb	r3, [r7, #3]
 237:Generated_Source\PSoC5/cyfitter_cfg.c **** 		CyDelayCycles(10u * 48u); /* Delay 10us based on 48MHz clock */
 338              		.loc 1 237 0 discriminator 4
 339 006a 4FF4F070 		mov	r0, #480
 340 006e FFF7FEFF 		bl	CyDelayCycles
 234:Generated_Source\PSoC5/cyfitter_cfg.c **** 	for (timeout = 250u / 10u; (timeout > 0u) && (pllLock != 0x03u); timeout--)
 341              		.loc 1 234 0 discriminator 4
 342 0072 7B68     		ldr	r3, [r7, #4]
 343 0074 013B     		subs	r3, r3, #1
 344 0076 7B60     		str	r3, [r7, #4]
 345              	.L12:
 234:Generated_Source\PSoC5/cyfitter_cfg.c **** 	for (timeout = 250u / 10u; (timeout > 0u) && (pllLock != 0x03u); timeout--)
 346              		.loc 1 234 0 is_stmt 0 discriminator 1
 347 0078 7B68     		ldr	r3, [r7, #4]
 348 007a 002B     		cmp	r3, #0
 349 007c 02D0     		beq	.L13
 234:Generated_Source\PSoC5/cyfitter_cfg.c **** 	for (timeout = 250u / 10u; (timeout > 0u) && (pllLock != 0x03u); timeout--)
 350              		.loc 1 234 0 discriminator 3
 351 007e FB78     		ldrb	r3, [r7, #3]	@ zero_extendqisi2
 352 0080 032B     		cmp	r3, #3
 353 0082 E4D1     		bne	.L14
 354              	.L13:
 238:Generated_Source\PSoC5/cyfitter_cfg.c **** 	}
 239:Generated_Source\PSoC5/cyfitter_cfg.c **** 	/* If we ran out of time the PLL didn't lock so go to the error function */
 240:Generated_Source\PSoC5/cyfitter_cfg.c **** 	if (timeout == 0u)
 355              		.loc 1 240 0 is_stmt 1
 356 0084 7B68     		ldr	r3, [r7, #4]
 357 0086 002B     		cmp	r3, #0
 358 0088 02D1     		bne	.L15
 241:Generated_Source\PSoC5/cyfitter_cfg.c **** 	{
 242:Generated_Source\PSoC5/cyfitter_cfg.c **** 		CyClockStartupError(CYCLOCKSTART_PLL_ERROR);
 359              		.loc 1 242 0
 360 008a 0320     		movs	r0, #3
 361 008c FFF7FEFF 		bl	CyClockStartupError
 362              	.L15:
 243:Generated_Source\PSoC5/cyfitter_cfg.c **** 	}
 244:Generated_Source\PSoC5/cyfitter_cfg.c **** 
 245:Generated_Source\PSoC5/cyfitter_cfg.c **** 	/* Configure Bus/Master Clock based on settings from Clock DWR */
 246:Generated_Source\PSoC5/cyfitter_cfg.c **** 	CY_SET_XTND_REG16((void CYFAR *)(CYREG_CLKDIST_MSTR0), 0x0100u);
 363              		.loc 1 246 0
 364 0090 1B4B     		ldr	r3, .L16+44
 365 0092 4FF48072 		mov	r2, #256
 366 0096 1A80     		strh	r2, [r3]	@ movhi
 247:Generated_Source\PSoC5/cyfitter_cfg.c **** 	CY_SET_XTND_REG8((void CYFAR *)(CYREG_CLKDIST_MSTR0), 0x07u);
 367              		.loc 1 247 0
 368 0098 194B     		ldr	r3, .L16+44
 369 009a 0722     		movs	r2, #7
 370 009c 1A70     		strb	r2, [r3]
 248:Generated_Source\PSoC5/cyfitter_cfg.c **** 	CY_SET_XTND_REG8((void CYFAR *)(CYREG_CLKDIST_BCFG0), 0x00u);
 371              		.loc 1 248 0
 372 009e 194B     		ldr	r3, .L16+48
 373 00a0 0022     		movs	r2, #0
ARM GAS  C:\Users\oars0\AppData\Local\Temp\cc7aWiR5.s 			page 12


 374 00a2 1A70     		strb	r2, [r3]
 249:Generated_Source\PSoC5/cyfitter_cfg.c **** 	CY_SET_XTND_REG8((void CYFAR *)(CYREG_CLKDIST_BCFG2), 0x48u);
 375              		.loc 1 249 0
 376 00a4 184B     		ldr	r3, .L16+52
 377 00a6 4822     		movs	r2, #72
 378 00a8 1A70     		strb	r2, [r3]
 250:Generated_Source\PSoC5/cyfitter_cfg.c **** 	CY_SET_XTND_REG8((void CYFAR *)(CYREG_CLKDIST_MSTR0), 0x00u);
 379              		.loc 1 250 0
 380 00aa 154B     		ldr	r3, .L16+44
 381 00ac 0022     		movs	r2, #0
 382 00ae 1A70     		strb	r2, [r3]
 251:Generated_Source\PSoC5/cyfitter_cfg.c **** 
 252:Generated_Source\PSoC5/cyfitter_cfg.c **** 	/* Configure USB Clock based on settings from Clock DWR */
 253:Generated_Source\PSoC5/cyfitter_cfg.c **** 	CY_SET_XTND_REG8((void CYFAR *)(CYREG_CLKDIST_UCFG), 0x00u);
 383              		.loc 1 253 0
 384 00b0 164B     		ldr	r3, .L16+56
 385 00b2 0022     		movs	r2, #0
 386 00b4 1A70     		strb	r2, [r3]
 254:Generated_Source\PSoC5/cyfitter_cfg.c **** 	CY_SET_XTND_REG8((void CYFAR *)(CYREG_CLKDIST_LD), 0x02u);
 387              		.loc 1 254 0
 388 00b6 164B     		ldr	r3, .L16+60
 389 00b8 0222     		movs	r2, #2
 390 00ba 1A70     		strb	r2, [r3]
 255:Generated_Source\PSoC5/cyfitter_cfg.c **** 
 256:Generated_Source\PSoC5/cyfitter_cfg.c **** 	CY_SET_XTND_REG8((void CYFAR *)(CYREG_PM_ACT_CFG2), ((CY_GET_XTND_REG8((void CYFAR *)CYREG_PM_ACT_
 391              		.loc 1 256 0
 392 00bc 154A     		ldr	r2, .L16+64
 393 00be 154B     		ldr	r3, .L16+64
 394 00c0 1B78     		ldrb	r3, [r3]
 395 00c2 DBB2     		uxtb	r3, r3
 396 00c4 43F00303 		orr	r3, r3, #3
 397 00c8 DBB2     		uxtb	r3, r3
 398 00ca 1370     		strb	r3, [r2]
 257:Generated_Source\PSoC5/cyfitter_cfg.c **** }
 399              		.loc 1 257 0
 400 00cc 00BF     		nop
 401 00ce 0837     		adds	r7, r7, #8
 402              		.cfi_def_cfa_offset 8
 403 00d0 BD46     		mov	sp, r7
 404              		.cfi_def_cfa_register 13
 405              		@ sp needed
 406 00d2 80BD     		pop	{r7, pc}
 407              	.L17:
 408              		.align	2
 409              	.L16:
 410 00d4 80400040 		.word	1073758336
 411 00d8 82400040 		.word	1073758338
 412 00dc 84400040 		.word	1073758340
 413 00e0 86400040 		.word	1073758342
 414 00e4 00430040 		.word	1073758976
 415 00e8 00420040 		.word	1073758720
 416 00ec A1460040 		.word	1073759905
 417 00f0 0F010049 		.word	1224737039
 418 00f4 22420040 		.word	1073758754
 419 00f8 20420040 		.word	1073758752
 420 00fc 25420040 		.word	1073758757
 421 0100 04400040 		.word	1073758212
ARM GAS  C:\Users\oars0\AppData\Local\Temp\cc7aWiR5.s 			page 13


 422 0104 06400040 		.word	1073758214
 423 0108 08400040 		.word	1073758216
 424 010c 09400040 		.word	1073758217
 425 0110 01400040 		.word	1073758209
 426 0114 A2430040 		.word	1073759138
 427              		.cfi_endproc
 428              	.LFE5:
 429              		.size	ClockSetup, .-ClockSetup
 430              		.section	.text.AnalogSetDefault,"ax",%progbits
 431              		.align	2
 432              		.thumb
 433              		.thumb_func
 434              		.type	AnalogSetDefault, %function
 435              	AnalogSetDefault:
 436              	.LFB6:
 258:Generated_Source\PSoC5/cyfitter_cfg.c **** 
 259:Generated_Source\PSoC5/cyfitter_cfg.c **** 
 260:Generated_Source\PSoC5/cyfitter_cfg.c **** /* Analog API Functions */
 261:Generated_Source\PSoC5/cyfitter_cfg.c **** 
 262:Generated_Source\PSoC5/cyfitter_cfg.c **** 
 263:Generated_Source\PSoC5/cyfitter_cfg.c **** /*******************************************************************************
 264:Generated_Source\PSoC5/cyfitter_cfg.c **** * Function Name: AnalogSetDefault
 265:Generated_Source\PSoC5/cyfitter_cfg.c **** ********************************************************************************
 266:Generated_Source\PSoC5/cyfitter_cfg.c **** *
 267:Generated_Source\PSoC5/cyfitter_cfg.c **** * Summary:
 268:Generated_Source\PSoC5/cyfitter_cfg.c **** *  Sets up the analog portions of the chip to default values based on chip
 269:Generated_Source\PSoC5/cyfitter_cfg.c **** *  configuration options from the project.
 270:Generated_Source\PSoC5/cyfitter_cfg.c **** *
 271:Generated_Source\PSoC5/cyfitter_cfg.c **** * Parameters:
 272:Generated_Source\PSoC5/cyfitter_cfg.c **** *  void
 273:Generated_Source\PSoC5/cyfitter_cfg.c **** *
 274:Generated_Source\PSoC5/cyfitter_cfg.c **** * Return:
 275:Generated_Source\PSoC5/cyfitter_cfg.c **** *  void
 276:Generated_Source\PSoC5/cyfitter_cfg.c **** *
 277:Generated_Source\PSoC5/cyfitter_cfg.c **** *******************************************************************************/
 278:Generated_Source\PSoC5/cyfitter_cfg.c **** static void AnalogSetDefault(void);
 279:Generated_Source\PSoC5/cyfitter_cfg.c **** static void AnalogSetDefault(void)
 280:Generated_Source\PSoC5/cyfitter_cfg.c **** {
 437              		.loc 1 280 0
 438              		.cfi_startproc
 439              		@ args = 0, pretend = 0, frame = 8
 440              		@ frame_needed = 1, uses_anonymous_args = 0
 441 0000 80B5     		push	{r7, lr}
 442              		.cfi_def_cfa_offset 8
 443              		.cfi_offset 7, -8
 444              		.cfi_offset 14, -4
 445 0002 82B0     		sub	sp, sp, #8
 446              		.cfi_def_cfa_offset 16
 447 0004 00AF     		add	r7, sp, #0
 448              		.cfi_def_cfa_register 7
 281:Generated_Source\PSoC5/cyfitter_cfg.c **** 	uint8 bg_xover_inl_trim = CY_GET_XTND_REG8((void CYFAR *)(CYREG_FLSHID_MFG_CFG_BG_XOVER_INL_TRIM +
 449              		.loc 1 281 0
 450 0006 1F4B     		ldr	r3, .L19
 451 0008 1B78     		ldrb	r3, [r3]
 452 000a FB71     		strb	r3, [r7, #7]
 282:Generated_Source\PSoC5/cyfitter_cfg.c **** 	uint8 cr4 = CY_GET_XTND_REG8((void CYFAR *)(CYREG_RESET_CR4));
 453              		.loc 1 282 0
ARM GAS  C:\Users\oars0\AppData\Local\Temp\cc7aWiR5.s 			page 14


 454 000c 1E4B     		ldr	r3, .L19+4
 455 000e 1B78     		ldrb	r3, [r3]
 456 0010 BB71     		strb	r3, [r7, #6]
 283:Generated_Source\PSoC5/cyfitter_cfg.c **** 	uint8 cr5 = CY_GET_XTND_REG8((void CYFAR *)(CYREG_RESET_CR5));
 457              		.loc 1 283 0
 458 0012 1E4B     		ldr	r3, .L19+8
 459 0014 1B78     		ldrb	r3, [r3]
 460 0016 7B71     		strb	r3, [r7, #5]
 284:Generated_Source\PSoC5/cyfitter_cfg.c **** 	CY_SET_XTND_REG8((void CYFAR *)(CYREG_BG_DFT0), (bg_xover_inl_trim & 0x07u));
 461              		.loc 1 284 0
 462 0018 1D4A     		ldr	r2, .L19+12
 463 001a FB79     		ldrb	r3, [r7, #7]
 464 001c 03F00703 		and	r3, r3, #7
 465 0020 DBB2     		uxtb	r3, r3
 466 0022 1370     		strb	r3, [r2]
 285:Generated_Source\PSoC5/cyfitter_cfg.c **** 	CY_SET_XTND_REG8((void CYFAR *)(CYREG_BG_DFT1), ((bg_xover_inl_trim >> 4) & 0x0Fu));
 467              		.loc 1 285 0
 468 0024 1B4A     		ldr	r2, .L19+16
 469 0026 FB79     		ldrb	r3, [r7, #7]	@ zero_extendqisi2
 470 0028 1B09     		lsrs	r3, r3, #4
 471 002a DBB2     		uxtb	r3, r3
 472 002c 1370     		strb	r3, [r2]
 286:Generated_Source\PSoC5/cyfitter_cfg.c **** 	/* Disable PRES while setting up SAR voltage reference */
 287:Generated_Source\PSoC5/cyfitter_cfg.c **** 	CY_SET_XTND_REG8((void CYFAR *)(CYREG_RESET_CR4), (cr4 | 0x03u));
 473              		.loc 1 287 0
 474 002e 164A     		ldr	r2, .L19+4
 475 0030 BB79     		ldrb	r3, [r7, #6]
 476 0032 43F00303 		orr	r3, r3, #3
 477 0036 DBB2     		uxtb	r3, r3
 478 0038 1370     		strb	r3, [r2]
 288:Generated_Source\PSoC5/cyfitter_cfg.c **** 	CY_SET_XTND_REG8((void CYFAR *)(CYREG_RESET_CR5), (cr5 | 0x03u));
 479              		.loc 1 288 0
 480 003a 144A     		ldr	r2, .L19+8
 481 003c 7B79     		ldrb	r3, [r7, #5]
 482 003e 43F00303 		orr	r3, r3, #3
 483 0042 DBB2     		uxtb	r3, r3
 484 0044 1370     		strb	r3, [r2]
 289:Generated_Source\PSoC5/cyfitter_cfg.c **** 	CY_SET_XTND_REG8((void CYFAR *)CYREG_PRT3_AG, 0x03u);
 485              		.loc 1 289 0
 486 0046 144B     		ldr	r3, .L19+20
 487 0048 0322     		movs	r2, #3
 488 004a 1A70     		strb	r2, [r3]
 290:Generated_Source\PSoC5/cyfitter_cfg.c **** 	CY_SET_XTND_REG8((void CYFAR *)CYREG_SAR1_CSR1, 0x40u);
 489              		.loc 1 290 0
 490 004c 134B     		ldr	r3, .L19+24
 491 004e 4022     		movs	r2, #64
 492 0050 1A70     		strb	r2, [r3]
 291:Generated_Source\PSoC5/cyfitter_cfg.c **** 	CY_SET_XTND_REG8((void CYFAR *)CYREG_SAR1_CSR3, 0x40u);
 493              		.loc 1 291 0
 494 0052 134B     		ldr	r3, .L19+28
 495 0054 4022     		movs	r2, #64
 496 0056 1A70     		strb	r2, [r3]
 292:Generated_Source\PSoC5/cyfitter_cfg.c **** 	CY_SET_XTND_REG8((void CYFAR *)CYREG_SAR1_SW0, 0x30u);
 497              		.loc 1 292 0
 498 0058 124B     		ldr	r3, .L19+32
 499 005a 3022     		movs	r2, #48
 500 005c 1A70     		strb	r2, [r3]
ARM GAS  C:\Users\oars0\AppData\Local\Temp\cc7aWiR5.s 			page 15


 293:Generated_Source\PSoC5/cyfitter_cfg.c **** 	CY_SET_XTND_REG8((void CYFAR *)CYREG_SAR1_SW3, 0x20u);
 501              		.loc 1 293 0
 502 005e 124B     		ldr	r3, .L19+36
 503 0060 2022     		movs	r2, #32
 504 0062 1A70     		strb	r2, [r3]
 294:Generated_Source\PSoC5/cyfitter_cfg.c **** 	CyDelayUs(10u); /* Allow vref to settle before re-enabling PRES */
 505              		.loc 1 294 0
 506 0064 0A20     		movs	r0, #10
 507 0066 FFF7FEFF 		bl	CyDelayUs
 295:Generated_Source\PSoC5/cyfitter_cfg.c **** 	CY_SET_XTND_REG8((void CYFAR *)(CYREG_RESET_CR5), (cr5));
 508              		.loc 1 295 0
 509 006a 084A     		ldr	r2, .L19+8
 510 006c 7B79     		ldrb	r3, [r7, #5]
 511 006e 1370     		strb	r3, [r2]
 296:Generated_Source\PSoC5/cyfitter_cfg.c **** 	CY_SET_XTND_REG8((void CYFAR *)(CYREG_RESET_CR4), (cr4));
 512              		.loc 1 296 0
 513 0070 054A     		ldr	r2, .L19+4
 514 0072 BB79     		ldrb	r3, [r7, #6]
 515 0074 1370     		strb	r3, [r2]
 297:Generated_Source\PSoC5/cyfitter_cfg.c **** 	CY_SET_XTND_REG8((void CYFAR *)CYREG_PUMP_CR0, 0x44u);
 516              		.loc 1 297 0
 517 0076 0D4B     		ldr	r3, .L19+40
 518 0078 4422     		movs	r2, #68
 519 007a 1A70     		strb	r2, [r3]
 298:Generated_Source\PSoC5/cyfitter_cfg.c **** }
 520              		.loc 1 298 0
 521 007c 00BF     		nop
 522 007e 0837     		adds	r7, r7, #8
 523              		.cfi_def_cfa_offset 8
 524 0080 BD46     		mov	sp, r7
 525              		.cfi_def_cfa_register 13
 526              		@ sp needed
 527 0082 80BD     		pop	{r7, pc}
 528              	.L20:
 529              		.align	2
 530              	.L19:
 531 0084 CF010049 		.word	1224737231
 532 0088 F8460040 		.word	1073759992
 533 008c F9460040 		.word	1073759993
 534 0090 6E580040 		.word	1073764462
 535 0094 6F580040 		.word	1073764463
 536 0098 3D510040 		.word	1073762621
 537 009c 09590040 		.word	1073764617
 538 00a0 0B590040 		.word	1073764619
 539 00a4 285B0040 		.word	1073765160
 540 00a8 2B5B0040 		.word	1073765163
 541 00ac 76580040 		.word	1073764470
 542              		.cfi_endproc
 543              	.LFE6:
 544              		.size	AnalogSetDefault, .-AnalogSetDefault
 545              		.section	.text.SetAnalogRoutingPumps,"ax",%progbits
 546              		.align	2
 547              		.global	SetAnalogRoutingPumps
 548              		.thumb
 549              		.thumb_func
 550              		.type	SetAnalogRoutingPumps, %function
 551              	SetAnalogRoutingPumps:
ARM GAS  C:\Users\oars0\AppData\Local\Temp\cc7aWiR5.s 			page 16


 552              	.LFB7:
 299:Generated_Source\PSoC5/cyfitter_cfg.c **** 
 300:Generated_Source\PSoC5/cyfitter_cfg.c **** 
 301:Generated_Source\PSoC5/cyfitter_cfg.c **** /*******************************************************************************
 302:Generated_Source\PSoC5/cyfitter_cfg.c **** * Function Name: SetAnalogRoutingPumps
 303:Generated_Source\PSoC5/cyfitter_cfg.c **** ********************************************************************************
 304:Generated_Source\PSoC5/cyfitter_cfg.c **** *
 305:Generated_Source\PSoC5/cyfitter_cfg.c **** * Summary:
 306:Generated_Source\PSoC5/cyfitter_cfg.c **** * Enables or disables the analog pumps feeding analog routing switches.
 307:Generated_Source\PSoC5/cyfitter_cfg.c **** * Intended to be called at startup, based on the Vdda system configuration;
 308:Generated_Source\PSoC5/cyfitter_cfg.c **** * may be called during operation when the user informs us that the Vdda voltage
 309:Generated_Source\PSoC5/cyfitter_cfg.c **** * crossed the pump threshold.
 310:Generated_Source\PSoC5/cyfitter_cfg.c **** *
 311:Generated_Source\PSoC5/cyfitter_cfg.c **** * Parameters:
 312:Generated_Source\PSoC5/cyfitter_cfg.c **** *  enabled - 1 to enable the pumps, 0 to disable the pumps
 313:Generated_Source\PSoC5/cyfitter_cfg.c **** *
 314:Generated_Source\PSoC5/cyfitter_cfg.c **** * Return:
 315:Generated_Source\PSoC5/cyfitter_cfg.c **** *  void
 316:Generated_Source\PSoC5/cyfitter_cfg.c **** *
 317:Generated_Source\PSoC5/cyfitter_cfg.c **** *******************************************************************************/
 318:Generated_Source\PSoC5/cyfitter_cfg.c **** void SetAnalogRoutingPumps(uint8 enabled)
 319:Generated_Source\PSoC5/cyfitter_cfg.c **** {
 553              		.loc 1 319 0
 554              		.cfi_startproc
 555              		@ args = 0, pretend = 0, frame = 16
 556              		@ frame_needed = 1, uses_anonymous_args = 0
 557              		@ link register save eliminated.
 558 0000 80B4     		push	{r7}
 559              		.cfi_def_cfa_offset 4
 560              		.cfi_offset 7, -4
 561 0002 85B0     		sub	sp, sp, #20
 562              		.cfi_def_cfa_offset 24
 563 0004 00AF     		add	r7, sp, #0
 564              		.cfi_def_cfa_register 7
 565 0006 0346     		mov	r3, r0
 566 0008 FB71     		strb	r3, [r7, #7]
 320:Generated_Source\PSoC5/cyfitter_cfg.c **** 	uint8 regValue = CY_GET_XTND_REG8((void CYFAR *)CYREG_PUMP_CR0);
 567              		.loc 1 320 0
 568 000a 0B4B     		ldr	r3, .L24
 569 000c 1B78     		ldrb	r3, [r3]
 570 000e FB73     		strb	r3, [r7, #15]
 321:Generated_Source\PSoC5/cyfitter_cfg.c **** 	if (enabled != 0u)
 571              		.loc 1 321 0
 572 0010 FB79     		ldrb	r3, [r7, #7]	@ zero_extendqisi2
 573 0012 002B     		cmp	r3, #0
 574 0014 04D0     		beq	.L22
 322:Generated_Source\PSoC5/cyfitter_cfg.c **** 	{
 323:Generated_Source\PSoC5/cyfitter_cfg.c **** 		regValue |= 0x22u;
 575              		.loc 1 323 0
 576 0016 FB7B     		ldrb	r3, [r7, #15]
 577 0018 43F02203 		orr	r3, r3, #34
 578 001c FB73     		strb	r3, [r7, #15]
 579 001e 03E0     		b	.L23
 580              	.L22:
 324:Generated_Source\PSoC5/cyfitter_cfg.c **** 	}
 325:Generated_Source\PSoC5/cyfitter_cfg.c **** 	else
 326:Generated_Source\PSoC5/cyfitter_cfg.c **** 	{
ARM GAS  C:\Users\oars0\AppData\Local\Temp\cc7aWiR5.s 			page 17


 327:Generated_Source\PSoC5/cyfitter_cfg.c **** 		regValue &= (uint8)~0x22u;
 581              		.loc 1 327 0
 582 0020 FB7B     		ldrb	r3, [r7, #15]
 583 0022 23F02203 		bic	r3, r3, #34
 584 0026 FB73     		strb	r3, [r7, #15]
 585              	.L23:
 328:Generated_Source\PSoC5/cyfitter_cfg.c **** 	}
 329:Generated_Source\PSoC5/cyfitter_cfg.c **** 	CY_SET_XTND_REG8((void CYFAR *)CYREG_PUMP_CR0, regValue);
 586              		.loc 1 329 0
 587 0028 034A     		ldr	r2, .L24
 588 002a FB7B     		ldrb	r3, [r7, #15]
 589 002c 1370     		strb	r3, [r2]
 330:Generated_Source\PSoC5/cyfitter_cfg.c **** }
 590              		.loc 1 330 0
 591 002e 00BF     		nop
 592 0030 1437     		adds	r7, r7, #20
 593              		.cfi_def_cfa_offset 4
 594 0032 BD46     		mov	sp, r7
 595              		.cfi_def_cfa_register 13
 596              		@ sp needed
 597 0034 80BC     		pop	{r7}
 598              		.cfi_restore 7
 599              		.cfi_def_cfa_offset 0
 600 0036 7047     		bx	lr
 601              	.L25:
 602              		.align	2
 603              	.L24:
 604 0038 76580040 		.word	1073764470
 605              		.cfi_endproc
 606              	.LFE7:
 607              		.size	SetAnalogRoutingPumps, .-SetAnalogRoutingPumps
 608              		.section	.text.cyfitter_cfg,"ax",%progbits
 609              		.align	2
 610              		.global	cyfitter_cfg
 611              		.thumb
 612              		.thumb_func
 613              		.type	cyfitter_cfg, %function
 614              	cyfitter_cfg:
 615              	.LFB8:
 331:Generated_Source\PSoC5/cyfitter_cfg.c **** 
 332:Generated_Source\PSoC5/cyfitter_cfg.c **** 
 333:Generated_Source\PSoC5/cyfitter_cfg.c **** #define CY_AMUX_UNUSED CYREG_BOOST_SR
 334:Generated_Source\PSoC5/cyfitter_cfg.c **** 
 335:Generated_Source\PSoC5/cyfitter_cfg.c **** 
 336:Generated_Source\PSoC5/cyfitter_cfg.c **** /*******************************************************************************
 337:Generated_Source\PSoC5/cyfitter_cfg.c **** * Function Name: cyfitter_cfg
 338:Generated_Source\PSoC5/cyfitter_cfg.c **** ********************************************************************************
 339:Generated_Source\PSoC5/cyfitter_cfg.c **** * Summary:
 340:Generated_Source\PSoC5/cyfitter_cfg.c **** *  This function is called by the start-up code for the selected device. It
 341:Generated_Source\PSoC5/cyfitter_cfg.c **** *  performs all of the necessary device configuration based on the design
 342:Generated_Source\PSoC5/cyfitter_cfg.c **** *  settings.  This includes settings from the Design Wide Resources (DWR) such
 343:Generated_Source\PSoC5/cyfitter_cfg.c **** *  as Clocks and Pins as well as any component configuration that is necessary.
 344:Generated_Source\PSoC5/cyfitter_cfg.c **** *
 345:Generated_Source\PSoC5/cyfitter_cfg.c **** * Parameters:
 346:Generated_Source\PSoC5/cyfitter_cfg.c **** *   void
 347:Generated_Source\PSoC5/cyfitter_cfg.c **** *
 348:Generated_Source\PSoC5/cyfitter_cfg.c **** * Return:
ARM GAS  C:\Users\oars0\AppData\Local\Temp\cc7aWiR5.s 			page 18


 349:Generated_Source\PSoC5/cyfitter_cfg.c **** *   void
 350:Generated_Source\PSoC5/cyfitter_cfg.c **** *
 351:Generated_Source\PSoC5/cyfitter_cfg.c **** *******************************************************************************/
 352:Generated_Source\PSoC5/cyfitter_cfg.c **** 
 353:Generated_Source\PSoC5/cyfitter_cfg.c **** void cyfitter_cfg(void)
 354:Generated_Source\PSoC5/cyfitter_cfg.c **** {
 616              		.loc 1 354 0
 617              		.cfi_startproc
 618              		@ args = 0, pretend = 0, frame = 8
 619              		@ frame_needed = 1, uses_anonymous_args = 0
 620 0000 80B5     		push	{r7, lr}
 621              		.cfi_def_cfa_offset 8
 622              		.cfi_offset 7, -8
 623              		.cfi_offset 14, -4
 624 0002 82B0     		sub	sp, sp, #8
 625              		.cfi_def_cfa_offset 16
 626 0004 00AF     		add	r7, sp, #0
 627              		.cfi_def_cfa_register 7
 355:Generated_Source\PSoC5/cyfitter_cfg.c **** 	/* IOPINS0_0 Address: CYREG_PRT0_DM0 Size (bytes): 8 */
 356:Generated_Source\PSoC5/cyfitter_cfg.c **** 	static const uint8 CYCODE BS_IOPINS0_0_VAL[] = {
 357:Generated_Source\PSoC5/cyfitter_cfg.c **** 		0x00u, 0x00u, 0x00u, 0x00u, 0x00u, 0x00u, 0x04u, 0x00u};
 358:Generated_Source\PSoC5/cyfitter_cfg.c **** 
 359:Generated_Source\PSoC5/cyfitter_cfg.c **** 	/* IOPINS0_7 Address: CYREG_PRT12_DR Size (bytes): 10 */
 360:Generated_Source\PSoC5/cyfitter_cfg.c **** 	static const uint8 CYCODE BS_IOPINS0_7_VAL[] = {
 361:Generated_Source\PSoC5/cyfitter_cfg.c **** 		0x83u, 0x00u, 0x40u, 0x80u, 0x83u, 0x00u, 0x83u, 0x00u, 0x00u, 0x00u};
 362:Generated_Source\PSoC5/cyfitter_cfg.c **** 
 363:Generated_Source\PSoC5/cyfitter_cfg.c **** 	/* IOPINS0_8 Address: CYREG_PRT15_DR Size (bytes): 10 */
 364:Generated_Source\PSoC5/cyfitter_cfg.c **** 	static const uint8 CYCODE BS_IOPINS0_8_VAL[] = {
 365:Generated_Source\PSoC5/cyfitter_cfg.c **** 		0x40u, 0x00u, 0x00u, 0x00u, 0x00u, 0x00u, 0x00u, 0x00u, 0xC0u, 0x00u};
 366:Generated_Source\PSoC5/cyfitter_cfg.c **** 
 367:Generated_Source\PSoC5/cyfitter_cfg.c **** 	/* IOPINS0_1 Address: CYREG_PRT1_DM0 Size (bytes): 8 */
 368:Generated_Source\PSoC5/cyfitter_cfg.c **** 	static const uint8 CYCODE BS_IOPINS0_1_VAL[] = {
 369:Generated_Source\PSoC5/cyfitter_cfg.c **** 		0x00u, 0x0Bu, 0x0Bu, 0x00u, 0x00u, 0x00u, 0x00u, 0x00u};
 370:Generated_Source\PSoC5/cyfitter_cfg.c **** 
 371:Generated_Source\PSoC5/cyfitter_cfg.c **** 	/* IOPINS0_3 Address: CYREG_PRT3_DR Size (bytes): 10 */
 372:Generated_Source\PSoC5/cyfitter_cfg.c **** 	static const uint8 CYCODE BS_IOPINS0_3_VAL[] = {
 373:Generated_Source\PSoC5/cyfitter_cfg.c **** 		0x04u, 0x00u, 0x00u, 0x04u, 0x00u, 0x00u, 0x00u, 0x03u, 0x03u, 0x00u};
 374:Generated_Source\PSoC5/cyfitter_cfg.c **** 
 375:Generated_Source\PSoC5/cyfitter_cfg.c **** 	/* PHUB_CFGMEM1 Address: CYREG_PHUB_CFGMEM1_CFG0 Size (bytes): 4 */
 376:Generated_Source\PSoC5/cyfitter_cfg.c **** 	static const uint8 CYCODE BS_PHUB_CFGMEM1_VAL[] = {
 377:Generated_Source\PSoC5/cyfitter_cfg.c **** 		0x00u, 0x01u, 0x00u, 0x00u};
 378:Generated_Source\PSoC5/cyfitter_cfg.c **** 
 379:Generated_Source\PSoC5/cyfitter_cfg.c **** #ifdef CYGlobalIntDisable
 380:Generated_Source\PSoC5/cyfitter_cfg.c **** 	/* Disable interrupts by default. Let user enable if/when they want. */
 381:Generated_Source\PSoC5/cyfitter_cfg.c **** 	CYGlobalIntDisable
 628              		.loc 1 381 0
 629              		.syntax unified
 630              	@ 381 "Generated_Source\PSoC5\cyfitter_cfg.c" 1
 631 0006 72B6     		CPSID   i
 632              	@ 0 "" 2
 382:Generated_Source\PSoC5/cyfitter_cfg.c **** #endif
 383:Generated_Source\PSoC5/cyfitter_cfg.c **** 
 384:Generated_Source\PSoC5/cyfitter_cfg.c **** 	/* Enable/Disable Debug functionality based on settings from System DWR */
 385:Generated_Source\PSoC5/cyfitter_cfg.c **** 	CY_SET_XTND_REG8((void CYFAR *)CYREG_MLOGIC_DEBUG, (CY_GET_XTND_REG8((void CYFAR *)CYREG_MLOGIC_DE
 633              		.loc 1 385 0
 634              		.thumb
 635              		.syntax unified
ARM GAS  C:\Users\oars0\AppData\Local\Temp\cc7aWiR5.s 			page 19


 636 0008 414A     		ldr	r2, .L29
 637 000a 414B     		ldr	r3, .L29
 638 000c 1B78     		ldrb	r3, [r3]
 639 000e DBB2     		uxtb	r3, r3
 640 0010 43F00403 		orr	r3, r3, #4
 641 0014 DBB2     		uxtb	r3, r3
 642 0016 1370     		strb	r3, [r2]
 643              	.LBB3:
 386:Generated_Source\PSoC5/cyfitter_cfg.c **** 
 387:Generated_Source\PSoC5/cyfitter_cfg.c **** 	{
 388:Generated_Source\PSoC5/cyfitter_cfg.c **** 		static const uint32 CYCODE cy_cfg_addr_table[] = {
 389:Generated_Source\PSoC5/cyfitter_cfg.c **** 			0x40004501u, /* Base address: 0x40004500 Count: 1 */
 390:Generated_Source\PSoC5/cyfitter_cfg.c **** 			0x40005205u, /* Base address: 0x40005200 Count: 5 */
 391:Generated_Source\PSoC5/cyfitter_cfg.c **** 			0x40005B01u, /* Base address: 0x40005B00 Count: 1 */
 392:Generated_Source\PSoC5/cyfitter_cfg.c **** 			0x40006403u, /* Base address: 0x40006400 Count: 3 */
 393:Generated_Source\PSoC5/cyfitter_cfg.c **** 			0x40006501u, /* Base address: 0x40006500 Count: 1 */
 394:Generated_Source\PSoC5/cyfitter_cfg.c **** 			0x40010052u, /* Base address: 0x40010000 Count: 82 */
 395:Generated_Source\PSoC5/cyfitter_cfg.c **** 			0x40010136u, /* Base address: 0x40010100 Count: 54 */
 396:Generated_Source\PSoC5/cyfitter_cfg.c **** 			0x4001023Cu, /* Base address: 0x40010200 Count: 60 */
 397:Generated_Source\PSoC5/cyfitter_cfg.c **** 			0x4001033Du, /* Base address: 0x40010300 Count: 61 */
 398:Generated_Source\PSoC5/cyfitter_cfg.c **** 			0x40010442u, /* Base address: 0x40010400 Count: 66 */
 399:Generated_Source\PSoC5/cyfitter_cfg.c **** 			0x40010541u, /* Base address: 0x40010500 Count: 65 */
 400:Generated_Source\PSoC5/cyfitter_cfg.c **** 			0x4001063Bu, /* Base address: 0x40010600 Count: 59 */
 401:Generated_Source\PSoC5/cyfitter_cfg.c **** 			0x40010743u, /* Base address: 0x40010700 Count: 67 */
 402:Generated_Source\PSoC5/cyfitter_cfg.c **** 			0x40010808u, /* Base address: 0x40010800 Count: 8 */
 403:Generated_Source\PSoC5/cyfitter_cfg.c **** 			0x4001092Au, /* Base address: 0x40010900 Count: 42 */
 404:Generated_Source\PSoC5/cyfitter_cfg.c **** 			0x40010D01u, /* Base address: 0x40010D00 Count: 1 */
 405:Generated_Source\PSoC5/cyfitter_cfg.c **** 			0x40011419u, /* Base address: 0x40011400 Count: 25 */
 406:Generated_Source\PSoC5/cyfitter_cfg.c **** 			0x40011533u, /* Base address: 0x40011500 Count: 51 */
 407:Generated_Source\PSoC5/cyfitter_cfg.c **** 			0x4001160Eu, /* Base address: 0x40011600 Count: 14 */
 408:Generated_Source\PSoC5/cyfitter_cfg.c **** 			0x4001173Fu, /* Base address: 0x40011700 Count: 63 */
 409:Generated_Source\PSoC5/cyfitter_cfg.c **** 			0x4001191Au, /* Base address: 0x40011900 Count: 26 */
 410:Generated_Source\PSoC5/cyfitter_cfg.c **** 			0x40011A06u, /* Base address: 0x40011A00 Count: 6 */
 411:Generated_Source\PSoC5/cyfitter_cfg.c **** 			0x40011B2Eu, /* Base address: 0x40011B00 Count: 46 */
 412:Generated_Source\PSoC5/cyfitter_cfg.c **** 			0x40014009u, /* Base address: 0x40014000 Count: 9 */
 413:Generated_Source\PSoC5/cyfitter_cfg.c **** 			0x40014104u, /* Base address: 0x40014100 Count: 4 */
 414:Generated_Source\PSoC5/cyfitter_cfg.c **** 			0x40014206u, /* Base address: 0x40014200 Count: 6 */
 415:Generated_Source\PSoC5/cyfitter_cfg.c **** 			0x40014307u, /* Base address: 0x40014300 Count: 7 */
 416:Generated_Source\PSoC5/cyfitter_cfg.c **** 			0x40014402u, /* Base address: 0x40014400 Count: 2 */
 417:Generated_Source\PSoC5/cyfitter_cfg.c **** 			0x40014505u, /* Base address: 0x40014500 Count: 5 */
 418:Generated_Source\PSoC5/cyfitter_cfg.c **** 			0x40014601u, /* Base address: 0x40014600 Count: 1 */
 419:Generated_Source\PSoC5/cyfitter_cfg.c **** 			0x40014706u, /* Base address: 0x40014700 Count: 6 */
 420:Generated_Source\PSoC5/cyfitter_cfg.c **** 			0x40014809u, /* Base address: 0x40014800 Count: 9 */
 421:Generated_Source\PSoC5/cyfitter_cfg.c **** 			0x40014918u, /* Base address: 0x40014900 Count: 24 */
 422:Generated_Source\PSoC5/cyfitter_cfg.c **** 			0x40014C10u, /* Base address: 0x40014C00 Count: 16 */
 423:Generated_Source\PSoC5/cyfitter_cfg.c **** 			0x40014D09u, /* Base address: 0x40014D00 Count: 9 */
 424:Generated_Source\PSoC5/cyfitter_cfg.c **** 			0x4001500Bu, /* Base address: 0x40015000 Count: 11 */
 425:Generated_Source\PSoC5/cyfitter_cfg.c **** 			0x40015103u, /* Base address: 0x40015100 Count: 3 */
 426:Generated_Source\PSoC5/cyfitter_cfg.c **** 		};
 427:Generated_Source\PSoC5/cyfitter_cfg.c **** 
 428:Generated_Source\PSoC5/cyfitter_cfg.c **** 		static const cy_cfg_addrvalue_t CYCODE cy_cfg_data_table[] = {
 429:Generated_Source\PSoC5/cyfitter_cfg.c **** 			{0x7Eu, 0x02u},
 430:Generated_Source\PSoC5/cyfitter_cfg.c **** 			{0x18u, 0x01u},
 431:Generated_Source\PSoC5/cyfitter_cfg.c **** 			{0x19u, 0x02u},
 432:Generated_Source\PSoC5/cyfitter_cfg.c **** 			{0x1Cu, 0x04u},
 433:Generated_Source\PSoC5/cyfitter_cfg.c **** 			{0x60u, 0x82u},
 434:Generated_Source\PSoC5/cyfitter_cfg.c **** 			{0x7Cu, 0x40u},
ARM GAS  C:\Users\oars0\AppData\Local\Temp\cc7aWiR5.s 			page 20


 435:Generated_Source\PSoC5/cyfitter_cfg.c **** 			{0x2Fu, 0x84u},
 436:Generated_Source\PSoC5/cyfitter_cfg.c **** 			{0x81u, 0x0Fu},
 437:Generated_Source\PSoC5/cyfitter_cfg.c **** 			{0x82u, 0x72u},
 438:Generated_Source\PSoC5/cyfitter_cfg.c **** 			{0x87u, 0x01u},
 439:Generated_Source\PSoC5/cyfitter_cfg.c **** 			{0x86u, 0x38u},
 440:Generated_Source\PSoC5/cyfitter_cfg.c **** 			{0x00u, 0x1Cu},
 441:Generated_Source\PSoC5/cyfitter_cfg.c **** 			{0x01u, 0x01u},
 442:Generated_Source\PSoC5/cyfitter_cfg.c **** 			{0x02u, 0x22u},
 443:Generated_Source\PSoC5/cyfitter_cfg.c **** 			{0x03u, 0x0Eu},
 444:Generated_Source\PSoC5/cyfitter_cfg.c **** 			{0x04u, 0x14u},
 445:Generated_Source\PSoC5/cyfitter_cfg.c **** 			{0x07u, 0x03u},
 446:Generated_Source\PSoC5/cyfitter_cfg.c **** 			{0x0Cu, 0x09u},
 447:Generated_Source\PSoC5/cyfitter_cfg.c **** 			{0x0Du, 0x0Cu},
 448:Generated_Source\PSoC5/cyfitter_cfg.c **** 			{0x0Eu, 0x10u},
 449:Generated_Source\PSoC5/cyfitter_cfg.c **** 			{0x0Fu, 0x03u},
 450:Generated_Source\PSoC5/cyfitter_cfg.c **** 			{0x15u, 0x01u},
 451:Generated_Source\PSoC5/cyfitter_cfg.c **** 			{0x17u, 0x06u},
 452:Generated_Source\PSoC5/cyfitter_cfg.c **** 			{0x1Au, 0x03u},
 453:Generated_Source\PSoC5/cyfitter_cfg.c **** 			{0x1Cu, 0x2Cu},
 454:Generated_Source\PSoC5/cyfitter_cfg.c **** 			{0x1Eu, 0x11u},
 455:Generated_Source\PSoC5/cyfitter_cfg.c **** 			{0x20u, 0x10u},
 456:Generated_Source\PSoC5/cyfitter_cfg.c **** 			{0x23u, 0x08u},
 457:Generated_Source\PSoC5/cyfitter_cfg.c **** 			{0x24u, 0x40u},
 458:Generated_Source\PSoC5/cyfitter_cfg.c **** 			{0x28u, 0x30u},
 459:Generated_Source\PSoC5/cyfitter_cfg.c **** 			{0x2Au, 0x0Cu},
 460:Generated_Source\PSoC5/cyfitter_cfg.c **** 			{0x2Fu, 0x0Cu},
 461:Generated_Source\PSoC5/cyfitter_cfg.c **** 			{0x34u, 0x1Fu},
 462:Generated_Source\PSoC5/cyfitter_cfg.c **** 			{0x36u, 0x60u},
 463:Generated_Source\PSoC5/cyfitter_cfg.c **** 			{0x37u, 0x0Fu},
 464:Generated_Source\PSoC5/cyfitter_cfg.c **** 			{0x38u, 0x80u},
 465:Generated_Source\PSoC5/cyfitter_cfg.c **** 			{0x3Bu, 0x80u},
 466:Generated_Source\PSoC5/cyfitter_cfg.c **** 			{0x58u, 0x04u},
 467:Generated_Source\PSoC5/cyfitter_cfg.c **** 			{0x59u, 0x04u},
 468:Generated_Source\PSoC5/cyfitter_cfg.c **** 			{0x5Cu, 0x11u},
 469:Generated_Source\PSoC5/cyfitter_cfg.c **** 			{0x5Fu, 0x01u},
 470:Generated_Source\PSoC5/cyfitter_cfg.c **** 			{0x80u, 0x43u},
 471:Generated_Source\PSoC5/cyfitter_cfg.c **** 			{0x81u, 0x04u},
 472:Generated_Source\PSoC5/cyfitter_cfg.c **** 			{0x82u, 0x34u},
 473:Generated_Source\PSoC5/cyfitter_cfg.c **** 			{0x84u, 0x43u},
 474:Generated_Source\PSoC5/cyfitter_cfg.c **** 			{0x86u, 0x1Cu},
 475:Generated_Source\PSoC5/cyfitter_cfg.c **** 			{0x87u, 0x01u},
 476:Generated_Source\PSoC5/cyfitter_cfg.c **** 			{0x88u, 0x80u},
 477:Generated_Source\PSoC5/cyfitter_cfg.c **** 			{0x8Bu, 0x04u},
 478:Generated_Source\PSoC5/cyfitter_cfg.c **** 			{0x8Du, 0x04u},
 479:Generated_Source\PSoC5/cyfitter_cfg.c **** 			{0x8Eu, 0x20u},
 480:Generated_Source\PSoC5/cyfitter_cfg.c **** 			{0x91u, 0x03u},
 481:Generated_Source\PSoC5/cyfitter_cfg.c **** 			{0x95u, 0x03u},
 482:Generated_Source\PSoC5/cyfitter_cfg.c **** 			{0x9Du, 0x02u},
 483:Generated_Source\PSoC5/cyfitter_cfg.c **** 			{0x9Eu, 0x28u},
 484:Generated_Source\PSoC5/cyfitter_cfg.c **** 			{0xA0u, 0x03u},
 485:Generated_Source\PSoC5/cyfitter_cfg.c **** 			{0xA2u, 0x44u},
 486:Generated_Source\PSoC5/cyfitter_cfg.c **** 			{0xA7u, 0x04u},
 487:Generated_Source\PSoC5/cyfitter_cfg.c **** 			{0xAAu, 0x55u},
 488:Generated_Source\PSoC5/cyfitter_cfg.c **** 			{0xACu, 0x2Au},
 489:Generated_Source\PSoC5/cyfitter_cfg.c **** 			{0xAEu, 0x54u},
 490:Generated_Source\PSoC5/cyfitter_cfg.c **** 			{0xB0u, 0x40u},
 491:Generated_Source\PSoC5/cyfitter_cfg.c **** 			{0xB1u, 0x04u},
ARM GAS  C:\Users\oars0\AppData\Local\Temp\cc7aWiR5.s 			page 21


 492:Generated_Source\PSoC5/cyfitter_cfg.c **** 			{0xB2u, 0x0Fu},
 493:Generated_Source\PSoC5/cyfitter_cfg.c **** 			{0xB3u, 0x03u},
 494:Generated_Source\PSoC5/cyfitter_cfg.c **** 			{0xB4u, 0x80u},
 495:Generated_Source\PSoC5/cyfitter_cfg.c **** 			{0xB6u, 0x38u},
 496:Generated_Source\PSoC5/cyfitter_cfg.c **** 			{0xB9u, 0x0Au},
 497:Generated_Source\PSoC5/cyfitter_cfg.c **** 			{0xBAu, 0x88u},
 498:Generated_Source\PSoC5/cyfitter_cfg.c **** 			{0xBEu, 0x11u},
 499:Generated_Source\PSoC5/cyfitter_cfg.c **** 			{0xBFu, 0x04u},
 500:Generated_Source\PSoC5/cyfitter_cfg.c **** 			{0xC0u, 0x62u},
 501:Generated_Source\PSoC5/cyfitter_cfg.c **** 			{0xC1u, 0x01u},
 502:Generated_Source\PSoC5/cyfitter_cfg.c **** 			{0xC6u, 0xBCu},
 503:Generated_Source\PSoC5/cyfitter_cfg.c **** 			{0xC7u, 0x0Eu},
 504:Generated_Source\PSoC5/cyfitter_cfg.c **** 			{0xC8u, 0x1Cu},
 505:Generated_Source\PSoC5/cyfitter_cfg.c **** 			{0xC9u, 0xFFu},
 506:Generated_Source\PSoC5/cyfitter_cfg.c **** 			{0xCAu, 0xFFu},
 507:Generated_Source\PSoC5/cyfitter_cfg.c **** 			{0xCBu, 0xFFu},
 508:Generated_Source\PSoC5/cyfitter_cfg.c **** 			{0xCEu, 0xF0u},
 509:Generated_Source\PSoC5/cyfitter_cfg.c **** 			{0xCFu, 0x44u},
 510:Generated_Source\PSoC5/cyfitter_cfg.c **** 			{0xD0u, 0x0Cu},
 511:Generated_Source\PSoC5/cyfitter_cfg.c **** 			{0xD4u, 0x01u},
 512:Generated_Source\PSoC5/cyfitter_cfg.c **** 			{0xD8u, 0x04u},
 513:Generated_Source\PSoC5/cyfitter_cfg.c **** 			{0xD9u, 0x04u},
 514:Generated_Source\PSoC5/cyfitter_cfg.c **** 			{0xDAu, 0x04u},
 515:Generated_Source\PSoC5/cyfitter_cfg.c **** 			{0xDBu, 0x04u},
 516:Generated_Source\PSoC5/cyfitter_cfg.c **** 			{0xDCu, 0x11u},
 517:Generated_Source\PSoC5/cyfitter_cfg.c **** 			{0xDDu, 0x11u},
 518:Generated_Source\PSoC5/cyfitter_cfg.c **** 			{0xDFu, 0x01u},
 519:Generated_Source\PSoC5/cyfitter_cfg.c **** 			{0xE6u, 0xC0u},
 520:Generated_Source\PSoC5/cyfitter_cfg.c **** 			{0xEAu, 0x40u},
 521:Generated_Source\PSoC5/cyfitter_cfg.c **** 			{0xEBu, 0x02u},
 522:Generated_Source\PSoC5/cyfitter_cfg.c **** 			{0x01u, 0x80u},
 523:Generated_Source\PSoC5/cyfitter_cfg.c **** 			{0x02u, 0x90u},
 524:Generated_Source\PSoC5/cyfitter_cfg.c **** 			{0x04u, 0x01u},
 525:Generated_Source\PSoC5/cyfitter_cfg.c **** 			{0x05u, 0x04u},
 526:Generated_Source\PSoC5/cyfitter_cfg.c **** 			{0x06u, 0x04u},
 527:Generated_Source\PSoC5/cyfitter_cfg.c **** 			{0x07u, 0x02u},
 528:Generated_Source\PSoC5/cyfitter_cfg.c **** 			{0x09u, 0x80u},
 529:Generated_Source\PSoC5/cyfitter_cfg.c **** 			{0x0Au, 0x04u},
 530:Generated_Source\PSoC5/cyfitter_cfg.c **** 			{0x0Eu, 0x01u},
 531:Generated_Source\PSoC5/cyfitter_cfg.c **** 			{0x10u, 0x40u},
 532:Generated_Source\PSoC5/cyfitter_cfg.c **** 			{0x11u, 0x02u},
 533:Generated_Source\PSoC5/cyfitter_cfg.c **** 			{0x12u, 0x08u},
 534:Generated_Source\PSoC5/cyfitter_cfg.c **** 			{0x13u, 0x06u},
 535:Generated_Source\PSoC5/cyfitter_cfg.c **** 			{0x15u, 0x80u},
 536:Generated_Source\PSoC5/cyfitter_cfg.c **** 			{0x16u, 0x88u},
 537:Generated_Source\PSoC5/cyfitter_cfg.c **** 			{0x18u, 0x04u},
 538:Generated_Source\PSoC5/cyfitter_cfg.c **** 			{0x19u, 0x80u},
 539:Generated_Source\PSoC5/cyfitter_cfg.c **** 			{0x1Au, 0x05u},
 540:Generated_Source\PSoC5/cyfitter_cfg.c **** 			{0x1Cu, 0x01u},
 541:Generated_Source\PSoC5/cyfitter_cfg.c **** 			{0x1Du, 0x84u},
 542:Generated_Source\PSoC5/cyfitter_cfg.c **** 			{0x1Eu, 0x4Au},
 543:Generated_Source\PSoC5/cyfitter_cfg.c **** 			{0x21u, 0x40u},
 544:Generated_Source\PSoC5/cyfitter_cfg.c **** 			{0x22u, 0x80u},
 545:Generated_Source\PSoC5/cyfitter_cfg.c **** 			{0x24u, 0x80u},
 546:Generated_Source\PSoC5/cyfitter_cfg.c **** 			{0x27u, 0x10u},
 547:Generated_Source\PSoC5/cyfitter_cfg.c **** 			{0x28u, 0x40u},
 548:Generated_Source\PSoC5/cyfitter_cfg.c **** 			{0x29u, 0x80u},
ARM GAS  C:\Users\oars0\AppData\Local\Temp\cc7aWiR5.s 			page 22


 549:Generated_Source\PSoC5/cyfitter_cfg.c **** 			{0x2Fu, 0x10u},
 550:Generated_Source\PSoC5/cyfitter_cfg.c **** 			{0x31u, 0x04u},
 551:Generated_Source\PSoC5/cyfitter_cfg.c **** 			{0x35u, 0x04u},
 552:Generated_Source\PSoC5/cyfitter_cfg.c **** 			{0x36u, 0x89u},
 553:Generated_Source\PSoC5/cyfitter_cfg.c **** 			{0x38u, 0x01u},
 554:Generated_Source\PSoC5/cyfitter_cfg.c **** 			{0x39u, 0x80u},
 555:Generated_Source\PSoC5/cyfitter_cfg.c **** 			{0x3Bu, 0x04u},
 556:Generated_Source\PSoC5/cyfitter_cfg.c **** 			{0x3Cu, 0xA2u},
 557:Generated_Source\PSoC5/cyfitter_cfg.c **** 			{0x3Eu, 0x08u},
 558:Generated_Source\PSoC5/cyfitter_cfg.c **** 			{0x3Fu, 0x04u},
 559:Generated_Source\PSoC5/cyfitter_cfg.c **** 			{0x45u, 0x80u},
 560:Generated_Source\PSoC5/cyfitter_cfg.c **** 			{0x46u, 0x08u},
 561:Generated_Source\PSoC5/cyfitter_cfg.c **** 			{0x4Eu, 0x08u},
 562:Generated_Source\PSoC5/cyfitter_cfg.c **** 			{0x56u, 0x94u},
 563:Generated_Source\PSoC5/cyfitter_cfg.c **** 			{0x5Eu, 0x48u},
 564:Generated_Source\PSoC5/cyfitter_cfg.c **** 			{0x5Fu, 0x21u},
 565:Generated_Source\PSoC5/cyfitter_cfg.c **** 			{0x8Eu, 0x04u},
 566:Generated_Source\PSoC5/cyfitter_cfg.c **** 			{0x8Fu, 0x01u},
 567:Generated_Source\PSoC5/cyfitter_cfg.c **** 			{0xC0u, 0xFDu},
 568:Generated_Source\PSoC5/cyfitter_cfg.c **** 			{0xC2u, 0x83u},
 569:Generated_Source\PSoC5/cyfitter_cfg.c **** 			{0xC4u, 0xDEu},
 570:Generated_Source\PSoC5/cyfitter_cfg.c **** 			{0xCAu, 0x49u},
 571:Generated_Source\PSoC5/cyfitter_cfg.c **** 			{0xCCu, 0xD2u},
 572:Generated_Source\PSoC5/cyfitter_cfg.c **** 			{0xCEu, 0xFBu},
 573:Generated_Source\PSoC5/cyfitter_cfg.c **** 			{0xD0u, 0x30u},
 574:Generated_Source\PSoC5/cyfitter_cfg.c **** 			{0xD2u, 0x20u},
 575:Generated_Source\PSoC5/cyfitter_cfg.c **** 			{0xD6u, 0xF0u},
 576:Generated_Source\PSoC5/cyfitter_cfg.c **** 			{0x00u, 0x01u},
 577:Generated_Source\PSoC5/cyfitter_cfg.c **** 			{0x04u, 0x0Cu},
 578:Generated_Source\PSoC5/cyfitter_cfg.c **** 			{0x05u, 0x3Fu},
 579:Generated_Source\PSoC5/cyfitter_cfg.c **** 			{0x08u, 0x03u},
 580:Generated_Source\PSoC5/cyfitter_cfg.c **** 			{0x09u, 0x3Fu},
 581:Generated_Source\PSoC5/cyfitter_cfg.c **** 			{0x0Cu, 0x42u},
 582:Generated_Source\PSoC5/cyfitter_cfg.c **** 			{0x0Du, 0x12u},
 583:Generated_Source\PSoC5/cyfitter_cfg.c **** 			{0x0Fu, 0x21u},
 584:Generated_Source\PSoC5/cyfitter_cfg.c **** 			{0x11u, 0x08u},
 585:Generated_Source\PSoC5/cyfitter_cfg.c **** 			{0x12u, 0x40u},
 586:Generated_Source\PSoC5/cyfitter_cfg.c **** 			{0x15u, 0x01u},
 587:Generated_Source\PSoC5/cyfitter_cfg.c **** 			{0x16u, 0xB3u},
 588:Generated_Source\PSoC5/cyfitter_cfg.c **** 			{0x17u, 0x06u},
 589:Generated_Source\PSoC5/cyfitter_cfg.c **** 			{0x18u, 0x4Cu},
 590:Generated_Source\PSoC5/cyfitter_cfg.c **** 			{0x1Au, 0xA3u},
 591:Generated_Source\PSoC5/cyfitter_cfg.c **** 			{0x1Cu, 0xFFu},
 592:Generated_Source\PSoC5/cyfitter_cfg.c **** 			{0x1Du, 0x24u},
 593:Generated_Source\PSoC5/cyfitter_cfg.c **** 			{0x1Fu, 0x11u},
 594:Generated_Source\PSoC5/cyfitter_cfg.c **** 			{0x20u, 0xF3u},
 595:Generated_Source\PSoC5/cyfitter_cfg.c **** 			{0x22u, 0x0Cu},
 596:Generated_Source\PSoC5/cyfitter_cfg.c **** 			{0x24u, 0x04u},
 597:Generated_Source\PSoC5/cyfitter_cfg.c **** 			{0x28u, 0x4Fu},
 598:Generated_Source\PSoC5/cyfitter_cfg.c **** 			{0x2Au, 0x90u},
 599:Generated_Source\PSoC5/cyfitter_cfg.c **** 			{0x2Cu, 0x08u},
 600:Generated_Source\PSoC5/cyfitter_cfg.c **** 			{0x30u, 0x0Fu},
 601:Generated_Source\PSoC5/cyfitter_cfg.c **** 			{0x31u, 0x30u},
 602:Generated_Source\PSoC5/cyfitter_cfg.c **** 			{0x32u, 0x8Cu},
 603:Generated_Source\PSoC5/cyfitter_cfg.c **** 			{0x33u, 0x08u},
 604:Generated_Source\PSoC5/cyfitter_cfg.c **** 			{0x34u, 0x7Cu},
 605:Generated_Source\PSoC5/cyfitter_cfg.c **** 			{0x35u, 0x07u},
ARM GAS  C:\Users\oars0\AppData\Local\Temp\cc7aWiR5.s 			page 23


 606:Generated_Source\PSoC5/cyfitter_cfg.c **** 			{0x3Au, 0x2Au},
 607:Generated_Source\PSoC5/cyfitter_cfg.c **** 			{0x40u, 0x02u},
 608:Generated_Source\PSoC5/cyfitter_cfg.c **** 			{0x47u, 0x40u},
 609:Generated_Source\PSoC5/cyfitter_cfg.c **** 			{0x49u, 0xFFu},
 610:Generated_Source\PSoC5/cyfitter_cfg.c **** 			{0x4Au, 0x07u},
 611:Generated_Source\PSoC5/cyfitter_cfg.c **** 			{0x4Bu, 0xFFu},
 612:Generated_Source\PSoC5/cyfitter_cfg.c **** 			{0x4Cu, 0x40u},
 613:Generated_Source\PSoC5/cyfitter_cfg.c **** 			{0x4Du, 0x20u},
 614:Generated_Source\PSoC5/cyfitter_cfg.c **** 			{0x4Eu, 0xF0u},
 615:Generated_Source\PSoC5/cyfitter_cfg.c **** 			{0x4Fu, 0x05u},
 616:Generated_Source\PSoC5/cyfitter_cfg.c **** 			{0x50u, 0x08u},
 617:Generated_Source\PSoC5/cyfitter_cfg.c **** 			{0x56u, 0x02u},
 618:Generated_Source\PSoC5/cyfitter_cfg.c **** 			{0x57u, 0x11u},
 619:Generated_Source\PSoC5/cyfitter_cfg.c **** 			{0x58u, 0x04u},
 620:Generated_Source\PSoC5/cyfitter_cfg.c **** 			{0x59u, 0x04u},
 621:Generated_Source\PSoC5/cyfitter_cfg.c **** 			{0x5Au, 0x04u},
 622:Generated_Source\PSoC5/cyfitter_cfg.c **** 			{0x5Bu, 0x04u},
 623:Generated_Source\PSoC5/cyfitter_cfg.c **** 			{0x5Cu, 0x11u},
 624:Generated_Source\PSoC5/cyfitter_cfg.c **** 			{0x5Du, 0x11u},
 625:Generated_Source\PSoC5/cyfitter_cfg.c **** 			{0x5Fu, 0x01u},
 626:Generated_Source\PSoC5/cyfitter_cfg.c **** 			{0x60u, 0x40u},
 627:Generated_Source\PSoC5/cyfitter_cfg.c **** 			{0x61u, 0xA8u},
 628:Generated_Source\PSoC5/cyfitter_cfg.c **** 			{0x62u, 0x40u},
 629:Generated_Source\PSoC5/cyfitter_cfg.c **** 			{0x63u, 0x20u},
 630:Generated_Source\PSoC5/cyfitter_cfg.c **** 			{0x84u, 0x01u},
 631:Generated_Source\PSoC5/cyfitter_cfg.c **** 			{0xB0u, 0x01u},
 632:Generated_Source\PSoC5/cyfitter_cfg.c **** 			{0xBEu, 0x01u},
 633:Generated_Source\PSoC5/cyfitter_cfg.c **** 			{0xD8u, 0x04u},
 634:Generated_Source\PSoC5/cyfitter_cfg.c **** 			{0xD9u, 0x04u},
 635:Generated_Source\PSoC5/cyfitter_cfg.c **** 			{0xDFu, 0x01u},
 636:Generated_Source\PSoC5/cyfitter_cfg.c **** 			{0x00u, 0x14u},
 637:Generated_Source\PSoC5/cyfitter_cfg.c **** 			{0x01u, 0x40u},
 638:Generated_Source\PSoC5/cyfitter_cfg.c **** 			{0x05u, 0x48u},
 639:Generated_Source\PSoC5/cyfitter_cfg.c **** 			{0x07u, 0x48u},
 640:Generated_Source\PSoC5/cyfitter_cfg.c **** 			{0x0Au, 0x24u},
 641:Generated_Source\PSoC5/cyfitter_cfg.c **** 			{0x0Du, 0x88u},
 642:Generated_Source\PSoC5/cyfitter_cfg.c **** 			{0x0Eu, 0x48u},
 643:Generated_Source\PSoC5/cyfitter_cfg.c **** 			{0x10u, 0x81u},
 644:Generated_Source\PSoC5/cyfitter_cfg.c **** 			{0x12u, 0x20u},
 645:Generated_Source\PSoC5/cyfitter_cfg.c **** 			{0x15u, 0x12u},
 646:Generated_Source\PSoC5/cyfitter_cfg.c **** 			{0x16u, 0x02u},
 647:Generated_Source\PSoC5/cyfitter_cfg.c **** 			{0x17u, 0x04u},
 648:Generated_Source\PSoC5/cyfitter_cfg.c **** 			{0x19u, 0x02u},
 649:Generated_Source\PSoC5/cyfitter_cfg.c **** 			{0x1Cu, 0xA0u},
 650:Generated_Source\PSoC5/cyfitter_cfg.c **** 			{0x1Du, 0x02u},
 651:Generated_Source\PSoC5/cyfitter_cfg.c **** 			{0x1Eu, 0x08u},
 652:Generated_Source\PSoC5/cyfitter_cfg.c **** 			{0x1Fu, 0x10u},
 653:Generated_Source\PSoC5/cyfitter_cfg.c **** 			{0x24u, 0x40u},
 654:Generated_Source\PSoC5/cyfitter_cfg.c **** 			{0x25u, 0x08u},
 655:Generated_Source\PSoC5/cyfitter_cfg.c **** 			{0x26u, 0x08u},
 656:Generated_Source\PSoC5/cyfitter_cfg.c **** 			{0x27u, 0x48u},
 657:Generated_Source\PSoC5/cyfitter_cfg.c **** 			{0x28u, 0x01u},
 658:Generated_Source\PSoC5/cyfitter_cfg.c **** 			{0x29u, 0x04u},
 659:Generated_Source\PSoC5/cyfitter_cfg.c **** 			{0x2Bu, 0x02u},
 660:Generated_Source\PSoC5/cyfitter_cfg.c **** 			{0x30u, 0x80u},
 661:Generated_Source\PSoC5/cyfitter_cfg.c **** 			{0x32u, 0x10u},
 662:Generated_Source\PSoC5/cyfitter_cfg.c **** 			{0x33u, 0x80u},
ARM GAS  C:\Users\oars0\AppData\Local\Temp\cc7aWiR5.s 			page 24


 663:Generated_Source\PSoC5/cyfitter_cfg.c **** 			{0x35u, 0x40u},
 664:Generated_Source\PSoC5/cyfitter_cfg.c **** 			{0x37u, 0x09u},
 665:Generated_Source\PSoC5/cyfitter_cfg.c **** 			{0x38u, 0x18u},
 666:Generated_Source\PSoC5/cyfitter_cfg.c **** 			{0x39u, 0x40u},
 667:Generated_Source\PSoC5/cyfitter_cfg.c **** 			{0x3Au, 0x80u},
 668:Generated_Source\PSoC5/cyfitter_cfg.c **** 			{0x3Cu, 0x40u},
 669:Generated_Source\PSoC5/cyfitter_cfg.c **** 			{0x3Du, 0x28u},
 670:Generated_Source\PSoC5/cyfitter_cfg.c **** 			{0x41u, 0x03u},
 671:Generated_Source\PSoC5/cyfitter_cfg.c **** 			{0x47u, 0x10u},
 672:Generated_Source\PSoC5/cyfitter_cfg.c **** 			{0x4Fu, 0x04u},
 673:Generated_Source\PSoC5/cyfitter_cfg.c **** 			{0x55u, 0x01u},
 674:Generated_Source\PSoC5/cyfitter_cfg.c **** 			{0x5Eu, 0x20u},
 675:Generated_Source\PSoC5/cyfitter_cfg.c **** 			{0x6Du, 0x28u},
 676:Generated_Source\PSoC5/cyfitter_cfg.c **** 			{0x6Fu, 0x01u},
 677:Generated_Source\PSoC5/cyfitter_cfg.c **** 			{0x74u, 0x04u},
 678:Generated_Source\PSoC5/cyfitter_cfg.c **** 			{0x75u, 0x28u},
 679:Generated_Source\PSoC5/cyfitter_cfg.c **** 			{0x76u, 0x02u},
 680:Generated_Source\PSoC5/cyfitter_cfg.c **** 			{0x77u, 0x04u},
 681:Generated_Source\PSoC5/cyfitter_cfg.c **** 			{0x8Du, 0x02u},
 682:Generated_Source\PSoC5/cyfitter_cfg.c **** 			{0x90u, 0x84u},
 683:Generated_Source\PSoC5/cyfitter_cfg.c **** 			{0x97u, 0x24u},
 684:Generated_Source\PSoC5/cyfitter_cfg.c **** 			{0x9Bu, 0x10u},
 685:Generated_Source\PSoC5/cyfitter_cfg.c **** 			{0xA4u, 0x51u},
 686:Generated_Source\PSoC5/cyfitter_cfg.c **** 			{0xA5u, 0x01u},
 687:Generated_Source\PSoC5/cyfitter_cfg.c **** 			{0xAAu, 0x80u},
 688:Generated_Source\PSoC5/cyfitter_cfg.c **** 			{0xABu, 0x20u},
 689:Generated_Source\PSoC5/cyfitter_cfg.c **** 			{0xC0u, 0xF7u},
 690:Generated_Source\PSoC5/cyfitter_cfg.c **** 			{0xC2u, 0xF6u},
 691:Generated_Source\PSoC5/cyfitter_cfg.c **** 			{0xC4u, 0xFDu},
 692:Generated_Source\PSoC5/cyfitter_cfg.c **** 			{0xCAu, 0x0Au},
 693:Generated_Source\PSoC5/cyfitter_cfg.c **** 			{0xCCu, 0xDCu},
 694:Generated_Source\PSoC5/cyfitter_cfg.c **** 			{0xCEu, 0x7Eu},
 695:Generated_Source\PSoC5/cyfitter_cfg.c **** 			{0xD0u, 0x20u},
 696:Generated_Source\PSoC5/cyfitter_cfg.c **** 			{0xD6u, 0x20u},
 697:Generated_Source\PSoC5/cyfitter_cfg.c **** 			{0x02u, 0x01u},
 698:Generated_Source\PSoC5/cyfitter_cfg.c **** 			{0x17u, 0x01u},
 699:Generated_Source\PSoC5/cyfitter_cfg.c **** 			{0x32u, 0x01u},
 700:Generated_Source\PSoC5/cyfitter_cfg.c **** 			{0x35u, 0x01u},
 701:Generated_Source\PSoC5/cyfitter_cfg.c **** 			{0x58u, 0x04u},
 702:Generated_Source\PSoC5/cyfitter_cfg.c **** 			{0x59u, 0x04u},
 703:Generated_Source\PSoC5/cyfitter_cfg.c **** 			{0x5Fu, 0x01u},
 704:Generated_Source\PSoC5/cyfitter_cfg.c **** 			{0x81u, 0x04u},
 705:Generated_Source\PSoC5/cyfitter_cfg.c **** 			{0x85u, 0x06u},
 706:Generated_Source\PSoC5/cyfitter_cfg.c **** 			{0x89u, 0x86u},
 707:Generated_Source\PSoC5/cyfitter_cfg.c **** 			{0x8Bu, 0x61u},
 708:Generated_Source\PSoC5/cyfitter_cfg.c **** 			{0x8Du, 0xE1u},
 709:Generated_Source\PSoC5/cyfitter_cfg.c **** 			{0x8Eu, 0x02u},
 710:Generated_Source\PSoC5/cyfitter_cfg.c **** 			{0x8Fu, 0x06u},
 711:Generated_Source\PSoC5/cyfitter_cfg.c **** 			{0x92u, 0x02u},
 712:Generated_Source\PSoC5/cyfitter_cfg.c **** 			{0x95u, 0x60u},
 713:Generated_Source\PSoC5/cyfitter_cfg.c **** 			{0x97u, 0x08u},
 714:Generated_Source\PSoC5/cyfitter_cfg.c **** 			{0x99u, 0x02u},
 715:Generated_Source\PSoC5/cyfitter_cfg.c **** 			{0x9Du, 0x20u},
 716:Generated_Source\PSoC5/cyfitter_cfg.c **** 			{0x9Fu, 0x10u},
 717:Generated_Source\PSoC5/cyfitter_cfg.c **** 			{0xA1u, 0xE7u},
 718:Generated_Source\PSoC5/cyfitter_cfg.c **** 			{0xA2u, 0x01u},
 719:Generated_Source\PSoC5/cyfitter_cfg.c **** 			{0xA5u, 0x87u},
ARM GAS  C:\Users\oars0\AppData\Local\Temp\cc7aWiR5.s 			page 25


 720:Generated_Source\PSoC5/cyfitter_cfg.c **** 			{0xA7u, 0x60u},
 721:Generated_Source\PSoC5/cyfitter_cfg.c **** 			{0xABu, 0x61u},
 722:Generated_Source\PSoC5/cyfitter_cfg.c **** 			{0xADu, 0x40u},
 723:Generated_Source\PSoC5/cyfitter_cfg.c **** 			{0xAFu, 0x10u},
 724:Generated_Source\PSoC5/cyfitter_cfg.c **** 			{0xB0u, 0x01u},
 725:Generated_Source\PSoC5/cyfitter_cfg.c **** 			{0xB1u, 0x07u},
 726:Generated_Source\PSoC5/cyfitter_cfg.c **** 			{0xB2u, 0x02u},
 727:Generated_Source\PSoC5/cyfitter_cfg.c **** 			{0xB3u, 0x18u},
 728:Generated_Source\PSoC5/cyfitter_cfg.c **** 			{0xB5u, 0x80u},
 729:Generated_Source\PSoC5/cyfitter_cfg.c **** 			{0xB7u, 0x60u},
 730:Generated_Source\PSoC5/cyfitter_cfg.c **** 			{0xBAu, 0x80u},
 731:Generated_Source\PSoC5/cyfitter_cfg.c **** 			{0xBEu, 0x04u},
 732:Generated_Source\PSoC5/cyfitter_cfg.c **** 			{0xBFu, 0x14u},
 733:Generated_Source\PSoC5/cyfitter_cfg.c **** 			{0xC0u, 0x46u},
 734:Generated_Source\PSoC5/cyfitter_cfg.c **** 			{0xC1u, 0x01u},
 735:Generated_Source\PSoC5/cyfitter_cfg.c **** 			{0xC2u, 0x05u},
 736:Generated_Source\PSoC5/cyfitter_cfg.c **** 			{0xC4u, 0x02u},
 737:Generated_Source\PSoC5/cyfitter_cfg.c **** 			{0xC6u, 0xCEu},
 738:Generated_Source\PSoC5/cyfitter_cfg.c **** 			{0xC8u, 0x0Cu},
 739:Generated_Source\PSoC5/cyfitter_cfg.c **** 			{0xC9u, 0xFFu},
 740:Generated_Source\PSoC5/cyfitter_cfg.c **** 			{0xCAu, 0xFFu},
 741:Generated_Source\PSoC5/cyfitter_cfg.c **** 			{0xCBu, 0xFFu},
 742:Generated_Source\PSoC5/cyfitter_cfg.c **** 			{0xCCu, 0x62u},
 743:Generated_Source\PSoC5/cyfitter_cfg.c **** 			{0xCDu, 0xA0u},
 744:Generated_Source\PSoC5/cyfitter_cfg.c **** 			{0xCEu, 0xF0u},
 745:Generated_Source\PSoC5/cyfitter_cfg.c **** 			{0xCFu, 0x41u},
 746:Generated_Source\PSoC5/cyfitter_cfg.c **** 			{0xD0u, 0x0Cu},
 747:Generated_Source\PSoC5/cyfitter_cfg.c **** 			{0xD6u, 0x08u},
 748:Generated_Source\PSoC5/cyfitter_cfg.c **** 			{0xD8u, 0x04u},
 749:Generated_Source\PSoC5/cyfitter_cfg.c **** 			{0xD9u, 0x04u},
 750:Generated_Source\PSoC5/cyfitter_cfg.c **** 			{0xDAu, 0x04u},
 751:Generated_Source\PSoC5/cyfitter_cfg.c **** 			{0xDBu, 0x04u},
 752:Generated_Source\PSoC5/cyfitter_cfg.c **** 			{0xDCu, 0x11u},
 753:Generated_Source\PSoC5/cyfitter_cfg.c **** 			{0xDDu, 0x91u},
 754:Generated_Source\PSoC5/cyfitter_cfg.c **** 			{0xDFu, 0x01u},
 755:Generated_Source\PSoC5/cyfitter_cfg.c **** 			{0xE6u, 0x40u},
 756:Generated_Source\PSoC5/cyfitter_cfg.c **** 			{0xE7u, 0x02u},
 757:Generated_Source\PSoC5/cyfitter_cfg.c **** 			{0xE9u, 0x10u},
 758:Generated_Source\PSoC5/cyfitter_cfg.c **** 			{0xEAu, 0x30u},
 759:Generated_Source\PSoC5/cyfitter_cfg.c **** 			{0xEBu, 0x10u},
 760:Generated_Source\PSoC5/cyfitter_cfg.c **** 			{0xEDu, 0x10u},
 761:Generated_Source\PSoC5/cyfitter_cfg.c **** 			{0xEEu, 0x10u},
 762:Generated_Source\PSoC5/cyfitter_cfg.c **** 			{0xEFu, 0x12u},
 763:Generated_Source\PSoC5/cyfitter_cfg.c **** 			{0x00u, 0x50u},
 764:Generated_Source\PSoC5/cyfitter_cfg.c **** 			{0x01u, 0x01u},
 765:Generated_Source\PSoC5/cyfitter_cfg.c **** 			{0x04u, 0x80u},
 766:Generated_Source\PSoC5/cyfitter_cfg.c **** 			{0x08u, 0x01u},
 767:Generated_Source\PSoC5/cyfitter_cfg.c **** 			{0x0Au, 0x24u},
 768:Generated_Source\PSoC5/cyfitter_cfg.c **** 			{0x0Fu, 0x80u},
 769:Generated_Source\PSoC5/cyfitter_cfg.c **** 			{0x10u, 0x44u},
 770:Generated_Source\PSoC5/cyfitter_cfg.c **** 			{0x12u, 0x28u},
 771:Generated_Source\PSoC5/cyfitter_cfg.c **** 			{0x16u, 0x40u},
 772:Generated_Source\PSoC5/cyfitter_cfg.c **** 			{0x18u, 0x10u},
 773:Generated_Source\PSoC5/cyfitter_cfg.c **** 			{0x1Cu, 0x02u},
 774:Generated_Source\PSoC5/cyfitter_cfg.c **** 			{0x1Du, 0x80u},
 775:Generated_Source\PSoC5/cyfitter_cfg.c **** 			{0x1Eu, 0x40u},
 776:Generated_Source\PSoC5/cyfitter_cfg.c **** 			{0x1Fu, 0x44u},
ARM GAS  C:\Users\oars0\AppData\Local\Temp\cc7aWiR5.s 			page 26


 777:Generated_Source\PSoC5/cyfitter_cfg.c **** 			{0x22u, 0x20u},
 778:Generated_Source\PSoC5/cyfitter_cfg.c **** 			{0x26u, 0x13u},
 779:Generated_Source\PSoC5/cyfitter_cfg.c **** 			{0x27u, 0x22u},
 780:Generated_Source\PSoC5/cyfitter_cfg.c **** 			{0x28u, 0x41u},
 781:Generated_Source\PSoC5/cyfitter_cfg.c **** 			{0x2Bu, 0x8Au},
 782:Generated_Source\PSoC5/cyfitter_cfg.c **** 			{0x2Cu, 0x04u},
 783:Generated_Source\PSoC5/cyfitter_cfg.c **** 			{0x2Fu, 0x51u},
 784:Generated_Source\PSoC5/cyfitter_cfg.c **** 			{0x30u, 0x08u},
 785:Generated_Source\PSoC5/cyfitter_cfg.c **** 			{0x32u, 0x20u},
 786:Generated_Source\PSoC5/cyfitter_cfg.c **** 			{0x35u, 0x20u},
 787:Generated_Source\PSoC5/cyfitter_cfg.c **** 			{0x37u, 0x48u},
 788:Generated_Source\PSoC5/cyfitter_cfg.c **** 			{0x38u, 0x58u},
 789:Generated_Source\PSoC5/cyfitter_cfg.c **** 			{0x3Au, 0x80u},
 790:Generated_Source\PSoC5/cyfitter_cfg.c **** 			{0x3Cu, 0xA8u},
 791:Generated_Source\PSoC5/cyfitter_cfg.c **** 			{0x3Du, 0x10u},
 792:Generated_Source\PSoC5/cyfitter_cfg.c **** 			{0x3Eu, 0x02u},
 793:Generated_Source\PSoC5/cyfitter_cfg.c **** 			{0x45u, 0x82u},
 794:Generated_Source\PSoC5/cyfitter_cfg.c **** 			{0x47u, 0x20u},
 795:Generated_Source\PSoC5/cyfitter_cfg.c **** 			{0x4Eu, 0x0Au},
 796:Generated_Source\PSoC5/cyfitter_cfg.c **** 			{0x57u, 0x50u},
 797:Generated_Source\PSoC5/cyfitter_cfg.c **** 			{0x5Cu, 0x80u},
 798:Generated_Source\PSoC5/cyfitter_cfg.c **** 			{0x65u, 0x40u},
 799:Generated_Source\PSoC5/cyfitter_cfg.c **** 			{0x66u, 0x40u},
 800:Generated_Source\PSoC5/cyfitter_cfg.c **** 			{0x67u, 0x02u},
 801:Generated_Source\PSoC5/cyfitter_cfg.c **** 			{0x90u, 0x80u},
 802:Generated_Source\PSoC5/cyfitter_cfg.c **** 			{0x93u, 0x20u},
 803:Generated_Source\PSoC5/cyfitter_cfg.c **** 			{0x94u, 0x18u},
 804:Generated_Source\PSoC5/cyfitter_cfg.c **** 			{0x95u, 0x10u},
 805:Generated_Source\PSoC5/cyfitter_cfg.c **** 			{0x96u, 0x64u},
 806:Generated_Source\PSoC5/cyfitter_cfg.c **** 			{0x99u, 0x20u},
 807:Generated_Source\PSoC5/cyfitter_cfg.c **** 			{0x9Au, 0x02u},
 808:Generated_Source\PSoC5/cyfitter_cfg.c **** 			{0x9Bu, 0x48u},
 809:Generated_Source\PSoC5/cyfitter_cfg.c **** 			{0x9Du, 0x44u},
 810:Generated_Source\PSoC5/cyfitter_cfg.c **** 			{0x9Eu, 0x80u},
 811:Generated_Source\PSoC5/cyfitter_cfg.c **** 			{0xA0u, 0x54u},
 812:Generated_Source\PSoC5/cyfitter_cfg.c **** 			{0xA1u, 0x02u},
 813:Generated_Source\PSoC5/cyfitter_cfg.c **** 			{0xA2u, 0x08u},
 814:Generated_Source\PSoC5/cyfitter_cfg.c **** 			{0xA4u, 0x01u},
 815:Generated_Source\PSoC5/cyfitter_cfg.c **** 			{0xA5u, 0x80u},
 816:Generated_Source\PSoC5/cyfitter_cfg.c **** 			{0xA6u, 0x30u},
 817:Generated_Source\PSoC5/cyfitter_cfg.c **** 			{0xA7u, 0x82u},
 818:Generated_Source\PSoC5/cyfitter_cfg.c **** 			{0xC0u, 0x8Bu},
 819:Generated_Source\PSoC5/cyfitter_cfg.c **** 			{0xC2u, 0x1Eu},
 820:Generated_Source\PSoC5/cyfitter_cfg.c **** 			{0xC4u, 0x1Cu},
 821:Generated_Source\PSoC5/cyfitter_cfg.c **** 			{0xCAu, 0xFDu},
 822:Generated_Source\PSoC5/cyfitter_cfg.c **** 			{0xCCu, 0x76u},
 823:Generated_Source\PSoC5/cyfitter_cfg.c **** 			{0xCEu, 0xFEu},
 824:Generated_Source\PSoC5/cyfitter_cfg.c **** 			{0xD0u, 0xB0u},
 825:Generated_Source\PSoC5/cyfitter_cfg.c **** 			{0xD2u, 0x30u},
 826:Generated_Source\PSoC5/cyfitter_cfg.c **** 			{0xD6u, 0x10u},
 827:Generated_Source\PSoC5/cyfitter_cfg.c **** 			{0xD8u, 0x10u},
 828:Generated_Source\PSoC5/cyfitter_cfg.c **** 			{0x0Au, 0x02u},
 829:Generated_Source\PSoC5/cyfitter_cfg.c **** 			{0x0Cu, 0x01u},
 830:Generated_Source\PSoC5/cyfitter_cfg.c **** 			{0x10u, 0x08u},
 831:Generated_Source\PSoC5/cyfitter_cfg.c **** 			{0x16u, 0x04u},
 832:Generated_Source\PSoC5/cyfitter_cfg.c **** 			{0x17u, 0x03u},
 833:Generated_Source\PSoC5/cyfitter_cfg.c **** 			{0x19u, 0x01u},
ARM GAS  C:\Users\oars0\AppData\Local\Temp\cc7aWiR5.s 			page 27


 834:Generated_Source\PSoC5/cyfitter_cfg.c **** 			{0x1Au, 0x01u},
 835:Generated_Source\PSoC5/cyfitter_cfg.c **** 			{0x1Eu, 0x04u},
 836:Generated_Source\PSoC5/cyfitter_cfg.c **** 			{0x24u, 0x08u},
 837:Generated_Source\PSoC5/cyfitter_cfg.c **** 			{0x32u, 0x08u},
 838:Generated_Source\PSoC5/cyfitter_cfg.c **** 			{0x33u, 0x02u},
 839:Generated_Source\PSoC5/cyfitter_cfg.c **** 			{0x34u, 0x03u},
 840:Generated_Source\PSoC5/cyfitter_cfg.c **** 			{0x36u, 0x04u},
 841:Generated_Source\PSoC5/cyfitter_cfg.c **** 			{0x37u, 0x01u},
 842:Generated_Source\PSoC5/cyfitter_cfg.c **** 			{0x38u, 0x08u},
 843:Generated_Source\PSoC5/cyfitter_cfg.c **** 			{0x3Eu, 0x44u},
 844:Generated_Source\PSoC5/cyfitter_cfg.c **** 			{0x58u, 0x04u},
 845:Generated_Source\PSoC5/cyfitter_cfg.c **** 			{0x59u, 0x0Cu},
 846:Generated_Source\PSoC5/cyfitter_cfg.c **** 			{0x5Cu, 0x09u},
 847:Generated_Source\PSoC5/cyfitter_cfg.c **** 			{0x5Fu, 0x01u},
 848:Generated_Source\PSoC5/cyfitter_cfg.c **** 			{0x81u, 0x04u},
 849:Generated_Source\PSoC5/cyfitter_cfg.c **** 			{0x82u, 0x04u},
 850:Generated_Source\PSoC5/cyfitter_cfg.c **** 			{0x85u, 0x08u},
 851:Generated_Source\PSoC5/cyfitter_cfg.c **** 			{0x88u, 0x04u},
 852:Generated_Source\PSoC5/cyfitter_cfg.c **** 			{0x8Bu, 0x04u},
 853:Generated_Source\PSoC5/cyfitter_cfg.c **** 			{0x8Cu, 0x08u},
 854:Generated_Source\PSoC5/cyfitter_cfg.c **** 			{0x8Du, 0x02u},
 855:Generated_Source\PSoC5/cyfitter_cfg.c **** 			{0x90u, 0x01u},
 856:Generated_Source\PSoC5/cyfitter_cfg.c **** 			{0x91u, 0x80u},
 857:Generated_Source\PSoC5/cyfitter_cfg.c **** 			{0x93u, 0x40u},
 858:Generated_Source\PSoC5/cyfitter_cfg.c **** 			{0x94u, 0x02u},
 859:Generated_Source\PSoC5/cyfitter_cfg.c **** 			{0x95u, 0x20u},
 860:Generated_Source\PSoC5/cyfitter_cfg.c **** 			{0x97u, 0x10u},
 861:Generated_Source\PSoC5/cyfitter_cfg.c **** 			{0x99u, 0x10u},
 862:Generated_Source\PSoC5/cyfitter_cfg.c **** 			{0x9Au, 0x10u},
 863:Generated_Source\PSoC5/cyfitter_cfg.c **** 			{0x9Bu, 0x20u},
 864:Generated_Source\PSoC5/cyfitter_cfg.c **** 			{0x9Eu, 0x82u},
 865:Generated_Source\PSoC5/cyfitter_cfg.c **** 			{0x9Fu, 0x08u},
 866:Generated_Source\PSoC5/cyfitter_cfg.c **** 			{0xA1u, 0x40u},
 867:Generated_Source\PSoC5/cyfitter_cfg.c **** 			{0xA3u, 0x80u},
 868:Generated_Source\PSoC5/cyfitter_cfg.c **** 			{0xA6u, 0x21u},
 869:Generated_Source\PSoC5/cyfitter_cfg.c **** 			{0xA7u, 0x02u},
 870:Generated_Source\PSoC5/cyfitter_cfg.c **** 			{0xA9u, 0x01u},
 871:Generated_Source\PSoC5/cyfitter_cfg.c **** 			{0xAAu, 0x48u},
 872:Generated_Source\PSoC5/cyfitter_cfg.c **** 			{0xAFu, 0x01u},
 873:Generated_Source\PSoC5/cyfitter_cfg.c **** 			{0xB0u, 0x20u},
 874:Generated_Source\PSoC5/cyfitter_cfg.c **** 			{0xB2u, 0x80u},
 875:Generated_Source\PSoC5/cyfitter_cfg.c **** 			{0xB4u, 0x1Fu},
 876:Generated_Source\PSoC5/cyfitter_cfg.c **** 			{0xB5u, 0xFFu},
 877:Generated_Source\PSoC5/cyfitter_cfg.c **** 			{0xB6u, 0x40u},
 878:Generated_Source\PSoC5/cyfitter_cfg.c **** 			{0xB8u, 0x20u},
 879:Generated_Source\PSoC5/cyfitter_cfg.c **** 			{0xBEu, 0x10u},
 880:Generated_Source\PSoC5/cyfitter_cfg.c **** 			{0xBFu, 0x10u},
 881:Generated_Source\PSoC5/cyfitter_cfg.c **** 			{0xD6u, 0x02u},
 882:Generated_Source\PSoC5/cyfitter_cfg.c **** 			{0xD7u, 0x3Au},
 883:Generated_Source\PSoC5/cyfitter_cfg.c **** 			{0xD8u, 0x04u},
 884:Generated_Source\PSoC5/cyfitter_cfg.c **** 			{0xD9u, 0x04u},
 885:Generated_Source\PSoC5/cyfitter_cfg.c **** 			{0xDBu, 0x0Cu},
 886:Generated_Source\PSoC5/cyfitter_cfg.c **** 			{0xDFu, 0x01u},
 887:Generated_Source\PSoC5/cyfitter_cfg.c **** 			{0x00u, 0x10u},
 888:Generated_Source\PSoC5/cyfitter_cfg.c **** 			{0x01u, 0x91u},
 889:Generated_Source\PSoC5/cyfitter_cfg.c **** 			{0x06u, 0x04u},
 890:Generated_Source\PSoC5/cyfitter_cfg.c **** 			{0x07u, 0x01u},
ARM GAS  C:\Users\oars0\AppData\Local\Temp\cc7aWiR5.s 			page 28


 891:Generated_Source\PSoC5/cyfitter_cfg.c **** 			{0x09u, 0xA0u},
 892:Generated_Source\PSoC5/cyfitter_cfg.c **** 			{0x0Au, 0x50u},
 893:Generated_Source\PSoC5/cyfitter_cfg.c **** 			{0x0Eu, 0x8Au},
 894:Generated_Source\PSoC5/cyfitter_cfg.c **** 			{0x0Fu, 0x20u},
 895:Generated_Source\PSoC5/cyfitter_cfg.c **** 			{0x13u, 0x24u},
 896:Generated_Source\PSoC5/cyfitter_cfg.c **** 			{0x17u, 0x04u},
 897:Generated_Source\PSoC5/cyfitter_cfg.c **** 			{0x18u, 0x08u},
 898:Generated_Source\PSoC5/cyfitter_cfg.c **** 			{0x19u, 0xA4u},
 899:Generated_Source\PSoC5/cyfitter_cfg.c **** 			{0x1Au, 0x74u},
 900:Generated_Source\PSoC5/cyfitter_cfg.c **** 			{0x1Bu, 0x89u},
 901:Generated_Source\PSoC5/cyfitter_cfg.c **** 			{0x1Du, 0x48u},
 902:Generated_Source\PSoC5/cyfitter_cfg.c **** 			{0x1Eu, 0x08u},
 903:Generated_Source\PSoC5/cyfitter_cfg.c **** 			{0x21u, 0x20u},
 904:Generated_Source\PSoC5/cyfitter_cfg.c **** 			{0x27u, 0x11u},
 905:Generated_Source\PSoC5/cyfitter_cfg.c **** 			{0x29u, 0x15u},
 906:Generated_Source\PSoC5/cyfitter_cfg.c **** 			{0x2Au, 0x80u},
 907:Generated_Source\PSoC5/cyfitter_cfg.c **** 			{0x2Bu, 0x01u},
 908:Generated_Source\PSoC5/cyfitter_cfg.c **** 			{0x30u, 0x0Au},
 909:Generated_Source\PSoC5/cyfitter_cfg.c **** 			{0x32u, 0x20u},
 910:Generated_Source\PSoC5/cyfitter_cfg.c **** 			{0x33u, 0x80u},
 911:Generated_Source\PSoC5/cyfitter_cfg.c **** 			{0x36u, 0x04u},
 912:Generated_Source\PSoC5/cyfitter_cfg.c **** 			{0x37u, 0x10u},
 913:Generated_Source\PSoC5/cyfitter_cfg.c **** 			{0x38u, 0x90u},
 914:Generated_Source\PSoC5/cyfitter_cfg.c **** 			{0x39u, 0x05u},
 915:Generated_Source\PSoC5/cyfitter_cfg.c **** 			{0x5Bu, 0x04u},
 916:Generated_Source\PSoC5/cyfitter_cfg.c **** 			{0x61u, 0x08u},
 917:Generated_Source\PSoC5/cyfitter_cfg.c **** 			{0x68u, 0x0Au},
 918:Generated_Source\PSoC5/cyfitter_cfg.c **** 			{0x69u, 0x05u},
 919:Generated_Source\PSoC5/cyfitter_cfg.c **** 			{0x6Bu, 0x20u},
 920:Generated_Source\PSoC5/cyfitter_cfg.c **** 			{0x70u, 0x40u},
 921:Generated_Source\PSoC5/cyfitter_cfg.c **** 			{0x71u, 0x90u},
 922:Generated_Source\PSoC5/cyfitter_cfg.c **** 			{0x73u, 0x04u},
 923:Generated_Source\PSoC5/cyfitter_cfg.c **** 			{0x79u, 0x40u},
 924:Generated_Source\PSoC5/cyfitter_cfg.c **** 			{0x7Du, 0x40u},
 925:Generated_Source\PSoC5/cyfitter_cfg.c **** 			{0x83u, 0x08u},
 926:Generated_Source\PSoC5/cyfitter_cfg.c **** 			{0x86u, 0x40u},
 927:Generated_Source\PSoC5/cyfitter_cfg.c **** 			{0x8Cu, 0x10u},
 928:Generated_Source\PSoC5/cyfitter_cfg.c **** 			{0x8Du, 0x01u},
 929:Generated_Source\PSoC5/cyfitter_cfg.c **** 			{0x90u, 0x10u},
 930:Generated_Source\PSoC5/cyfitter_cfg.c **** 			{0x93u, 0x08u},
 931:Generated_Source\PSoC5/cyfitter_cfg.c **** 			{0x94u, 0x08u},
 932:Generated_Source\PSoC5/cyfitter_cfg.c **** 			{0x95u, 0x01u},
 933:Generated_Source\PSoC5/cyfitter_cfg.c **** 			{0x96u, 0x24u},
 934:Generated_Source\PSoC5/cyfitter_cfg.c **** 			{0x9Bu, 0x02u},
 935:Generated_Source\PSoC5/cyfitter_cfg.c **** 			{0x9Eu, 0x80u},
 936:Generated_Source\PSoC5/cyfitter_cfg.c **** 			{0xA2u, 0x21u},
 937:Generated_Source\PSoC5/cyfitter_cfg.c **** 			{0xA3u, 0x10u},
 938:Generated_Source\PSoC5/cyfitter_cfg.c **** 			{0xA4u, 0x08u},
 939:Generated_Source\PSoC5/cyfitter_cfg.c **** 			{0xA7u, 0x8Au},
 940:Generated_Source\PSoC5/cyfitter_cfg.c **** 			{0xA8u, 0x80u},
 941:Generated_Source\PSoC5/cyfitter_cfg.c **** 			{0xB5u, 0x04u},
 942:Generated_Source\PSoC5/cyfitter_cfg.c **** 			{0xB6u, 0x20u},
 943:Generated_Source\PSoC5/cyfitter_cfg.c **** 			{0xC0u, 0xCBu},
 944:Generated_Source\PSoC5/cyfitter_cfg.c **** 			{0xC2u, 0xFFu},
 945:Generated_Source\PSoC5/cyfitter_cfg.c **** 			{0xC4u, 0x26u},
 946:Generated_Source\PSoC5/cyfitter_cfg.c **** 			{0xCAu, 0x0Fu},
 947:Generated_Source\PSoC5/cyfitter_cfg.c **** 			{0xCCu, 0x6Fu},
ARM GAS  C:\Users\oars0\AppData\Local\Temp\cc7aWiR5.s 			page 29


 948:Generated_Source\PSoC5/cyfitter_cfg.c **** 			{0xCEu, 0x0Fu},
 949:Generated_Source\PSoC5/cyfitter_cfg.c **** 			{0xD6u, 0x02u},
 950:Generated_Source\PSoC5/cyfitter_cfg.c **** 			{0xD8u, 0x02u},
 951:Generated_Source\PSoC5/cyfitter_cfg.c **** 			{0xDEu, 0x18u},
 952:Generated_Source\PSoC5/cyfitter_cfg.c **** 			{0xE6u, 0x02u},
 953:Generated_Source\PSoC5/cyfitter_cfg.c **** 			{0xEEu, 0x01u},
 954:Generated_Source\PSoC5/cyfitter_cfg.c **** 			{0x54u, 0x01u},
 955:Generated_Source\PSoC5/cyfitter_cfg.c **** 			{0x58u, 0x04u},
 956:Generated_Source\PSoC5/cyfitter_cfg.c **** 			{0x59u, 0x04u},
 957:Generated_Source\PSoC5/cyfitter_cfg.c **** 			{0x5Bu, 0x0Du},
 958:Generated_Source\PSoC5/cyfitter_cfg.c **** 			{0x5Fu, 0x01u},
 959:Generated_Source\PSoC5/cyfitter_cfg.c **** 			{0xD8u, 0x04u},
 960:Generated_Source\PSoC5/cyfitter_cfg.c **** 			{0xD9u, 0x04u},
 961:Generated_Source\PSoC5/cyfitter_cfg.c **** 			{0xDFu, 0x01u},
 962:Generated_Source\PSoC5/cyfitter_cfg.c **** 			{0x01u, 0x20u},
 963:Generated_Source\PSoC5/cyfitter_cfg.c **** 			{0x07u, 0x4Au},
 964:Generated_Source\PSoC5/cyfitter_cfg.c **** 			{0x08u, 0x24u},
 965:Generated_Source\PSoC5/cyfitter_cfg.c **** 			{0x09u, 0x81u},
 966:Generated_Source\PSoC5/cyfitter_cfg.c **** 			{0x0Fu, 0x20u},
 967:Generated_Source\PSoC5/cyfitter_cfg.c **** 			{0x10u, 0x02u},
 968:Generated_Source\PSoC5/cyfitter_cfg.c **** 			{0x13u, 0x02u},
 969:Generated_Source\PSoC5/cyfitter_cfg.c **** 			{0x14u, 0x84u},
 970:Generated_Source\PSoC5/cyfitter_cfg.c **** 			{0x16u, 0x20u},
 971:Generated_Source\PSoC5/cyfitter_cfg.c **** 			{0x28u, 0x80u},
 972:Generated_Source\PSoC5/cyfitter_cfg.c **** 			{0x29u, 0x64u},
 973:Generated_Source\PSoC5/cyfitter_cfg.c **** 			{0x2Du, 0x01u},
 974:Generated_Source\PSoC5/cyfitter_cfg.c **** 			{0x2Fu, 0x08u},
 975:Generated_Source\PSoC5/cyfitter_cfg.c **** 			{0x32u, 0x40u},
 976:Generated_Source\PSoC5/cyfitter_cfg.c **** 			{0x35u, 0x20u},
 977:Generated_Source\PSoC5/cyfitter_cfg.c **** 			{0x37u, 0x0Au},
 978:Generated_Source\PSoC5/cyfitter_cfg.c **** 			{0x38u, 0x20u},
 979:Generated_Source\PSoC5/cyfitter_cfg.c **** 			{0x39u, 0x01u},
 980:Generated_Source\PSoC5/cyfitter_cfg.c **** 			{0x3Du, 0x02u},
 981:Generated_Source\PSoC5/cyfitter_cfg.c **** 			{0x3Eu, 0x20u},
 982:Generated_Source\PSoC5/cyfitter_cfg.c **** 			{0x5Fu, 0x80u},
 983:Generated_Source\PSoC5/cyfitter_cfg.c **** 			{0x7Eu, 0x04u},
 984:Generated_Source\PSoC5/cyfitter_cfg.c **** 			{0x8Cu, 0x92u},
 985:Generated_Source\PSoC5/cyfitter_cfg.c **** 			{0x8Du, 0x01u},
 986:Generated_Source\PSoC5/cyfitter_cfg.c **** 			{0x8Eu, 0x20u},
 987:Generated_Source\PSoC5/cyfitter_cfg.c **** 			{0x92u, 0x80u},
 988:Generated_Source\PSoC5/cyfitter_cfg.c **** 			{0x9Bu, 0x02u},
 989:Generated_Source\PSoC5/cyfitter_cfg.c **** 			{0xB6u, 0x40u},
 990:Generated_Source\PSoC5/cyfitter_cfg.c **** 			{0xB7u, 0x02u},
 991:Generated_Source\PSoC5/cyfitter_cfg.c **** 			{0xC0u, 0xD2u},
 992:Generated_Source\PSoC5/cyfitter_cfg.c **** 			{0xC2u, 0x2Fu},
 993:Generated_Source\PSoC5/cyfitter_cfg.c **** 			{0xC4u, 0x79u},
 994:Generated_Source\PSoC5/cyfitter_cfg.c **** 			{0xCAu, 0xAFu},
 995:Generated_Source\PSoC5/cyfitter_cfg.c **** 			{0xCCu, 0xE8u},
 996:Generated_Source\PSoC5/cyfitter_cfg.c **** 			{0xCEu, 0xA5u},
 997:Generated_Source\PSoC5/cyfitter_cfg.c **** 			{0xD6u, 0x10u},
 998:Generated_Source\PSoC5/cyfitter_cfg.c **** 			{0xDEu, 0x20u},
 999:Generated_Source\PSoC5/cyfitter_cfg.c **** 			{0xE0u, 0x10u},
1000:Generated_Source\PSoC5/cyfitter_cfg.c **** 			{0xE4u, 0x40u},
1001:Generated_Source\PSoC5/cyfitter_cfg.c **** 			{0xE6u, 0x02u},
1002:Generated_Source\PSoC5/cyfitter_cfg.c **** 			{0xE8u, 0x10u},
1003:Generated_Source\PSoC5/cyfitter_cfg.c **** 			{0xEEu, 0x01u},
1004:Generated_Source\PSoC5/cyfitter_cfg.c **** 			{0xE0u, 0x40u},
ARM GAS  C:\Users\oars0\AppData\Local\Temp\cc7aWiR5.s 			page 30


1005:Generated_Source\PSoC5/cyfitter_cfg.c **** 			{0x58u, 0x04u},
1006:Generated_Source\PSoC5/cyfitter_cfg.c **** 			{0x59u, 0x04u},
1007:Generated_Source\PSoC5/cyfitter_cfg.c **** 			{0x5Fu, 0x01u},
1008:Generated_Source\PSoC5/cyfitter_cfg.c **** 			{0x86u, 0x01u},
1009:Generated_Source\PSoC5/cyfitter_cfg.c **** 			{0x89u, 0x01u},
1010:Generated_Source\PSoC5/cyfitter_cfg.c **** 			{0x8Au, 0x01u},
1011:Generated_Source\PSoC5/cyfitter_cfg.c **** 			{0x8Cu, 0x01u},
1012:Generated_Source\PSoC5/cyfitter_cfg.c **** 			{0x90u, 0x01u},
1013:Generated_Source\PSoC5/cyfitter_cfg.c **** 			{0x91u, 0x01u},
1014:Generated_Source\PSoC5/cyfitter_cfg.c **** 			{0x95u, 0x01u},
1015:Generated_Source\PSoC5/cyfitter_cfg.c **** 			{0x98u, 0x01u},
1016:Generated_Source\PSoC5/cyfitter_cfg.c **** 			{0x99u, 0x01u},
1017:Generated_Source\PSoC5/cyfitter_cfg.c **** 			{0xA1u, 0x01u},
1018:Generated_Source\PSoC5/cyfitter_cfg.c **** 			{0xA4u, 0x01u},
1019:Generated_Source\PSoC5/cyfitter_cfg.c **** 			{0xA8u, 0x01u},
1020:Generated_Source\PSoC5/cyfitter_cfg.c **** 			{0xABu, 0x01u},
1021:Generated_Source\PSoC5/cyfitter_cfg.c **** 			{0xADu, 0x01u},
1022:Generated_Source\PSoC5/cyfitter_cfg.c **** 			{0xB4u, 0x01u},
1023:Generated_Source\PSoC5/cyfitter_cfg.c **** 			{0xB5u, 0x01u},
1024:Generated_Source\PSoC5/cyfitter_cfg.c **** 			{0xD6u, 0x08u},
1025:Generated_Source\PSoC5/cyfitter_cfg.c **** 			{0xD8u, 0x04u},
1026:Generated_Source\PSoC5/cyfitter_cfg.c **** 			{0xD9u, 0x04u},
1027:Generated_Source\PSoC5/cyfitter_cfg.c **** 			{0xDBu, 0x04u},
1028:Generated_Source\PSoC5/cyfitter_cfg.c **** 			{0xDDu, 0x90u},
1029:Generated_Source\PSoC5/cyfitter_cfg.c **** 			{0xDFu, 0x01u},
1030:Generated_Source\PSoC5/cyfitter_cfg.c **** 			{0x01u, 0xA2u},
1031:Generated_Source\PSoC5/cyfitter_cfg.c **** 			{0x05u, 0xA0u},
1032:Generated_Source\PSoC5/cyfitter_cfg.c **** 			{0x07u, 0x10u},
1033:Generated_Source\PSoC5/cyfitter_cfg.c **** 			{0x08u, 0x10u},
1034:Generated_Source\PSoC5/cyfitter_cfg.c **** 			{0x0Au, 0x40u},
1035:Generated_Source\PSoC5/cyfitter_cfg.c **** 			{0x0Cu, 0x11u},
1036:Generated_Source\PSoC5/cyfitter_cfg.c **** 			{0x0Eu, 0x40u},
1037:Generated_Source\PSoC5/cyfitter_cfg.c **** 			{0x11u, 0x10u},
1038:Generated_Source\PSoC5/cyfitter_cfg.c **** 			{0x12u, 0x30u},
1039:Generated_Source\PSoC5/cyfitter_cfg.c **** 			{0x15u, 0x10u},
1040:Generated_Source\PSoC5/cyfitter_cfg.c **** 			{0x16u, 0x10u},
1041:Generated_Source\PSoC5/cyfitter_cfg.c **** 			{0x1Eu, 0x04u},
1042:Generated_Source\PSoC5/cyfitter_cfg.c **** 			{0x25u, 0x20u},
1043:Generated_Source\PSoC5/cyfitter_cfg.c **** 			{0x28u, 0x11u},
1044:Generated_Source\PSoC5/cyfitter_cfg.c **** 			{0x29u, 0x26u},
1045:Generated_Source\PSoC5/cyfitter_cfg.c **** 			{0x2Du, 0x20u},
1046:Generated_Source\PSoC5/cyfitter_cfg.c **** 			{0x2Eu, 0x40u},
1047:Generated_Source\PSoC5/cyfitter_cfg.c **** 			{0x2Fu, 0x80u},
1048:Generated_Source\PSoC5/cyfitter_cfg.c **** 			{0x32u, 0x20u},
1049:Generated_Source\PSoC5/cyfitter_cfg.c **** 			{0x33u, 0x80u},
1050:Generated_Source\PSoC5/cyfitter_cfg.c **** 			{0x35u, 0x06u},
1051:Generated_Source\PSoC5/cyfitter_cfg.c **** 			{0x36u, 0x20u},
1052:Generated_Source\PSoC5/cyfitter_cfg.c **** 			{0x39u, 0x10u},
1053:Generated_Source\PSoC5/cyfitter_cfg.c **** 			{0x3Du, 0x10u},
1054:Generated_Source\PSoC5/cyfitter_cfg.c **** 			{0x5Eu, 0x80u},
1055:Generated_Source\PSoC5/cyfitter_cfg.c **** 			{0x5Fu, 0x28u},
1056:Generated_Source\PSoC5/cyfitter_cfg.c **** 			{0x66u, 0x04u},
1057:Generated_Source\PSoC5/cyfitter_cfg.c **** 			{0x86u, 0x44u},
1058:Generated_Source\PSoC5/cyfitter_cfg.c **** 			{0x8Du, 0x20u},
1059:Generated_Source\PSoC5/cyfitter_cfg.c **** 			{0x91u, 0x10u},
1060:Generated_Source\PSoC5/cyfitter_cfg.c **** 			{0x92u, 0x40u},
1061:Generated_Source\PSoC5/cyfitter_cfg.c **** 			{0x99u, 0xA6u},
ARM GAS  C:\Users\oars0\AppData\Local\Temp\cc7aWiR5.s 			page 31


1062:Generated_Source\PSoC5/cyfitter_cfg.c **** 			{0x9Bu, 0x38u},
1063:Generated_Source\PSoC5/cyfitter_cfg.c **** 			{0x9Eu, 0x04u},
1064:Generated_Source\PSoC5/cyfitter_cfg.c **** 			{0xA2u, 0x20u},
1065:Generated_Source\PSoC5/cyfitter_cfg.c **** 			{0xA3u, 0x80u},
1066:Generated_Source\PSoC5/cyfitter_cfg.c **** 			{0xB5u, 0x01u},
1067:Generated_Source\PSoC5/cyfitter_cfg.c **** 			{0xB7u, 0x10u},
1068:Generated_Source\PSoC5/cyfitter_cfg.c **** 			{0xC0u, 0xEBu},
1069:Generated_Source\PSoC5/cyfitter_cfg.c **** 			{0xC2u, 0x5Au},
1070:Generated_Source\PSoC5/cyfitter_cfg.c **** 			{0xC4u, 0x66u},
1071:Generated_Source\PSoC5/cyfitter_cfg.c **** 			{0xCAu, 0xBFu},
1072:Generated_Source\PSoC5/cyfitter_cfg.c **** 			{0xCCu, 0xECu},
1073:Generated_Source\PSoC5/cyfitter_cfg.c **** 			{0xCEu, 0x24u},
1074:Generated_Source\PSoC5/cyfitter_cfg.c **** 			{0xD6u, 0x70u},
1075:Generated_Source\PSoC5/cyfitter_cfg.c **** 			{0xD8u, 0x40u},
1076:Generated_Source\PSoC5/cyfitter_cfg.c **** 			{0xE4u, 0x01u},
1077:Generated_Source\PSoC5/cyfitter_cfg.c **** 			{0xE6u, 0x40u},
1078:Generated_Source\PSoC5/cyfitter_cfg.c **** 			{0xE8u, 0x10u},
1079:Generated_Source\PSoC5/cyfitter_cfg.c **** 			{0xEAu, 0x01u},
1080:Generated_Source\PSoC5/cyfitter_cfg.c **** 			{0xEEu, 0x06u},
1081:Generated_Source\PSoC5/cyfitter_cfg.c **** 			{0x54u, 0x18u},
1082:Generated_Source\PSoC5/cyfitter_cfg.c **** 			{0x58u, 0x04u},
1083:Generated_Source\PSoC5/cyfitter_cfg.c **** 			{0x59u, 0x04u},
1084:Generated_Source\PSoC5/cyfitter_cfg.c **** 			{0x5Bu, 0x04u},
1085:Generated_Source\PSoC5/cyfitter_cfg.c **** 			{0x5Du, 0x10u},
1086:Generated_Source\PSoC5/cyfitter_cfg.c **** 			{0x5Fu, 0x01u},
1087:Generated_Source\PSoC5/cyfitter_cfg.c **** 			{0xAEu, 0x01u},
1088:Generated_Source\PSoC5/cyfitter_cfg.c **** 			{0xB0u, 0x01u},
1089:Generated_Source\PSoC5/cyfitter_cfg.c **** 			{0xD2u, 0x03u},
1090:Generated_Source\PSoC5/cyfitter_cfg.c **** 			{0xD3u, 0x02u},
1091:Generated_Source\PSoC5/cyfitter_cfg.c **** 			{0xD8u, 0x04u},
1092:Generated_Source\PSoC5/cyfitter_cfg.c **** 			{0xD9u, 0x04u},
1093:Generated_Source\PSoC5/cyfitter_cfg.c **** 			{0xDBu, 0x04u},
1094:Generated_Source\PSoC5/cyfitter_cfg.c **** 			{0xDFu, 0x01u},
1095:Generated_Source\PSoC5/cyfitter_cfg.c **** 			{0x01u, 0x82u},
1096:Generated_Source\PSoC5/cyfitter_cfg.c **** 			{0x02u, 0x30u},
1097:Generated_Source\PSoC5/cyfitter_cfg.c **** 			{0x05u, 0xA2u},
1098:Generated_Source\PSoC5/cyfitter_cfg.c **** 			{0x06u, 0x10u},
1099:Generated_Source\PSoC5/cyfitter_cfg.c **** 			{0x0Au, 0x24u},
1100:Generated_Source\PSoC5/cyfitter_cfg.c **** 			{0x0Eu, 0x50u},
1101:Generated_Source\PSoC5/cyfitter_cfg.c **** 			{0x10u, 0x82u},
1102:Generated_Source\PSoC5/cyfitter_cfg.c **** 			{0x11u, 0x10u},
1103:Generated_Source\PSoC5/cyfitter_cfg.c **** 			{0x15u, 0x10u},
1104:Generated_Source\PSoC5/cyfitter_cfg.c **** 			{0x19u, 0x03u},
1105:Generated_Source\PSoC5/cyfitter_cfg.c **** 			{0x1Bu, 0x02u},
1106:Generated_Source\PSoC5/cyfitter_cfg.c **** 			{0x29u, 0x25u},
1107:Generated_Source\PSoC5/cyfitter_cfg.c **** 			{0x2Bu, 0x01u},
1108:Generated_Source\PSoC5/cyfitter_cfg.c **** 			{0x2Eu, 0x40u},
1109:Generated_Source\PSoC5/cyfitter_cfg.c **** 			{0x2Fu, 0x80u},
1110:Generated_Source\PSoC5/cyfitter_cfg.c **** 			{0x32u, 0x20u},
1111:Generated_Source\PSoC5/cyfitter_cfg.c **** 			{0x33u, 0x80u},
1112:Generated_Source\PSoC5/cyfitter_cfg.c **** 			{0x35u, 0x06u},
1113:Generated_Source\PSoC5/cyfitter_cfg.c **** 			{0x36u, 0x20u},
1114:Generated_Source\PSoC5/cyfitter_cfg.c **** 			{0x39u, 0x10u},
1115:Generated_Source\PSoC5/cyfitter_cfg.c **** 			{0x3Du, 0x10u},
1116:Generated_Source\PSoC5/cyfitter_cfg.c **** 			{0x3Eu, 0x04u},
1117:Generated_Source\PSoC5/cyfitter_cfg.c **** 			{0x5Fu, 0x02u},
1118:Generated_Source\PSoC5/cyfitter_cfg.c **** 			{0x65u, 0x40u},
ARM GAS  C:\Users\oars0\AppData\Local\Temp\cc7aWiR5.s 			page 32


1119:Generated_Source\PSoC5/cyfitter_cfg.c **** 			{0x67u, 0x08u},
1120:Generated_Source\PSoC5/cyfitter_cfg.c **** 			{0x68u, 0x01u},
1121:Generated_Source\PSoC5/cyfitter_cfg.c **** 			{0x69u, 0x40u},
1122:Generated_Source\PSoC5/cyfitter_cfg.c **** 			{0x6Bu, 0x04u},
1123:Generated_Source\PSoC5/cyfitter_cfg.c **** 			{0x80u, 0x80u},
1124:Generated_Source\PSoC5/cyfitter_cfg.c **** 			{0x82u, 0x40u},
1125:Generated_Source\PSoC5/cyfitter_cfg.c **** 			{0x88u, 0x01u},
1126:Generated_Source\PSoC5/cyfitter_cfg.c **** 			{0x8Fu, 0x20u},
1127:Generated_Source\PSoC5/cyfitter_cfg.c **** 			{0x91u, 0x10u},
1128:Generated_Source\PSoC5/cyfitter_cfg.c **** 			{0x92u, 0x74u},
1129:Generated_Source\PSoC5/cyfitter_cfg.c **** 			{0x93u, 0x08u},
1130:Generated_Source\PSoC5/cyfitter_cfg.c **** 			{0x95u, 0x40u},
1131:Generated_Source\PSoC5/cyfitter_cfg.c **** 			{0x99u, 0xE4u},
1132:Generated_Source\PSoC5/cyfitter_cfg.c **** 			{0x9Bu, 0x0Au},
1133:Generated_Source\PSoC5/cyfitter_cfg.c **** 			{0x9Du, 0x01u},
1134:Generated_Source\PSoC5/cyfitter_cfg.c **** 			{0x9Eu, 0x04u},
1135:Generated_Source\PSoC5/cyfitter_cfg.c **** 			{0x9Fu, 0x04u},
1136:Generated_Source\PSoC5/cyfitter_cfg.c **** 			{0xA0u, 0x02u},
1137:Generated_Source\PSoC5/cyfitter_cfg.c **** 			{0xA2u, 0x20u},
1138:Generated_Source\PSoC5/cyfitter_cfg.c **** 			{0xA3u, 0x81u},
1139:Generated_Source\PSoC5/cyfitter_cfg.c **** 			{0xA7u, 0x02u},
1140:Generated_Source\PSoC5/cyfitter_cfg.c **** 			{0xA9u, 0x04u},
1141:Generated_Source\PSoC5/cyfitter_cfg.c **** 			{0xAFu, 0x01u},
1142:Generated_Source\PSoC5/cyfitter_cfg.c **** 			{0xB1u, 0x80u},
1143:Generated_Source\PSoC5/cyfitter_cfg.c **** 			{0xB3u, 0x01u},
1144:Generated_Source\PSoC5/cyfitter_cfg.c **** 			{0xB4u, 0x04u},
1145:Generated_Source\PSoC5/cyfitter_cfg.c **** 			{0xC0u, 0xFDu},
1146:Generated_Source\PSoC5/cyfitter_cfg.c **** 			{0xC2u, 0x36u},
1147:Generated_Source\PSoC5/cyfitter_cfg.c **** 			{0xC4u, 0x4Bu},
1148:Generated_Source\PSoC5/cyfitter_cfg.c **** 			{0xCAu, 0x9Fu},
1149:Generated_Source\PSoC5/cyfitter_cfg.c **** 			{0xCCu, 0xECu},
1150:Generated_Source\PSoC5/cyfitter_cfg.c **** 			{0xCEu, 0x64u},
1151:Generated_Source\PSoC5/cyfitter_cfg.c **** 			{0xD6u, 0x80u},
1152:Generated_Source\PSoC5/cyfitter_cfg.c **** 			{0xD8u, 0x30u},
1153:Generated_Source\PSoC5/cyfitter_cfg.c **** 			{0xE0u, 0x04u},
1154:Generated_Source\PSoC5/cyfitter_cfg.c **** 			{0xE4u, 0x10u},
1155:Generated_Source\PSoC5/cyfitter_cfg.c **** 			{0xE6u, 0x80u},
1156:Generated_Source\PSoC5/cyfitter_cfg.c **** 			{0xECu, 0x09u},
1157:Generated_Source\PSoC5/cyfitter_cfg.c **** 			{0xEEu, 0x22u},
1158:Generated_Source\PSoC5/cyfitter_cfg.c **** 			{0x80u, 0x10u},
1159:Generated_Source\PSoC5/cyfitter_cfg.c **** 			{0x83u, 0x08u},
1160:Generated_Source\PSoC5/cyfitter_cfg.c **** 			{0x8Au, 0x04u},
1161:Generated_Source\PSoC5/cyfitter_cfg.c **** 			{0x91u, 0x01u},
1162:Generated_Source\PSoC5/cyfitter_cfg.c **** 			{0x92u, 0x80u},
1163:Generated_Source\PSoC5/cyfitter_cfg.c **** 			{0x96u, 0x08u},
1164:Generated_Source\PSoC5/cyfitter_cfg.c **** 			{0x99u, 0x04u},
1165:Generated_Source\PSoC5/cyfitter_cfg.c **** 			{0x9Bu, 0x40u},
1166:Generated_Source\PSoC5/cyfitter_cfg.c **** 			{0x9Fu, 0x08u},
1167:Generated_Source\PSoC5/cyfitter_cfg.c **** 			{0xA1u, 0x81u},
1168:Generated_Source\PSoC5/cyfitter_cfg.c **** 			{0xA3u, 0x10u},
1169:Generated_Source\PSoC5/cyfitter_cfg.c **** 			{0xA9u, 0x20u},
1170:Generated_Source\PSoC5/cyfitter_cfg.c **** 			{0xABu, 0x10u},
1171:Generated_Source\PSoC5/cyfitter_cfg.c **** 			{0xACu, 0x20u},
1172:Generated_Source\PSoC5/cyfitter_cfg.c **** 			{0xADu, 0x40u},
1173:Generated_Source\PSoC5/cyfitter_cfg.c **** 			{0xB0u, 0x04u},
1174:Generated_Source\PSoC5/cyfitter_cfg.c **** 			{0xB1u, 0x01u},
1175:Generated_Source\PSoC5/cyfitter_cfg.c **** 			{0xB3u, 0x80u},
ARM GAS  C:\Users\oars0\AppData\Local\Temp\cc7aWiR5.s 			page 33


1176:Generated_Source\PSoC5/cyfitter_cfg.c **** 			{0xB5u, 0x84u},
1177:Generated_Source\PSoC5/cyfitter_cfg.c **** 			{0xB7u, 0x48u},
1178:Generated_Source\PSoC5/cyfitter_cfg.c **** 			{0xE0u, 0x80u},
1179:Generated_Source\PSoC5/cyfitter_cfg.c **** 			{0xE4u, 0x10u},
1180:Generated_Source\PSoC5/cyfitter_cfg.c **** 			{0xE6u, 0x80u},
1181:Generated_Source\PSoC5/cyfitter_cfg.c **** 			{0xE8u, 0x10u},
1182:Generated_Source\PSoC5/cyfitter_cfg.c **** 			{0xECu, 0xA0u},
1183:Generated_Source\PSoC5/cyfitter_cfg.c **** 			{0xEEu, 0x02u},
1184:Generated_Source\PSoC5/cyfitter_cfg.c **** 			{0x58u, 0x04u},
1185:Generated_Source\PSoC5/cyfitter_cfg.c **** 			{0x59u, 0x04u},
1186:Generated_Source\PSoC5/cyfitter_cfg.c **** 			{0x5Fu, 0x01u},
1187:Generated_Source\PSoC5/cyfitter_cfg.c **** 			{0xD8u, 0x04u},
1188:Generated_Source\PSoC5/cyfitter_cfg.c **** 			{0xD9u, 0x04u},
1189:Generated_Source\PSoC5/cyfitter_cfg.c **** 			{0xDFu, 0x01u},
1190:Generated_Source\PSoC5/cyfitter_cfg.c **** 			{0x01u, 0x01u},
1191:Generated_Source\PSoC5/cyfitter_cfg.c **** 			{0x07u, 0x82u},
1192:Generated_Source\PSoC5/cyfitter_cfg.c **** 			{0x08u, 0x05u},
1193:Generated_Source\PSoC5/cyfitter_cfg.c **** 			{0x09u, 0x80u},
1194:Generated_Source\PSoC5/cyfitter_cfg.c **** 			{0x0Au, 0x80u},
1195:Generated_Source\PSoC5/cyfitter_cfg.c **** 			{0x0Cu, 0x04u},
1196:Generated_Source\PSoC5/cyfitter_cfg.c **** 			{0x0Fu, 0xA0u},
1197:Generated_Source\PSoC5/cyfitter_cfg.c **** 			{0x10u, 0x82u},
1198:Generated_Source\PSoC5/cyfitter_cfg.c **** 			{0x11u, 0x02u},
1199:Generated_Source\PSoC5/cyfitter_cfg.c **** 			{0x13u, 0x0Au},
1200:Generated_Source\PSoC5/cyfitter_cfg.c **** 			{0x15u, 0x01u},
1201:Generated_Source\PSoC5/cyfitter_cfg.c **** 			{0x17u, 0x48u},
1202:Generated_Source\PSoC5/cyfitter_cfg.c **** 			{0x28u, 0x01u},
1203:Generated_Source\PSoC5/cyfitter_cfg.c **** 			{0x2Bu, 0x10u},
1204:Generated_Source\PSoC5/cyfitter_cfg.c **** 			{0x2Du, 0x01u},
1205:Generated_Source\PSoC5/cyfitter_cfg.c **** 			{0x30u, 0x82u},
1206:Generated_Source\PSoC5/cyfitter_cfg.c **** 			{0x31u, 0x04u},
1207:Generated_Source\PSoC5/cyfitter_cfg.c **** 			{0x34u, 0x01u},
1208:Generated_Source\PSoC5/cyfitter_cfg.c **** 			{0x37u, 0x48u},
1209:Generated_Source\PSoC5/cyfitter_cfg.c **** 			{0x38u, 0x20u},
1210:Generated_Source\PSoC5/cyfitter_cfg.c **** 			{0x39u, 0x01u},
1211:Generated_Source\PSoC5/cyfitter_cfg.c **** 			{0x3Du, 0x02u},
1212:Generated_Source\PSoC5/cyfitter_cfg.c **** 			{0x3Fu, 0xA0u},
1213:Generated_Source\PSoC5/cyfitter_cfg.c **** 			{0x5Au, 0x80u},
1214:Generated_Source\PSoC5/cyfitter_cfg.c **** 			{0x5Bu, 0x80u},
1215:Generated_Source\PSoC5/cyfitter_cfg.c **** 			{0x90u, 0x20u},
1216:Generated_Source\PSoC5/cyfitter_cfg.c **** 			{0x91u, 0x01u},
1217:Generated_Source\PSoC5/cyfitter_cfg.c **** 			{0x92u, 0x80u},
1218:Generated_Source\PSoC5/cyfitter_cfg.c **** 			{0x99u, 0x04u},
1219:Generated_Source\PSoC5/cyfitter_cfg.c **** 			{0x9Bu, 0x48u},
1220:Generated_Source\PSoC5/cyfitter_cfg.c **** 			{0xA0u, 0x02u},
1221:Generated_Source\PSoC5/cyfitter_cfg.c **** 			{0xA1u, 0x81u},
1222:Generated_Source\PSoC5/cyfitter_cfg.c **** 			{0xA3u, 0x50u},
1223:Generated_Source\PSoC5/cyfitter_cfg.c **** 			{0xB4u, 0x02u},
1224:Generated_Source\PSoC5/cyfitter_cfg.c **** 			{0xB7u, 0x40u},
1225:Generated_Source\PSoC5/cyfitter_cfg.c **** 			{0xC0u, 0x98u},
1226:Generated_Source\PSoC5/cyfitter_cfg.c **** 			{0xC2u, 0x3Du},
1227:Generated_Source\PSoC5/cyfitter_cfg.c **** 			{0xC4u, 0xBDu},
1228:Generated_Source\PSoC5/cyfitter_cfg.c **** 			{0xCAu, 0x8Au},
1229:Generated_Source\PSoC5/cyfitter_cfg.c **** 			{0xCCu, 0xDBu},
1230:Generated_Source\PSoC5/cyfitter_cfg.c **** 			{0xCEu, 0xB5u},
1231:Generated_Source\PSoC5/cyfitter_cfg.c **** 			{0xE4u, 0x01u},
1232:Generated_Source\PSoC5/cyfitter_cfg.c **** 			{0xE8u, 0x10u},
ARM GAS  C:\Users\oars0\AppData\Local\Temp\cc7aWiR5.s 			page 34


1233:Generated_Source\PSoC5/cyfitter_cfg.c **** 			{0xEAu, 0x01u},
1234:Generated_Source\PSoC5/cyfitter_cfg.c **** 			{0xECu, 0x40u},
1235:Generated_Source\PSoC5/cyfitter_cfg.c **** 			{0xEEu, 0x06u},
1236:Generated_Source\PSoC5/cyfitter_cfg.c **** 			{0x10u, 0x80u},
1237:Generated_Source\PSoC5/cyfitter_cfg.c **** 			{0x16u, 0x80u},
1238:Generated_Source\PSoC5/cyfitter_cfg.c **** 			{0x30u, 0x20u},
1239:Generated_Source\PSoC5/cyfitter_cfg.c **** 			{0x36u, 0x40u},
1240:Generated_Source\PSoC5/cyfitter_cfg.c **** 			{0x3Bu, 0x02u},
1241:Generated_Source\PSoC5/cyfitter_cfg.c **** 			{0x3Eu, 0x80u},
1242:Generated_Source\PSoC5/cyfitter_cfg.c **** 			{0xC4u, 0x30u},
1243:Generated_Source\PSoC5/cyfitter_cfg.c **** 			{0xCCu, 0x30u},
1244:Generated_Source\PSoC5/cyfitter_cfg.c **** 			{0xCEu, 0x60u},
1245:Generated_Source\PSoC5/cyfitter_cfg.c **** 			{0x97u, 0x02u},
1246:Generated_Source\PSoC5/cyfitter_cfg.c **** 			{0xA0u, 0x80u},
1247:Generated_Source\PSoC5/cyfitter_cfg.c **** 			{0xA4u, 0x20u},
1248:Generated_Source\PSoC5/cyfitter_cfg.c **** 			{0xA6u, 0x40u},
1249:Generated_Source\PSoC5/cyfitter_cfg.c **** 			{0x3Eu, 0x10u},
1250:Generated_Source\PSoC5/cyfitter_cfg.c **** 			{0x97u, 0x02u},
1251:Generated_Source\PSoC5/cyfitter_cfg.c **** 			{0xA0u, 0x80u},
1252:Generated_Source\PSoC5/cyfitter_cfg.c **** 			{0xA4u, 0x20u},
1253:Generated_Source\PSoC5/cyfitter_cfg.c **** 			{0xA6u, 0x40u},
1254:Generated_Source\PSoC5/cyfitter_cfg.c **** 			{0xCEu, 0x20u},
1255:Generated_Source\PSoC5/cyfitter_cfg.c **** 			{0x80u, 0x80u},
1256:Generated_Source\PSoC5/cyfitter_cfg.c **** 			{0x96u, 0x10u},
1257:Generated_Source\PSoC5/cyfitter_cfg.c **** 			{0x97u, 0x02u},
1258:Generated_Source\PSoC5/cyfitter_cfg.c **** 			{0xA0u, 0x80u},
1259:Generated_Source\PSoC5/cyfitter_cfg.c **** 			{0xA4u, 0x20u},
1260:Generated_Source\PSoC5/cyfitter_cfg.c **** 			{0xA6u, 0x40u},
1261:Generated_Source\PSoC5/cyfitter_cfg.c **** 			{0xE0u, 0x20u},
1262:Generated_Source\PSoC5/cyfitter_cfg.c **** 			{0x7Cu, 0x40u},
1263:Generated_Source\PSoC5/cyfitter_cfg.c **** 			{0xDEu, 0x04u},
1264:Generated_Source\PSoC5/cyfitter_cfg.c **** 			{0x21u, 0x01u},
1265:Generated_Source\PSoC5/cyfitter_cfg.c **** 			{0x8Cu, 0x40u},
1266:Generated_Source\PSoC5/cyfitter_cfg.c **** 			{0x94u, 0x40u},
1267:Generated_Source\PSoC5/cyfitter_cfg.c **** 			{0xC8u, 0x02u},
1268:Generated_Source\PSoC5/cyfitter_cfg.c **** 			{0xE0u, 0x02u},
1269:Generated_Source\PSoC5/cyfitter_cfg.c **** 			{0x91u, 0x02u},
1270:Generated_Source\PSoC5/cyfitter_cfg.c **** 			{0x0Bu, 0x40u},
1271:Generated_Source\PSoC5/cyfitter_cfg.c **** 			{0x85u, 0x01u},
1272:Generated_Source\PSoC5/cyfitter_cfg.c **** 			{0x91u, 0x02u},
1273:Generated_Source\PSoC5/cyfitter_cfg.c **** 			{0xA5u, 0x01u},
1274:Generated_Source\PSoC5/cyfitter_cfg.c **** 			{0xA9u, 0x01u},
1275:Generated_Source\PSoC5/cyfitter_cfg.c **** 			{0xC2u, 0x08u},
1276:Generated_Source\PSoC5/cyfitter_cfg.c **** 			{0x24u, 0x08u},
1277:Generated_Source\PSoC5/cyfitter_cfg.c **** 			{0x8Bu, 0x02u},
1278:Generated_Source\PSoC5/cyfitter_cfg.c **** 			{0x8Fu, 0x04u},
1279:Generated_Source\PSoC5/cyfitter_cfg.c **** 			{0x96u, 0x10u},
1280:Generated_Source\PSoC5/cyfitter_cfg.c **** 			{0x97u, 0x02u},
1281:Generated_Source\PSoC5/cyfitter_cfg.c **** 			{0xAEu, 0x40u},
1282:Generated_Source\PSoC5/cyfitter_cfg.c **** 			{0xB0u, 0x20u},
1283:Generated_Source\PSoC5/cyfitter_cfg.c **** 			{0xC8u, 0x20u},
1284:Generated_Source\PSoC5/cyfitter_cfg.c **** 			{0xEEu, 0x40u},
1285:Generated_Source\PSoC5/cyfitter_cfg.c **** 			{0x12u, 0x20u},
1286:Generated_Source\PSoC5/cyfitter_cfg.c **** 			{0x17u, 0x04u},
1287:Generated_Source\PSoC5/cyfitter_cfg.c **** 			{0x52u, 0x02u},
1288:Generated_Source\PSoC5/cyfitter_cfg.c **** 			{0x56u, 0x20u},
1289:Generated_Source\PSoC5/cyfitter_cfg.c **** 			{0x7Bu, 0x02u},
ARM GAS  C:\Users\oars0\AppData\Local\Temp\cc7aWiR5.s 			page 35


1290:Generated_Source\PSoC5/cyfitter_cfg.c **** 			{0x7Eu, 0x01u},
1291:Generated_Source\PSoC5/cyfitter_cfg.c **** 			{0x82u, 0x20u},
1292:Generated_Source\PSoC5/cyfitter_cfg.c **** 			{0x86u, 0x22u},
1293:Generated_Source\PSoC5/cyfitter_cfg.c **** 			{0x8Eu, 0x20u},
1294:Generated_Source\PSoC5/cyfitter_cfg.c **** 			{0x92u, 0x02u},
1295:Generated_Source\PSoC5/cyfitter_cfg.c **** 			{0x9Fu, 0x04u},
1296:Generated_Source\PSoC5/cyfitter_cfg.c **** 			{0xA3u, 0x02u},
1297:Generated_Source\PSoC5/cyfitter_cfg.c **** 			{0xAAu, 0x10u},
1298:Generated_Source\PSoC5/cyfitter_cfg.c **** 			{0xABu, 0x01u},
1299:Generated_Source\PSoC5/cyfitter_cfg.c **** 			{0xAEu, 0x01u},
1300:Generated_Source\PSoC5/cyfitter_cfg.c **** 			{0xB4u, 0x04u},
1301:Generated_Source\PSoC5/cyfitter_cfg.c **** 			{0xC4u, 0x30u},
1302:Generated_Source\PSoC5/cyfitter_cfg.c **** 			{0xD4u, 0xC0u},
1303:Generated_Source\PSoC5/cyfitter_cfg.c **** 			{0xDCu, 0x80u},
1304:Generated_Source\PSoC5/cyfitter_cfg.c **** 			{0xDEu, 0x20u},
1305:Generated_Source\PSoC5/cyfitter_cfg.c **** 			{0xE2u, 0x40u},
1306:Generated_Source\PSoC5/cyfitter_cfg.c **** 			{0xE4u, 0xC0u},
1307:Generated_Source\PSoC5/cyfitter_cfg.c **** 			{0xEAu, 0x80u},
1308:Generated_Source\PSoC5/cyfitter_cfg.c **** 			{0xEEu, 0x60u},
1309:Generated_Source\PSoC5/cyfitter_cfg.c **** 			{0x13u, 0x28u},
1310:Generated_Source\PSoC5/cyfitter_cfg.c **** 			{0x15u, 0x02u},
1311:Generated_Source\PSoC5/cyfitter_cfg.c **** 			{0x1Fu, 0x80u},
1312:Generated_Source\PSoC5/cyfitter_cfg.c **** 			{0x34u, 0x02u},
1313:Generated_Source\PSoC5/cyfitter_cfg.c **** 			{0x7Bu, 0x10u},
1314:Generated_Source\PSoC5/cyfitter_cfg.c **** 			{0x7Du, 0x20u},
1315:Generated_Source\PSoC5/cyfitter_cfg.c **** 			{0x8Bu, 0x08u},
1316:Generated_Source\PSoC5/cyfitter_cfg.c **** 			{0x8Du, 0x10u},
1317:Generated_Source\PSoC5/cyfitter_cfg.c **** 			{0xA5u, 0x01u},
1318:Generated_Source\PSoC5/cyfitter_cfg.c **** 			{0xAFu, 0x40u},
1319:Generated_Source\PSoC5/cyfitter_cfg.c **** 			{0xC4u, 0x0Eu},
1320:Generated_Source\PSoC5/cyfitter_cfg.c **** 			{0xC6u, 0x01u},
1321:Generated_Source\PSoC5/cyfitter_cfg.c **** 			{0xCCu, 0x01u},
1322:Generated_Source\PSoC5/cyfitter_cfg.c **** 			{0xDEu, 0x03u},
1323:Generated_Source\PSoC5/cyfitter_cfg.c **** 			{0xE4u, 0x08u},
1324:Generated_Source\PSoC5/cyfitter_cfg.c **** 			{0xE6u, 0x01u},
1325:Generated_Source\PSoC5/cyfitter_cfg.c **** 			{0x11u, 0x02u},
1326:Generated_Source\PSoC5/cyfitter_cfg.c **** 			{0x83u, 0x10u},
1327:Generated_Source\PSoC5/cyfitter_cfg.c **** 			{0xA5u, 0x01u},
1328:Generated_Source\PSoC5/cyfitter_cfg.c **** 			{0xA7u, 0x10u},
1329:Generated_Source\PSoC5/cyfitter_cfg.c **** 			{0xABu, 0xA0u},
1330:Generated_Source\PSoC5/cyfitter_cfg.c **** 			{0xADu, 0x01u},
1331:Generated_Source\PSoC5/cyfitter_cfg.c **** 			{0xB4u, 0x02u},
1332:Generated_Source\PSoC5/cyfitter_cfg.c **** 			{0xC4u, 0x08u},
1333:Generated_Source\PSoC5/cyfitter_cfg.c **** 			{0xE8u, 0x08u},
1334:Generated_Source\PSoC5/cyfitter_cfg.c **** 			{0x00u, 0x03u},
1335:Generated_Source\PSoC5/cyfitter_cfg.c **** 			{0x01u, 0x01u},
1336:Generated_Source\PSoC5/cyfitter_cfg.c **** 			{0x08u, 0x03u},
1337:Generated_Source\PSoC5/cyfitter_cfg.c **** 			{0x0Au, 0x03u},
1338:Generated_Source\PSoC5/cyfitter_cfg.c **** 			{0x0Bu, 0x01u},
1339:Generated_Source\PSoC5/cyfitter_cfg.c **** 			{0x0Cu, 0x01u},
1340:Generated_Source\PSoC5/cyfitter_cfg.c **** 			{0x10u, 0x03u},
1341:Generated_Source\PSoC5/cyfitter_cfg.c **** 			{0x11u, 0x01u},
1342:Generated_Source\PSoC5/cyfitter_cfg.c **** 			{0x1Au, 0x03u},
1343:Generated_Source\PSoC5/cyfitter_cfg.c **** 			{0x1Bu, 0x01u},
1344:Generated_Source\PSoC5/cyfitter_cfg.c **** 			{0x1Cu, 0x01u},
1345:Generated_Source\PSoC5/cyfitter_cfg.c **** 			{0x00u, 0x0Bu},
1346:Generated_Source\PSoC5/cyfitter_cfg.c **** 			{0x03u, 0xC0u},
ARM GAS  C:\Users\oars0\AppData\Local\Temp\cc7aWiR5.s 			page 36


1347:Generated_Source\PSoC5/cyfitter_cfg.c **** 			{0x10u, 0x0Au},
1348:Generated_Source\PSoC5/cyfitter_cfg.c **** 		};
1349:Generated_Source\PSoC5/cyfitter_cfg.c **** 
1350:Generated_Source\PSoC5/cyfitter_cfg.c **** 
1351:Generated_Source\PSoC5/cyfitter_cfg.c **** 
1352:Generated_Source\PSoC5/cyfitter_cfg.c **** 		CYPACKED typedef struct {
1353:Generated_Source\PSoC5/cyfitter_cfg.c **** 			void CYFAR *address;
1354:Generated_Source\PSoC5/cyfitter_cfg.c **** 			uint16 size;
1355:Generated_Source\PSoC5/cyfitter_cfg.c **** 		} CYPACKED_ATTR cfg_memset_t;
1356:Generated_Source\PSoC5/cyfitter_cfg.c **** 
1357:Generated_Source\PSoC5/cyfitter_cfg.c **** 		static const cfg_memset_t CYCODE cfg_memset_list[] = {
1358:Generated_Source\PSoC5/cyfitter_cfg.c **** 			/* address, size */
1359:Generated_Source\PSoC5/cyfitter_cfg.c **** 			{(void CYFAR *)(CYREG_I2C_XCFG), 25u},
1360:Generated_Source\PSoC5/cyfitter_cfg.c **** 			{(void CYFAR *)(CYREG_PRT2_DR), 16u},
1361:Generated_Source\PSoC5/cyfitter_cfg.c **** 			{(void CYFAR *)(CYREG_PRT4_DR), 48u},
1362:Generated_Source\PSoC5/cyfitter_cfg.c **** 			{(void CYFAR *)(CYDEV_UCFG_B0_P0_U0_BASE), 4096u},
1363:Generated_Source\PSoC5/cyfitter_cfg.c **** 			{(void CYFAR *)(CYDEV_UCFG_B1_P2_U0_BASE), 2048u},
1364:Generated_Source\PSoC5/cyfitter_cfg.c **** 			{(void CYFAR *)(CYDEV_UCFG_DSI0_BASE), 2560u},
1365:Generated_Source\PSoC5/cyfitter_cfg.c **** 			{(void CYFAR *)(CYDEV_UCFG_DSI12_BASE), 512u},
1366:Generated_Source\PSoC5/cyfitter_cfg.c **** 			{(void CYFAR *)(CYREG_BCTL0_MDCLK_EN), 32u},
1367:Generated_Source\PSoC5/cyfitter_cfg.c **** 		};
1368:Generated_Source\PSoC5/cyfitter_cfg.c **** 
1369:Generated_Source\PSoC5/cyfitter_cfg.c **** 		uint8 CYDATA i;
1370:Generated_Source\PSoC5/cyfitter_cfg.c **** 
1371:Generated_Source\PSoC5/cyfitter_cfg.c **** 		/* Zero out critical memory blocks before beginning configuration */
1372:Generated_Source\PSoC5/cyfitter_cfg.c **** 		for (i = 0u; i < (sizeof(cfg_memset_list)/sizeof(cfg_memset_list[0])); i++)
 644              		.loc 1 1372 0
 645 0018 0023     		movs	r3, #0
 646 001a FB71     		strb	r3, [r7, #7]
 647 001c 13E0     		b	.L27
 648              	.L28:
 649              	.LBB4:
1373:Generated_Source\PSoC5/cyfitter_cfg.c **** 		{
1374:Generated_Source\PSoC5/cyfitter_cfg.c **** 			const cfg_memset_t CYCODE * CYDATA ms = &cfg_memset_list[i];
 650              		.loc 1 1374 0 discriminator 3
 651 001e FA79     		ldrb	r2, [r7, #7]	@ zero_extendqisi2
 652 0020 1346     		mov	r3, r2
 653 0022 5B00     		lsls	r3, r3, #1
 654 0024 1344     		add	r3, r3, r2
 655 0026 5B00     		lsls	r3, r3, #1
 656 0028 3A4A     		ldr	r2, .L29+4
 657 002a 1344     		add	r3, r3, r2
 658 002c 3B60     		str	r3, [r7]
1375:Generated_Source\PSoC5/cyfitter_cfg.c **** 			CYMEMZERO(ms->address, (size_t)(uint32)(ms->size));
 659              		.loc 1 1375 0 discriminator 3
 660 002e 3B68     		ldr	r3, [r7]
 661 0030 1A68     		ldr	r2, [r3]	@ unaligned
 662 0032 3B68     		ldr	r3, [r7]
 663 0034 9B88     		ldrh	r3, [r3, #4]	@ unaligned
 664 0036 9BB2     		uxth	r3, r3
 665 0038 1946     		mov	r1, r3
 666 003a 1046     		mov	r0, r2
 667 003c FFF7FEFF 		bl	CYMEMZERO
 668              	.LBE4:
1372:Generated_Source\PSoC5/cyfitter_cfg.c **** 		{
 669              		.loc 1 1372 0 discriminator 3
 670 0040 FB79     		ldrb	r3, [r7, #7]	@ zero_extendqisi2
ARM GAS  C:\Users\oars0\AppData\Local\Temp\cc7aWiR5.s 			page 37


 671 0042 0133     		adds	r3, r3, #1
 672 0044 FB71     		strb	r3, [r7, #7]
 673              	.L27:
1372:Generated_Source\PSoC5/cyfitter_cfg.c **** 		{
 674              		.loc 1 1372 0 is_stmt 0 discriminator 1
 675 0046 FB79     		ldrb	r3, [r7, #7]	@ zero_extendqisi2
 676 0048 072B     		cmp	r3, #7
 677 004a E8D9     		bls	.L28
1376:Generated_Source\PSoC5/cyfitter_cfg.c **** 		}
1377:Generated_Source\PSoC5/cyfitter_cfg.c **** 
1378:Generated_Source\PSoC5/cyfitter_cfg.c **** 		cfg_write_bytes32(cy_cfg_addr_table, cy_cfg_data_table);
 678              		.loc 1 1378 0 is_stmt 1
 679 004c 3249     		ldr	r1, .L29+8
 680 004e 3348     		ldr	r0, .L29+12
 681 0050 FFF7FEFF 		bl	cfg_write_bytes32
1379:Generated_Source\PSoC5/cyfitter_cfg.c **** 
1380:Generated_Source\PSoC5/cyfitter_cfg.c **** 		/* Perform normal device configuration. Order is not critical for these items. */
1381:Generated_Source\PSoC5/cyfitter_cfg.c **** 		CYMEMZERO((void CYFAR *)(CYREG_PHUB_CFGMEM0_CFG0), 4u);
 682              		.loc 1 1381 0
 683 0054 0421     		movs	r1, #4
 684 0056 3248     		ldr	r0, .L29+16
 685 0058 FFF7FEFF 		bl	CYMEMZERO
1382:Generated_Source\PSoC5/cyfitter_cfg.c **** 		CYCONFIGCPYCODE((void CYFAR *)(CYREG_PHUB_CFGMEM1_CFG0), (const void CYCODE *)(BS_PHUB_CFGMEM1_VA
 686              		.loc 1 1382 0
 687 005c 0422     		movs	r2, #4
 688 005e 3149     		ldr	r1, .L29+20
 689 0060 3148     		ldr	r0, .L29+24
 690 0062 FFF7FEFF 		bl	CYCONFIGCPYCODE
1383:Generated_Source\PSoC5/cyfitter_cfg.c **** 
1384:Generated_Source\PSoC5/cyfitter_cfg.c **** 		/* Enable digital routing */
1385:Generated_Source\PSoC5/cyfitter_cfg.c **** 		CY_SET_XTND_REG8((void CYFAR *)CYREG_BCTL0_BANK_CTL, CY_GET_XTND_REG8((void CYFAR *)CYREG_BCTL0_B
 691              		.loc 1 1385 0
 692 0066 314A     		ldr	r2, .L29+28
 693 0068 304B     		ldr	r3, .L29+28
 694 006a 1B78     		ldrb	r3, [r3]
 695 006c DBB2     		uxtb	r3, r3
 696 006e 43F00203 		orr	r3, r3, #2
 697 0072 DBB2     		uxtb	r3, r3
 698 0074 1370     		strb	r3, [r2]
1386:Generated_Source\PSoC5/cyfitter_cfg.c **** 		CY_SET_XTND_REG8((void CYFAR *)CYREG_BCTL1_BANK_CTL, CY_GET_XTND_REG8((void CYFAR *)CYREG_BCTL1_B
 699              		.loc 1 1386 0
 700 0076 2E4A     		ldr	r2, .L29+32
 701 0078 2D4B     		ldr	r3, .L29+32
 702 007a 1B78     		ldrb	r3, [r3]
 703 007c DBB2     		uxtb	r3, r3
 704 007e 43F00203 		orr	r3, r3, #2
 705 0082 DBB2     		uxtb	r3, r3
 706 0084 1370     		strb	r3, [r2]
1387:Generated_Source\PSoC5/cyfitter_cfg.c **** 
1388:Generated_Source\PSoC5/cyfitter_cfg.c **** 		/* Enable UDB array */
1389:Generated_Source\PSoC5/cyfitter_cfg.c **** 		CY_SET_XTND_REG8((void CYFAR *)CYREG_PM_ACT_CFG0, CY_GET_XTND_REG8((void CYFAR *)CYREG_PM_ACT_CFG
 707              		.loc 1 1389 0
 708 0086 2B4A     		ldr	r2, .L29+36
 709 0088 2A4B     		ldr	r3, .L29+36
 710 008a 1B78     		ldrb	r3, [r3]
 711 008c DBB2     		uxtb	r3, r3
 712 008e 43F04003 		orr	r3, r3, #64
ARM GAS  C:\Users\oars0\AppData\Local\Temp\cc7aWiR5.s 			page 38


 713 0092 DBB2     		uxtb	r3, r3
 714 0094 1370     		strb	r3, [r2]
1390:Generated_Source\PSoC5/cyfitter_cfg.c **** 		CY_SET_XTND_REG8((void CYFAR *)CYREG_PM_AVAIL_CR2, CY_GET_XTND_REG8((void CYFAR *)CYREG_PM_AVAIL_
 715              		.loc 1 1390 0
 716 0096 284A     		ldr	r2, .L29+40
 717 0098 274B     		ldr	r3, .L29+40
 718 009a 1B78     		ldrb	r3, [r3]
 719 009c DBB2     		uxtb	r3, r3
 720 009e 43F01003 		orr	r3, r3, #16
 721 00a2 DBB2     		uxtb	r3, r3
 722 00a4 1370     		strb	r3, [r2]
 723              	.LBE3:
1391:Generated_Source\PSoC5/cyfitter_cfg.c **** 	}
1392:Generated_Source\PSoC5/cyfitter_cfg.c **** 
1393:Generated_Source\PSoC5/cyfitter_cfg.c **** 
1394:Generated_Source\PSoC5/cyfitter_cfg.c **** 	/* Perform second pass device configuration. These items must be configured in specific order afte
1395:Generated_Source\PSoC5/cyfitter_cfg.c **** 	CYCONFIGCPYCODE((void CYFAR *)(CYREG_PRT0_DM0), (const void CYCODE *)(BS_IOPINS0_0_VAL), 8u);
 724              		.loc 1 1395 0
 725 00a6 0822     		movs	r2, #8
 726 00a8 2449     		ldr	r1, .L29+44
 727 00aa 2548     		ldr	r0, .L29+48
 728 00ac FFF7FEFF 		bl	CYCONFIGCPYCODE
1396:Generated_Source\PSoC5/cyfitter_cfg.c **** 	CYCONFIGCPYCODE((void CYFAR *)(CYREG_PRT12_DR), (const void CYCODE *)(BS_IOPINS0_7_VAL), 10u);
 729              		.loc 1 1396 0
 730 00b0 0A22     		movs	r2, #10
 731 00b2 2449     		ldr	r1, .L29+52
 732 00b4 2448     		ldr	r0, .L29+56
 733 00b6 FFF7FEFF 		bl	CYCONFIGCPYCODE
1397:Generated_Source\PSoC5/cyfitter_cfg.c **** 	CYCONFIGCPYCODE((void CYFAR *)(CYREG_PRT15_DR), (const void CYCODE *)(BS_IOPINS0_8_VAL), 10u);
 734              		.loc 1 1397 0
 735 00ba 0A22     		movs	r2, #10
 736 00bc 2349     		ldr	r1, .L29+60
 737 00be 2448     		ldr	r0, .L29+64
 738 00c0 FFF7FEFF 		bl	CYCONFIGCPYCODE
1398:Generated_Source\PSoC5/cyfitter_cfg.c **** 	CYCONFIGCPYCODE((void CYFAR *)(CYREG_PRT1_DM0), (const void CYCODE *)(BS_IOPINS0_1_VAL), 8u);
 739              		.loc 1 1398 0
 740 00c4 0822     		movs	r2, #8
 741 00c6 2349     		ldr	r1, .L29+68
 742 00c8 2348     		ldr	r0, .L29+72
 743 00ca FFF7FEFF 		bl	CYCONFIGCPYCODE
1399:Generated_Source\PSoC5/cyfitter_cfg.c **** 	CYCONFIGCPYCODE((void CYFAR *)(CYREG_PRT3_DR), (const void CYCODE *)(BS_IOPINS0_3_VAL), 10u);
 744              		.loc 1 1399 0
 745 00ce 0A22     		movs	r2, #10
 746 00d0 2249     		ldr	r1, .L29+76
 747 00d2 2348     		ldr	r0, .L29+80
 748 00d4 FFF7FEFF 		bl	CYCONFIGCPYCODE
1400:Generated_Source\PSoC5/cyfitter_cfg.c **** 	/* Switch Boost to the precision bandgap reference from its internal reference */
1401:Generated_Source\PSoC5/cyfitter_cfg.c **** 	CY_SET_REG8((void CYXDATA *)CYREG_BOOST_CR2, (CY_GET_REG8((void CYXDATA *)CYREG_BOOST_CR2) | 0x08u
 749              		.loc 1 1401 0
 750 00d8 224A     		ldr	r2, .L29+84
 751 00da 224B     		ldr	r3, .L29+84
 752 00dc 1B78     		ldrb	r3, [r3]
 753 00de DBB2     		uxtb	r3, r3
 754 00e0 43F00803 		orr	r3, r3, #8
 755 00e4 DBB2     		uxtb	r3, r3
 756 00e6 1370     		strb	r3, [r2]
1402:Generated_Source\PSoC5/cyfitter_cfg.c **** 
ARM GAS  C:\Users\oars0\AppData\Local\Temp\cc7aWiR5.s 			page 39


1403:Generated_Source\PSoC5/cyfitter_cfg.c **** 	/* Set Flash Cycles based on max possible frequency in case a glitch occurs during ClockSetup(). *
1404:Generated_Source\PSoC5/cyfitter_cfg.c **** 	CY_SET_XTND_REG8((void CYFAR *)(CYREG_CACHE_CC_CTL), (((CYDEV_INSTRUCT_CACHE_ENABLED) != 0) ? 0x61
 757              		.loc 1 1404 0
 758 00e8 1F4B     		ldr	r3, .L29+88
 759 00ea 6022     		movs	r2, #96
 760 00ec 1A70     		strb	r2, [r3]
1405:Generated_Source\PSoC5/cyfitter_cfg.c **** 	/* Setup clocks based on selections from Clock DWR */
1406:Generated_Source\PSoC5/cyfitter_cfg.c **** 	ClockSetup();
 761              		.loc 1 1406 0
 762 00ee FFF7FEFF 		bl	ClockSetup
1407:Generated_Source\PSoC5/cyfitter_cfg.c **** 	/* Set Flash Cycles based on newly configured 48.00MHz Bus Clock. */
1408:Generated_Source\PSoC5/cyfitter_cfg.c **** 	CY_SET_XTND_REG8((void CYFAR *)(CYREG_CACHE_CC_CTL), (((CYDEV_INSTRUCT_CACHE_ENABLED) != 0) ? 0xC1
 763              		.loc 1 1408 0
 764 00f2 1D4B     		ldr	r3, .L29+88
 765 00f4 C022     		movs	r2, #192
 766 00f6 1A70     		strb	r2, [r3]
1409:Generated_Source\PSoC5/cyfitter_cfg.c **** 
1410:Generated_Source\PSoC5/cyfitter_cfg.c **** 	/* Perform basic analog initialization to defaults */
1411:Generated_Source\PSoC5/cyfitter_cfg.c **** 	AnalogSetDefault();
 767              		.loc 1 1411 0
 768 00f8 FFF7FEFF 		bl	AnalogSetDefault
1412:Generated_Source\PSoC5/cyfitter_cfg.c **** 
1413:Generated_Source\PSoC5/cyfitter_cfg.c **** 	/* Configure alternate active mode */
1414:Generated_Source\PSoC5/cyfitter_cfg.c **** 	CYCONFIGCPY((void CYFAR *)CYDEV_PM_STBY_BASE, (const void CYFAR *)CYDEV_PM_ACT_BASE, 14u);
 769              		.loc 1 1414 0
 770 00fc 0E22     		movs	r2, #14
 771 00fe 0D49     		ldr	r1, .L29+36
 772 0100 1A48     		ldr	r0, .L29+92
 773 0102 FFF7FEFF 		bl	CYCONFIGCPY
1415:Generated_Source\PSoC5/cyfitter_cfg.c **** }
 774              		.loc 1 1415 0
 775 0106 00BF     		nop
 776 0108 0837     		adds	r7, r7, #8
 777              		.cfi_def_cfa_offset 8
 778 010a BD46     		mov	sp, r7
 779              		.cfi_def_cfa_register 13
 780              		@ sp needed
 781 010c 80BD     		pop	{r7, pc}
 782              	.L30:
 783 010e 00BF     		.align	2
 784              	.L29:
 785 0110 E8460040 		.word	1073759976
 786 0114 00000000 		.word	cfg_memset_list.5027
 787 0118 C4000000 		.word	cy_cfg_data_table.5022
 788 011c 30000000 		.word	cy_cfg_addr_table.5021
 789 0120 00760040 		.word	1073772032
 790 0124 F4070000 		.word	BS_PHUB_CFGMEM1_VAL.5020
 791 0128 08760040 		.word	1073772040
 792 012c 03500140 		.word	1073827843
 793 0130 13500140 		.word	1073827859
 794 0134 A0430040 		.word	1073759136
 795 0138 C2430040 		.word	1073759170
 796 013c F8070000 		.word	BS_IOPINS0_0_VAL.5015
 797 0140 02510040 		.word	1073762562
 798 0144 00080000 		.word	BS_IOPINS0_7_VAL.5016
 799 0148 C0510040 		.word	1073762752
 800 014c 0C080000 		.word	BS_IOPINS0_8_VAL.5017
ARM GAS  C:\Users\oars0\AppData\Local\Temp\cc7aWiR5.s 			page 40


 801 0150 F0510040 		.word	1073762800
 802 0154 18080000 		.word	BS_IOPINS0_1_VAL.5018
 803 0158 12510040 		.word	1073762578
 804 015c 20080000 		.word	BS_IOPINS0_3_VAL.5019
 805 0160 30510040 		.word	1073762608
 806 0164 22430040 		.word	1073759010
 807 0168 00480040 		.word	1073760256
 808 016c B0430040 		.word	1073759152
 809              		.cfi_endproc
 810              	.LFE8:
 811              		.size	cyfitter_cfg, .-cyfitter_cfg
 812              		.section	.rodata
 813              		.align	2
 814              		.type	cfg_memset_list.5027, %object
 815              		.size	cfg_memset_list.5027, 48
 816              	cfg_memset_list.5027:
 817 0000 C8490040 		.word	1073760712
 818 0004 1900     		.short	25
 819 0006 20510040 		.4byte	1073762592
 820 000a 1000     		.short	16
 821 000c 40510040 		.word	1073762624
 822 0010 3000     		.short	48
 823 0012 00000140 		.4byte	1073807360
 824 0016 0010     		.short	4096
 825 0018 00140140 		.word	1073812480
 826 001c 0008     		.short	2048
 827 001e 00400140 		.4byte	1073823744
 828 0022 000A     		.short	2560
 829 0024 004C0140 		.word	1073826816
 830 0028 0002     		.short	512
 831 002a 00500140 		.4byte	1073827840
 832 002e 2000     		.short	32
 833              		.align	2
 834              		.type	cy_cfg_addr_table.5021, %object
 835              		.size	cy_cfg_addr_table.5021, 148
 836              	cy_cfg_addr_table.5021:
 837 0030 01450040 		.word	1073759489
 838 0034 05520040 		.word	1073762821
 839 0038 015B0040 		.word	1073765121
 840 003c 03640040 		.word	1073767427
 841 0040 01650040 		.word	1073767681
 842 0044 52000140 		.word	1073807442
 843 0048 36010140 		.word	1073807670
 844 004c 3C020140 		.word	1073807932
 845 0050 3D030140 		.word	1073808189
 846 0054 42040140 		.word	1073808450
 847 0058 41050140 		.word	1073808705
 848 005c 3B060140 		.word	1073808955
 849 0060 43070140 		.word	1073809219
 850 0064 08080140 		.word	1073809416
 851 0068 2A090140 		.word	1073809706
 852 006c 010D0140 		.word	1073810689
 853 0070 19140140 		.word	1073812505
 854 0074 33150140 		.word	1073812787
 855 0078 0E160140 		.word	1073813006
 856 007c 3F170140 		.word	1073813311
 857 0080 1A190140 		.word	1073813786
ARM GAS  C:\Users\oars0\AppData\Local\Temp\cc7aWiR5.s 			page 41


 858 0084 061A0140 		.word	1073814022
 859 0088 2E1B0140 		.word	1073814318
 860 008c 09400140 		.word	1073823753
 861 0090 04410140 		.word	1073824004
 862 0094 06420140 		.word	1073824262
 863 0098 07430140 		.word	1073824519
 864 009c 02440140 		.word	1073824770
 865 00a0 05450140 		.word	1073825029
 866 00a4 01460140 		.word	1073825281
 867 00a8 06470140 		.word	1073825542
 868 00ac 09480140 		.word	1073825801
 869 00b0 18490140 		.word	1073826072
 870 00b4 104C0140 		.word	1073826832
 871 00b8 094D0140 		.word	1073827081
 872 00bc 0B500140 		.word	1073827851
 873 00c0 03510140 		.word	1073828099
 874              		.align	2
 875              		.type	cy_cfg_data_table.5022, %object
 876              		.size	cy_cfg_data_table.5022, 1838
 877              	cy_cfg_data_table.5022:
 878 00c4 7E       		.byte	126
 879 00c5 02       		.byte	2
 880 00c6 18       		.byte	24
 881 00c7 01       		.byte	1
 882 00c8 19       		.byte	25
 883 00c9 02       		.byte	2
 884 00ca 1C       		.byte	28
 885 00cb 04       		.byte	4
 886 00cc 60       		.byte	96
 887 00cd 82       		.byte	-126
 888 00ce 7C       		.byte	124
 889 00cf 40       		.byte	64
 890 00d0 2F       		.byte	47
 891 00d1 84       		.byte	-124
 892 00d2 81       		.byte	-127
 893 00d3 0F       		.byte	15
 894 00d4 82       		.byte	-126
 895 00d5 72       		.byte	114
 896 00d6 87       		.byte	-121
 897 00d7 01       		.byte	1
 898 00d8 86       		.byte	-122
 899 00d9 38       		.byte	56
 900 00da 00       		.byte	0
 901 00db 1C       		.byte	28
 902 00dc 01       		.byte	1
 903 00dd 01       		.byte	1
 904 00de 02       		.byte	2
 905 00df 22       		.byte	34
 906 00e0 03       		.byte	3
 907 00e1 0E       		.byte	14
 908 00e2 04       		.byte	4
 909 00e3 14       		.byte	20
 910 00e4 07       		.byte	7
 911 00e5 03       		.byte	3
 912 00e6 0C       		.byte	12
 913 00e7 09       		.byte	9
 914 00e8 0D       		.byte	13
ARM GAS  C:\Users\oars0\AppData\Local\Temp\cc7aWiR5.s 			page 42


 915 00e9 0C       		.byte	12
 916 00ea 0E       		.byte	14
 917 00eb 10       		.byte	16
 918 00ec 0F       		.byte	15
 919 00ed 03       		.byte	3
 920 00ee 15       		.byte	21
 921 00ef 01       		.byte	1
 922 00f0 17       		.byte	23
 923 00f1 06       		.byte	6
 924 00f2 1A       		.byte	26
 925 00f3 03       		.byte	3
 926 00f4 1C       		.byte	28
 927 00f5 2C       		.byte	44
 928 00f6 1E       		.byte	30
 929 00f7 11       		.byte	17
 930 00f8 20       		.byte	32
 931 00f9 10       		.byte	16
 932 00fa 23       		.byte	35
 933 00fb 08       		.byte	8
 934 00fc 24       		.byte	36
 935 00fd 40       		.byte	64
 936 00fe 28       		.byte	40
 937 00ff 30       		.byte	48
 938 0100 2A       		.byte	42
 939 0101 0C       		.byte	12
 940 0102 2F       		.byte	47
 941 0103 0C       		.byte	12
 942 0104 34       		.byte	52
 943 0105 1F       		.byte	31
 944 0106 36       		.byte	54
 945 0107 60       		.byte	96
 946 0108 37       		.byte	55
 947 0109 0F       		.byte	15
 948 010a 38       		.byte	56
 949 010b 80       		.byte	-128
 950 010c 3B       		.byte	59
 951 010d 80       		.byte	-128
 952 010e 58       		.byte	88
 953 010f 04       		.byte	4
 954 0110 59       		.byte	89
 955 0111 04       		.byte	4
 956 0112 5C       		.byte	92
 957 0113 11       		.byte	17
 958 0114 5F       		.byte	95
 959 0115 01       		.byte	1
 960 0116 80       		.byte	-128
 961 0117 43       		.byte	67
 962 0118 81       		.byte	-127
 963 0119 04       		.byte	4
 964 011a 82       		.byte	-126
 965 011b 34       		.byte	52
 966 011c 84       		.byte	-124
 967 011d 43       		.byte	67
 968 011e 86       		.byte	-122
 969 011f 1C       		.byte	28
 970 0120 87       		.byte	-121
 971 0121 01       		.byte	1
ARM GAS  C:\Users\oars0\AppData\Local\Temp\cc7aWiR5.s 			page 43


 972 0122 88       		.byte	-120
 973 0123 80       		.byte	-128
 974 0124 8B       		.byte	-117
 975 0125 04       		.byte	4
 976 0126 8D       		.byte	-115
 977 0127 04       		.byte	4
 978 0128 8E       		.byte	-114
 979 0129 20       		.byte	32
 980 012a 91       		.byte	-111
 981 012b 03       		.byte	3
 982 012c 95       		.byte	-107
 983 012d 03       		.byte	3
 984 012e 9D       		.byte	-99
 985 012f 02       		.byte	2
 986 0130 9E       		.byte	-98
 987 0131 28       		.byte	40
 988 0132 A0       		.byte	-96
 989 0133 03       		.byte	3
 990 0134 A2       		.byte	-94
 991 0135 44       		.byte	68
 992 0136 A7       		.byte	-89
 993 0137 04       		.byte	4
 994 0138 AA       		.byte	-86
 995 0139 55       		.byte	85
 996 013a AC       		.byte	-84
 997 013b 2A       		.byte	42
 998 013c AE       		.byte	-82
 999 013d 54       		.byte	84
 1000 013e B0       		.byte	-80
 1001 013f 40       		.byte	64
 1002 0140 B1       		.byte	-79
 1003 0141 04       		.byte	4
 1004 0142 B2       		.byte	-78
 1005 0143 0F       		.byte	15
 1006 0144 B3       		.byte	-77
 1007 0145 03       		.byte	3
 1008 0146 B4       		.byte	-76
 1009 0147 80       		.byte	-128
 1010 0148 B6       		.byte	-74
 1011 0149 38       		.byte	56
 1012 014a B9       		.byte	-71
 1013 014b 0A       		.byte	10
 1014 014c BA       		.byte	-70
 1015 014d 88       		.byte	-120
 1016 014e BE       		.byte	-66
 1017 014f 11       		.byte	17
 1018 0150 BF       		.byte	-65
 1019 0151 04       		.byte	4
 1020 0152 C0       		.byte	-64
 1021 0153 62       		.byte	98
 1022 0154 C1       		.byte	-63
 1023 0155 01       		.byte	1
 1024 0156 C6       		.byte	-58
 1025 0157 BC       		.byte	-68
 1026 0158 C7       		.byte	-57
 1027 0159 0E       		.byte	14
 1028 015a C8       		.byte	-56
ARM GAS  C:\Users\oars0\AppData\Local\Temp\cc7aWiR5.s 			page 44


 1029 015b 1C       		.byte	28
 1030 015c C9       		.byte	-55
 1031 015d FF       		.byte	-1
 1032 015e CA       		.byte	-54
 1033 015f FF       		.byte	-1
 1034 0160 CB       		.byte	-53
 1035 0161 FF       		.byte	-1
 1036 0162 CE       		.byte	-50
 1037 0163 F0       		.byte	-16
 1038 0164 CF       		.byte	-49
 1039 0165 44       		.byte	68
 1040 0166 D0       		.byte	-48
 1041 0167 0C       		.byte	12
 1042 0168 D4       		.byte	-44
 1043 0169 01       		.byte	1
 1044 016a D8       		.byte	-40
 1045 016b 04       		.byte	4
 1046 016c D9       		.byte	-39
 1047 016d 04       		.byte	4
 1048 016e DA       		.byte	-38
 1049 016f 04       		.byte	4
 1050 0170 DB       		.byte	-37
 1051 0171 04       		.byte	4
 1052 0172 DC       		.byte	-36
 1053 0173 11       		.byte	17
 1054 0174 DD       		.byte	-35
 1055 0175 11       		.byte	17
 1056 0176 DF       		.byte	-33
 1057 0177 01       		.byte	1
 1058 0178 E6       		.byte	-26
 1059 0179 C0       		.byte	-64
 1060 017a EA       		.byte	-22
 1061 017b 40       		.byte	64
 1062 017c EB       		.byte	-21
 1063 017d 02       		.byte	2
 1064 017e 01       		.byte	1
 1065 017f 80       		.byte	-128
 1066 0180 02       		.byte	2
 1067 0181 90       		.byte	-112
 1068 0182 04       		.byte	4
 1069 0183 01       		.byte	1
 1070 0184 05       		.byte	5
 1071 0185 04       		.byte	4
 1072 0186 06       		.byte	6
 1073 0187 04       		.byte	4
 1074 0188 07       		.byte	7
 1075 0189 02       		.byte	2
 1076 018a 09       		.byte	9
 1077 018b 80       		.byte	-128
 1078 018c 0A       		.byte	10
 1079 018d 04       		.byte	4
 1080 018e 0E       		.byte	14
 1081 018f 01       		.byte	1
 1082 0190 10       		.byte	16
 1083 0191 40       		.byte	64
 1084 0192 11       		.byte	17
 1085 0193 02       		.byte	2
ARM GAS  C:\Users\oars0\AppData\Local\Temp\cc7aWiR5.s 			page 45


 1086 0194 12       		.byte	18
 1087 0195 08       		.byte	8
 1088 0196 13       		.byte	19
 1089 0197 06       		.byte	6
 1090 0198 15       		.byte	21
 1091 0199 80       		.byte	-128
 1092 019a 16       		.byte	22
 1093 019b 88       		.byte	-120
 1094 019c 18       		.byte	24
 1095 019d 04       		.byte	4
 1096 019e 19       		.byte	25
 1097 019f 80       		.byte	-128
 1098 01a0 1A       		.byte	26
 1099 01a1 05       		.byte	5
 1100 01a2 1C       		.byte	28
 1101 01a3 01       		.byte	1
 1102 01a4 1D       		.byte	29
 1103 01a5 84       		.byte	-124
 1104 01a6 1E       		.byte	30
 1105 01a7 4A       		.byte	74
 1106 01a8 21       		.byte	33
 1107 01a9 40       		.byte	64
 1108 01aa 22       		.byte	34
 1109 01ab 80       		.byte	-128
 1110 01ac 24       		.byte	36
 1111 01ad 80       		.byte	-128
 1112 01ae 27       		.byte	39
 1113 01af 10       		.byte	16
 1114 01b0 28       		.byte	40
 1115 01b1 40       		.byte	64
 1116 01b2 29       		.byte	41
 1117 01b3 80       		.byte	-128
 1118 01b4 2F       		.byte	47
 1119 01b5 10       		.byte	16
 1120 01b6 31       		.byte	49
 1121 01b7 04       		.byte	4
 1122 01b8 35       		.byte	53
 1123 01b9 04       		.byte	4
 1124 01ba 36       		.byte	54
 1125 01bb 89       		.byte	-119
 1126 01bc 38       		.byte	56
 1127 01bd 01       		.byte	1
 1128 01be 39       		.byte	57
 1129 01bf 80       		.byte	-128
 1130 01c0 3B       		.byte	59
 1131 01c1 04       		.byte	4
 1132 01c2 3C       		.byte	60
 1133 01c3 A2       		.byte	-94
 1134 01c4 3E       		.byte	62
 1135 01c5 08       		.byte	8
 1136 01c6 3F       		.byte	63
 1137 01c7 04       		.byte	4
 1138 01c8 45       		.byte	69
 1139 01c9 80       		.byte	-128
 1140 01ca 46       		.byte	70
 1141 01cb 08       		.byte	8
 1142 01cc 4E       		.byte	78
ARM GAS  C:\Users\oars0\AppData\Local\Temp\cc7aWiR5.s 			page 46


 1143 01cd 08       		.byte	8
 1144 01ce 56       		.byte	86
 1145 01cf 94       		.byte	-108
 1146 01d0 5E       		.byte	94
 1147 01d1 48       		.byte	72
 1148 01d2 5F       		.byte	95
 1149 01d3 21       		.byte	33
 1150 01d4 8E       		.byte	-114
 1151 01d5 04       		.byte	4
 1152 01d6 8F       		.byte	-113
 1153 01d7 01       		.byte	1
 1154 01d8 C0       		.byte	-64
 1155 01d9 FD       		.byte	-3
 1156 01da C2       		.byte	-62
 1157 01db 83       		.byte	-125
 1158 01dc C4       		.byte	-60
 1159 01dd DE       		.byte	-34
 1160 01de CA       		.byte	-54
 1161 01df 49       		.byte	73
 1162 01e0 CC       		.byte	-52
 1163 01e1 D2       		.byte	-46
 1164 01e2 CE       		.byte	-50
 1165 01e3 FB       		.byte	-5
 1166 01e4 D0       		.byte	-48
 1167 01e5 30       		.byte	48
 1168 01e6 D2       		.byte	-46
 1169 01e7 20       		.byte	32
 1170 01e8 D6       		.byte	-42
 1171 01e9 F0       		.byte	-16
 1172 01ea 00       		.byte	0
 1173 01eb 01       		.byte	1
 1174 01ec 04       		.byte	4
 1175 01ed 0C       		.byte	12
 1176 01ee 05       		.byte	5
 1177 01ef 3F       		.byte	63
 1178 01f0 08       		.byte	8
 1179 01f1 03       		.byte	3
 1180 01f2 09       		.byte	9
 1181 01f3 3F       		.byte	63
 1182 01f4 0C       		.byte	12
 1183 01f5 42       		.byte	66
 1184 01f6 0D       		.byte	13
 1185 01f7 12       		.byte	18
 1186 01f8 0F       		.byte	15
 1187 01f9 21       		.byte	33
 1188 01fa 11       		.byte	17
 1189 01fb 08       		.byte	8
 1190 01fc 12       		.byte	18
 1191 01fd 40       		.byte	64
 1192 01fe 15       		.byte	21
 1193 01ff 01       		.byte	1
 1194 0200 16       		.byte	22
 1195 0201 B3       		.byte	-77
 1196 0202 17       		.byte	23
 1197 0203 06       		.byte	6
 1198 0204 18       		.byte	24
 1199 0205 4C       		.byte	76
ARM GAS  C:\Users\oars0\AppData\Local\Temp\cc7aWiR5.s 			page 47


 1200 0206 1A       		.byte	26
 1201 0207 A3       		.byte	-93
 1202 0208 1C       		.byte	28
 1203 0209 FF       		.byte	-1
 1204 020a 1D       		.byte	29
 1205 020b 24       		.byte	36
 1206 020c 1F       		.byte	31
 1207 020d 11       		.byte	17
 1208 020e 20       		.byte	32
 1209 020f F3       		.byte	-13
 1210 0210 22       		.byte	34
 1211 0211 0C       		.byte	12
 1212 0212 24       		.byte	36
 1213 0213 04       		.byte	4
 1214 0214 28       		.byte	40
 1215 0215 4F       		.byte	79
 1216 0216 2A       		.byte	42
 1217 0217 90       		.byte	-112
 1218 0218 2C       		.byte	44
 1219 0219 08       		.byte	8
 1220 021a 30       		.byte	48
 1221 021b 0F       		.byte	15
 1222 021c 31       		.byte	49
 1223 021d 30       		.byte	48
 1224 021e 32       		.byte	50
 1225 021f 8C       		.byte	-116
 1226 0220 33       		.byte	51
 1227 0221 08       		.byte	8
 1228 0222 34       		.byte	52
 1229 0223 7C       		.byte	124
 1230 0224 35       		.byte	53
 1231 0225 07       		.byte	7
 1232 0226 3A       		.byte	58
 1233 0227 2A       		.byte	42
 1234 0228 40       		.byte	64
 1235 0229 02       		.byte	2
 1236 022a 47       		.byte	71
 1237 022b 40       		.byte	64
 1238 022c 49       		.byte	73
 1239 022d FF       		.byte	-1
 1240 022e 4A       		.byte	74
 1241 022f 07       		.byte	7
 1242 0230 4B       		.byte	75
 1243 0231 FF       		.byte	-1
 1244 0232 4C       		.byte	76
 1245 0233 40       		.byte	64
 1246 0234 4D       		.byte	77
 1247 0235 20       		.byte	32
 1248 0236 4E       		.byte	78
 1249 0237 F0       		.byte	-16
 1250 0238 4F       		.byte	79
 1251 0239 05       		.byte	5
 1252 023a 50       		.byte	80
 1253 023b 08       		.byte	8
 1254 023c 56       		.byte	86
 1255 023d 02       		.byte	2
 1256 023e 57       		.byte	87
ARM GAS  C:\Users\oars0\AppData\Local\Temp\cc7aWiR5.s 			page 48


 1257 023f 11       		.byte	17
 1258 0240 58       		.byte	88
 1259 0241 04       		.byte	4
 1260 0242 59       		.byte	89
 1261 0243 04       		.byte	4
 1262 0244 5A       		.byte	90
 1263 0245 04       		.byte	4
 1264 0246 5B       		.byte	91
 1265 0247 04       		.byte	4
 1266 0248 5C       		.byte	92
 1267 0249 11       		.byte	17
 1268 024a 5D       		.byte	93
 1269 024b 11       		.byte	17
 1270 024c 5F       		.byte	95
 1271 024d 01       		.byte	1
 1272 024e 60       		.byte	96
 1273 024f 40       		.byte	64
 1274 0250 61       		.byte	97
 1275 0251 A8       		.byte	-88
 1276 0252 62       		.byte	98
 1277 0253 40       		.byte	64
 1278 0254 63       		.byte	99
 1279 0255 20       		.byte	32
 1280 0256 84       		.byte	-124
 1281 0257 01       		.byte	1
 1282 0258 B0       		.byte	-80
 1283 0259 01       		.byte	1
 1284 025a BE       		.byte	-66
 1285 025b 01       		.byte	1
 1286 025c D8       		.byte	-40
 1287 025d 04       		.byte	4
 1288 025e D9       		.byte	-39
 1289 025f 04       		.byte	4
 1290 0260 DF       		.byte	-33
 1291 0261 01       		.byte	1
 1292 0262 00       		.byte	0
 1293 0263 14       		.byte	20
 1294 0264 01       		.byte	1
 1295 0265 40       		.byte	64
 1296 0266 05       		.byte	5
 1297 0267 48       		.byte	72
 1298 0268 07       		.byte	7
 1299 0269 48       		.byte	72
 1300 026a 0A       		.byte	10
 1301 026b 24       		.byte	36
 1302 026c 0D       		.byte	13
 1303 026d 88       		.byte	-120
 1304 026e 0E       		.byte	14
 1305 026f 48       		.byte	72
 1306 0270 10       		.byte	16
 1307 0271 81       		.byte	-127
 1308 0272 12       		.byte	18
 1309 0273 20       		.byte	32
 1310 0274 15       		.byte	21
 1311 0275 12       		.byte	18
 1312 0276 16       		.byte	22
 1313 0277 02       		.byte	2
ARM GAS  C:\Users\oars0\AppData\Local\Temp\cc7aWiR5.s 			page 49


 1314 0278 17       		.byte	23
 1315 0279 04       		.byte	4
 1316 027a 19       		.byte	25
 1317 027b 02       		.byte	2
 1318 027c 1C       		.byte	28
 1319 027d A0       		.byte	-96
 1320 027e 1D       		.byte	29
 1321 027f 02       		.byte	2
 1322 0280 1E       		.byte	30
 1323 0281 08       		.byte	8
 1324 0282 1F       		.byte	31
 1325 0283 10       		.byte	16
 1326 0284 24       		.byte	36
 1327 0285 40       		.byte	64
 1328 0286 25       		.byte	37
 1329 0287 08       		.byte	8
 1330 0288 26       		.byte	38
 1331 0289 08       		.byte	8
 1332 028a 27       		.byte	39
 1333 028b 48       		.byte	72
 1334 028c 28       		.byte	40
 1335 028d 01       		.byte	1
 1336 028e 29       		.byte	41
 1337 028f 04       		.byte	4
 1338 0290 2B       		.byte	43
 1339 0291 02       		.byte	2
 1340 0292 30       		.byte	48
 1341 0293 80       		.byte	-128
 1342 0294 32       		.byte	50
 1343 0295 10       		.byte	16
 1344 0296 33       		.byte	51
 1345 0297 80       		.byte	-128
 1346 0298 35       		.byte	53
 1347 0299 40       		.byte	64
 1348 029a 37       		.byte	55
 1349 029b 09       		.byte	9
 1350 029c 38       		.byte	56
 1351 029d 18       		.byte	24
 1352 029e 39       		.byte	57
 1353 029f 40       		.byte	64
 1354 02a0 3A       		.byte	58
 1355 02a1 80       		.byte	-128
 1356 02a2 3C       		.byte	60
 1357 02a3 40       		.byte	64
 1358 02a4 3D       		.byte	61
 1359 02a5 28       		.byte	40
 1360 02a6 41       		.byte	65
 1361 02a7 03       		.byte	3
 1362 02a8 47       		.byte	71
 1363 02a9 10       		.byte	16
 1364 02aa 4F       		.byte	79
 1365 02ab 04       		.byte	4
 1366 02ac 55       		.byte	85
 1367 02ad 01       		.byte	1
 1368 02ae 5E       		.byte	94
 1369 02af 20       		.byte	32
 1370 02b0 6D       		.byte	109
ARM GAS  C:\Users\oars0\AppData\Local\Temp\cc7aWiR5.s 			page 50


 1371 02b1 28       		.byte	40
 1372 02b2 6F       		.byte	111
 1373 02b3 01       		.byte	1
 1374 02b4 74       		.byte	116
 1375 02b5 04       		.byte	4
 1376 02b6 75       		.byte	117
 1377 02b7 28       		.byte	40
 1378 02b8 76       		.byte	118
 1379 02b9 02       		.byte	2
 1380 02ba 77       		.byte	119
 1381 02bb 04       		.byte	4
 1382 02bc 8D       		.byte	-115
 1383 02bd 02       		.byte	2
 1384 02be 90       		.byte	-112
 1385 02bf 84       		.byte	-124
 1386 02c0 97       		.byte	-105
 1387 02c1 24       		.byte	36
 1388 02c2 9B       		.byte	-101
 1389 02c3 10       		.byte	16
 1390 02c4 A4       		.byte	-92
 1391 02c5 51       		.byte	81
 1392 02c6 A5       		.byte	-91
 1393 02c7 01       		.byte	1
 1394 02c8 AA       		.byte	-86
 1395 02c9 80       		.byte	-128
 1396 02ca AB       		.byte	-85
 1397 02cb 20       		.byte	32
 1398 02cc C0       		.byte	-64
 1399 02cd F7       		.byte	-9
 1400 02ce C2       		.byte	-62
 1401 02cf F6       		.byte	-10
 1402 02d0 C4       		.byte	-60
 1403 02d1 FD       		.byte	-3
 1404 02d2 CA       		.byte	-54
 1405 02d3 0A       		.byte	10
 1406 02d4 CC       		.byte	-52
 1407 02d5 DC       		.byte	-36
 1408 02d6 CE       		.byte	-50
 1409 02d7 7E       		.byte	126
 1410 02d8 D0       		.byte	-48
 1411 02d9 20       		.byte	32
 1412 02da D6       		.byte	-42
 1413 02db 20       		.byte	32
 1414 02dc 02       		.byte	2
 1415 02dd 01       		.byte	1
 1416 02de 17       		.byte	23
 1417 02df 01       		.byte	1
 1418 02e0 32       		.byte	50
 1419 02e1 01       		.byte	1
 1420 02e2 35       		.byte	53
 1421 02e3 01       		.byte	1
 1422 02e4 58       		.byte	88
 1423 02e5 04       		.byte	4
 1424 02e6 59       		.byte	89
 1425 02e7 04       		.byte	4
 1426 02e8 5F       		.byte	95
 1427 02e9 01       		.byte	1
ARM GAS  C:\Users\oars0\AppData\Local\Temp\cc7aWiR5.s 			page 51


 1428 02ea 81       		.byte	-127
 1429 02eb 04       		.byte	4
 1430 02ec 85       		.byte	-123
 1431 02ed 06       		.byte	6
 1432 02ee 89       		.byte	-119
 1433 02ef 86       		.byte	-122
 1434 02f0 8B       		.byte	-117
 1435 02f1 61       		.byte	97
 1436 02f2 8D       		.byte	-115
 1437 02f3 E1       		.byte	-31
 1438 02f4 8E       		.byte	-114
 1439 02f5 02       		.byte	2
 1440 02f6 8F       		.byte	-113
 1441 02f7 06       		.byte	6
 1442 02f8 92       		.byte	-110
 1443 02f9 02       		.byte	2
 1444 02fa 95       		.byte	-107
 1445 02fb 60       		.byte	96
 1446 02fc 97       		.byte	-105
 1447 02fd 08       		.byte	8
 1448 02fe 99       		.byte	-103
 1449 02ff 02       		.byte	2
 1450 0300 9D       		.byte	-99
 1451 0301 20       		.byte	32
 1452 0302 9F       		.byte	-97
 1453 0303 10       		.byte	16
 1454 0304 A1       		.byte	-95
 1455 0305 E7       		.byte	-25
 1456 0306 A2       		.byte	-94
 1457 0307 01       		.byte	1
 1458 0308 A5       		.byte	-91
 1459 0309 87       		.byte	-121
 1460 030a A7       		.byte	-89
 1461 030b 60       		.byte	96
 1462 030c AB       		.byte	-85
 1463 030d 61       		.byte	97
 1464 030e AD       		.byte	-83
 1465 030f 40       		.byte	64
 1466 0310 AF       		.byte	-81
 1467 0311 10       		.byte	16
 1468 0312 B0       		.byte	-80
 1469 0313 01       		.byte	1
 1470 0314 B1       		.byte	-79
 1471 0315 07       		.byte	7
 1472 0316 B2       		.byte	-78
 1473 0317 02       		.byte	2
 1474 0318 B3       		.byte	-77
 1475 0319 18       		.byte	24
 1476 031a B5       		.byte	-75
 1477 031b 80       		.byte	-128
 1478 031c B7       		.byte	-73
 1479 031d 60       		.byte	96
 1480 031e BA       		.byte	-70
 1481 031f 80       		.byte	-128
 1482 0320 BE       		.byte	-66
 1483 0321 04       		.byte	4
 1484 0322 BF       		.byte	-65
ARM GAS  C:\Users\oars0\AppData\Local\Temp\cc7aWiR5.s 			page 52


 1485 0323 14       		.byte	20
 1486 0324 C0       		.byte	-64
 1487 0325 46       		.byte	70
 1488 0326 C1       		.byte	-63
 1489 0327 01       		.byte	1
 1490 0328 C2       		.byte	-62
 1491 0329 05       		.byte	5
 1492 032a C4       		.byte	-60
 1493 032b 02       		.byte	2
 1494 032c C6       		.byte	-58
 1495 032d CE       		.byte	-50
 1496 032e C8       		.byte	-56
 1497 032f 0C       		.byte	12
 1498 0330 C9       		.byte	-55
 1499 0331 FF       		.byte	-1
 1500 0332 CA       		.byte	-54
 1501 0333 FF       		.byte	-1
 1502 0334 CB       		.byte	-53
 1503 0335 FF       		.byte	-1
 1504 0336 CC       		.byte	-52
 1505 0337 62       		.byte	98
 1506 0338 CD       		.byte	-51
 1507 0339 A0       		.byte	-96
 1508 033a CE       		.byte	-50
 1509 033b F0       		.byte	-16
 1510 033c CF       		.byte	-49
 1511 033d 41       		.byte	65
 1512 033e D0       		.byte	-48
 1513 033f 0C       		.byte	12
 1514 0340 D6       		.byte	-42
 1515 0341 08       		.byte	8
 1516 0342 D8       		.byte	-40
 1517 0343 04       		.byte	4
 1518 0344 D9       		.byte	-39
 1519 0345 04       		.byte	4
 1520 0346 DA       		.byte	-38
 1521 0347 04       		.byte	4
 1522 0348 DB       		.byte	-37
 1523 0349 04       		.byte	4
 1524 034a DC       		.byte	-36
 1525 034b 11       		.byte	17
 1526 034c DD       		.byte	-35
 1527 034d 91       		.byte	-111
 1528 034e DF       		.byte	-33
 1529 034f 01       		.byte	1
 1530 0350 E6       		.byte	-26
 1531 0351 40       		.byte	64
 1532 0352 E7       		.byte	-25
 1533 0353 02       		.byte	2
 1534 0354 E9       		.byte	-23
 1535 0355 10       		.byte	16
 1536 0356 EA       		.byte	-22
 1537 0357 30       		.byte	48
 1538 0358 EB       		.byte	-21
 1539 0359 10       		.byte	16
 1540 035a ED       		.byte	-19
 1541 035b 10       		.byte	16
ARM GAS  C:\Users\oars0\AppData\Local\Temp\cc7aWiR5.s 			page 53


 1542 035c EE       		.byte	-18
 1543 035d 10       		.byte	16
 1544 035e EF       		.byte	-17
 1545 035f 12       		.byte	18
 1546 0360 00       		.byte	0
 1547 0361 50       		.byte	80
 1548 0362 01       		.byte	1
 1549 0363 01       		.byte	1
 1550 0364 04       		.byte	4
 1551 0365 80       		.byte	-128
 1552 0366 08       		.byte	8
 1553 0367 01       		.byte	1
 1554 0368 0A       		.byte	10
 1555 0369 24       		.byte	36
 1556 036a 0F       		.byte	15
 1557 036b 80       		.byte	-128
 1558 036c 10       		.byte	16
 1559 036d 44       		.byte	68
 1560 036e 12       		.byte	18
 1561 036f 28       		.byte	40
 1562 0370 16       		.byte	22
 1563 0371 40       		.byte	64
 1564 0372 18       		.byte	24
 1565 0373 10       		.byte	16
 1566 0374 1C       		.byte	28
 1567 0375 02       		.byte	2
 1568 0376 1D       		.byte	29
 1569 0377 80       		.byte	-128
 1570 0378 1E       		.byte	30
 1571 0379 40       		.byte	64
 1572 037a 1F       		.byte	31
 1573 037b 44       		.byte	68
 1574 037c 22       		.byte	34
 1575 037d 20       		.byte	32
 1576 037e 26       		.byte	38
 1577 037f 13       		.byte	19
 1578 0380 27       		.byte	39
 1579 0381 22       		.byte	34
 1580 0382 28       		.byte	40
 1581 0383 41       		.byte	65
 1582 0384 2B       		.byte	43
 1583 0385 8A       		.byte	-118
 1584 0386 2C       		.byte	44
 1585 0387 04       		.byte	4
 1586 0388 2F       		.byte	47
 1587 0389 51       		.byte	81
 1588 038a 30       		.byte	48
 1589 038b 08       		.byte	8
 1590 038c 32       		.byte	50
 1591 038d 20       		.byte	32
 1592 038e 35       		.byte	53
 1593 038f 20       		.byte	32
 1594 0390 37       		.byte	55
 1595 0391 48       		.byte	72
 1596 0392 38       		.byte	56
 1597 0393 58       		.byte	88
 1598 0394 3A       		.byte	58
ARM GAS  C:\Users\oars0\AppData\Local\Temp\cc7aWiR5.s 			page 54


 1599 0395 80       		.byte	-128
 1600 0396 3C       		.byte	60
 1601 0397 A8       		.byte	-88
 1602 0398 3D       		.byte	61
 1603 0399 10       		.byte	16
 1604 039a 3E       		.byte	62
 1605 039b 02       		.byte	2
 1606 039c 45       		.byte	69
 1607 039d 82       		.byte	-126
 1608 039e 47       		.byte	71
 1609 039f 20       		.byte	32
 1610 03a0 4E       		.byte	78
 1611 03a1 0A       		.byte	10
 1612 03a2 57       		.byte	87
 1613 03a3 50       		.byte	80
 1614 03a4 5C       		.byte	92
 1615 03a5 80       		.byte	-128
 1616 03a6 65       		.byte	101
 1617 03a7 40       		.byte	64
 1618 03a8 66       		.byte	102
 1619 03a9 40       		.byte	64
 1620 03aa 67       		.byte	103
 1621 03ab 02       		.byte	2
 1622 03ac 90       		.byte	-112
 1623 03ad 80       		.byte	-128
 1624 03ae 93       		.byte	-109
 1625 03af 20       		.byte	32
 1626 03b0 94       		.byte	-108
 1627 03b1 18       		.byte	24
 1628 03b2 95       		.byte	-107
 1629 03b3 10       		.byte	16
 1630 03b4 96       		.byte	-106
 1631 03b5 64       		.byte	100
 1632 03b6 99       		.byte	-103
 1633 03b7 20       		.byte	32
 1634 03b8 9A       		.byte	-102
 1635 03b9 02       		.byte	2
 1636 03ba 9B       		.byte	-101
 1637 03bb 48       		.byte	72
 1638 03bc 9D       		.byte	-99
 1639 03bd 44       		.byte	68
 1640 03be 9E       		.byte	-98
 1641 03bf 80       		.byte	-128
 1642 03c0 A0       		.byte	-96
 1643 03c1 54       		.byte	84
 1644 03c2 A1       		.byte	-95
 1645 03c3 02       		.byte	2
 1646 03c4 A2       		.byte	-94
 1647 03c5 08       		.byte	8
 1648 03c6 A4       		.byte	-92
 1649 03c7 01       		.byte	1
 1650 03c8 A5       		.byte	-91
 1651 03c9 80       		.byte	-128
 1652 03ca A6       		.byte	-90
 1653 03cb 30       		.byte	48
 1654 03cc A7       		.byte	-89
 1655 03cd 82       		.byte	-126
ARM GAS  C:\Users\oars0\AppData\Local\Temp\cc7aWiR5.s 			page 55


 1656 03ce C0       		.byte	-64
 1657 03cf 8B       		.byte	-117
 1658 03d0 C2       		.byte	-62
 1659 03d1 1E       		.byte	30
 1660 03d2 C4       		.byte	-60
 1661 03d3 1C       		.byte	28
 1662 03d4 CA       		.byte	-54
 1663 03d5 FD       		.byte	-3
 1664 03d6 CC       		.byte	-52
 1665 03d7 76       		.byte	118
 1666 03d8 CE       		.byte	-50
 1667 03d9 FE       		.byte	-2
 1668 03da D0       		.byte	-48
 1669 03db B0       		.byte	-80
 1670 03dc D2       		.byte	-46
 1671 03dd 30       		.byte	48
 1672 03de D6       		.byte	-42
 1673 03df 10       		.byte	16
 1674 03e0 D8       		.byte	-40
 1675 03e1 10       		.byte	16
 1676 03e2 0A       		.byte	10
 1677 03e3 02       		.byte	2
 1678 03e4 0C       		.byte	12
 1679 03e5 01       		.byte	1
 1680 03e6 10       		.byte	16
 1681 03e7 08       		.byte	8
 1682 03e8 16       		.byte	22
 1683 03e9 04       		.byte	4
 1684 03ea 17       		.byte	23
 1685 03eb 03       		.byte	3
 1686 03ec 19       		.byte	25
 1687 03ed 01       		.byte	1
 1688 03ee 1A       		.byte	26
 1689 03ef 01       		.byte	1
 1690 03f0 1E       		.byte	30
 1691 03f1 04       		.byte	4
 1692 03f2 24       		.byte	36
 1693 03f3 08       		.byte	8
 1694 03f4 32       		.byte	50
 1695 03f5 08       		.byte	8
 1696 03f6 33       		.byte	51
 1697 03f7 02       		.byte	2
 1698 03f8 34       		.byte	52
 1699 03f9 03       		.byte	3
 1700 03fa 36       		.byte	54
 1701 03fb 04       		.byte	4
 1702 03fc 37       		.byte	55
 1703 03fd 01       		.byte	1
 1704 03fe 38       		.byte	56
 1705 03ff 08       		.byte	8
 1706 0400 3E       		.byte	62
 1707 0401 44       		.byte	68
 1708 0402 58       		.byte	88
 1709 0403 04       		.byte	4
 1710 0404 59       		.byte	89
 1711 0405 0C       		.byte	12
 1712 0406 5C       		.byte	92
ARM GAS  C:\Users\oars0\AppData\Local\Temp\cc7aWiR5.s 			page 56


 1713 0407 09       		.byte	9
 1714 0408 5F       		.byte	95
 1715 0409 01       		.byte	1
 1716 040a 81       		.byte	-127
 1717 040b 04       		.byte	4
 1718 040c 82       		.byte	-126
 1719 040d 04       		.byte	4
 1720 040e 85       		.byte	-123
 1721 040f 08       		.byte	8
 1722 0410 88       		.byte	-120
 1723 0411 04       		.byte	4
 1724 0412 8B       		.byte	-117
 1725 0413 04       		.byte	4
 1726 0414 8C       		.byte	-116
 1727 0415 08       		.byte	8
 1728 0416 8D       		.byte	-115
 1729 0417 02       		.byte	2
 1730 0418 90       		.byte	-112
 1731 0419 01       		.byte	1
 1732 041a 91       		.byte	-111
 1733 041b 80       		.byte	-128
 1734 041c 93       		.byte	-109
 1735 041d 40       		.byte	64
 1736 041e 94       		.byte	-108
 1737 041f 02       		.byte	2
 1738 0420 95       		.byte	-107
 1739 0421 20       		.byte	32
 1740 0422 97       		.byte	-105
 1741 0423 10       		.byte	16
 1742 0424 99       		.byte	-103
 1743 0425 10       		.byte	16
 1744 0426 9A       		.byte	-102
 1745 0427 10       		.byte	16
 1746 0428 9B       		.byte	-101
 1747 0429 20       		.byte	32
 1748 042a 9E       		.byte	-98
 1749 042b 82       		.byte	-126
 1750 042c 9F       		.byte	-97
 1751 042d 08       		.byte	8
 1752 042e A1       		.byte	-95
 1753 042f 40       		.byte	64
 1754 0430 A3       		.byte	-93
 1755 0431 80       		.byte	-128
 1756 0432 A6       		.byte	-90
 1757 0433 21       		.byte	33
 1758 0434 A7       		.byte	-89
 1759 0435 02       		.byte	2
 1760 0436 A9       		.byte	-87
 1761 0437 01       		.byte	1
 1762 0438 AA       		.byte	-86
 1763 0439 48       		.byte	72
 1764 043a AF       		.byte	-81
 1765 043b 01       		.byte	1
 1766 043c B0       		.byte	-80
 1767 043d 20       		.byte	32
 1768 043e B2       		.byte	-78
 1769 043f 80       		.byte	-128
ARM GAS  C:\Users\oars0\AppData\Local\Temp\cc7aWiR5.s 			page 57


 1770 0440 B4       		.byte	-76
 1771 0441 1F       		.byte	31
 1772 0442 B5       		.byte	-75
 1773 0443 FF       		.byte	-1
 1774 0444 B6       		.byte	-74
 1775 0445 40       		.byte	64
 1776 0446 B8       		.byte	-72
 1777 0447 20       		.byte	32
 1778 0448 BE       		.byte	-66
 1779 0449 10       		.byte	16
 1780 044a BF       		.byte	-65
 1781 044b 10       		.byte	16
 1782 044c D6       		.byte	-42
 1783 044d 02       		.byte	2
 1784 044e D7       		.byte	-41
 1785 044f 3A       		.byte	58
 1786 0450 D8       		.byte	-40
 1787 0451 04       		.byte	4
 1788 0452 D9       		.byte	-39
 1789 0453 04       		.byte	4
 1790 0454 DB       		.byte	-37
 1791 0455 0C       		.byte	12
 1792 0456 DF       		.byte	-33
 1793 0457 01       		.byte	1
 1794 0458 00       		.byte	0
 1795 0459 10       		.byte	16
 1796 045a 01       		.byte	1
 1797 045b 91       		.byte	-111
 1798 045c 06       		.byte	6
 1799 045d 04       		.byte	4
 1800 045e 07       		.byte	7
 1801 045f 01       		.byte	1
 1802 0460 09       		.byte	9
 1803 0461 A0       		.byte	-96
 1804 0462 0A       		.byte	10
 1805 0463 50       		.byte	80
 1806 0464 0E       		.byte	14
 1807 0465 8A       		.byte	-118
 1808 0466 0F       		.byte	15
 1809 0467 20       		.byte	32
 1810 0468 13       		.byte	19
 1811 0469 24       		.byte	36
 1812 046a 17       		.byte	23
 1813 046b 04       		.byte	4
 1814 046c 18       		.byte	24
 1815 046d 08       		.byte	8
 1816 046e 19       		.byte	25
 1817 046f A4       		.byte	-92
 1818 0470 1A       		.byte	26
 1819 0471 74       		.byte	116
 1820 0472 1B       		.byte	27
 1821 0473 89       		.byte	-119
 1822 0474 1D       		.byte	29
 1823 0475 48       		.byte	72
 1824 0476 1E       		.byte	30
 1825 0477 08       		.byte	8
 1826 0478 21       		.byte	33
ARM GAS  C:\Users\oars0\AppData\Local\Temp\cc7aWiR5.s 			page 58


 1827 0479 20       		.byte	32
 1828 047a 27       		.byte	39
 1829 047b 11       		.byte	17
 1830 047c 29       		.byte	41
 1831 047d 15       		.byte	21
 1832 047e 2A       		.byte	42
 1833 047f 80       		.byte	-128
 1834 0480 2B       		.byte	43
 1835 0481 01       		.byte	1
 1836 0482 30       		.byte	48
 1837 0483 0A       		.byte	10
 1838 0484 32       		.byte	50
 1839 0485 20       		.byte	32
 1840 0486 33       		.byte	51
 1841 0487 80       		.byte	-128
 1842 0488 36       		.byte	54
 1843 0489 04       		.byte	4
 1844 048a 37       		.byte	55
 1845 048b 10       		.byte	16
 1846 048c 38       		.byte	56
 1847 048d 90       		.byte	-112
 1848 048e 39       		.byte	57
 1849 048f 05       		.byte	5
 1850 0490 5B       		.byte	91
 1851 0491 04       		.byte	4
 1852 0492 61       		.byte	97
 1853 0493 08       		.byte	8
 1854 0494 68       		.byte	104
 1855 0495 0A       		.byte	10
 1856 0496 69       		.byte	105
 1857 0497 05       		.byte	5
 1858 0498 6B       		.byte	107
 1859 0499 20       		.byte	32
 1860 049a 70       		.byte	112
 1861 049b 40       		.byte	64
 1862 049c 71       		.byte	113
 1863 049d 90       		.byte	-112
 1864 049e 73       		.byte	115
 1865 049f 04       		.byte	4
 1866 04a0 79       		.byte	121
 1867 04a1 40       		.byte	64
 1868 04a2 7D       		.byte	125
 1869 04a3 40       		.byte	64
 1870 04a4 83       		.byte	-125
 1871 04a5 08       		.byte	8
 1872 04a6 86       		.byte	-122
 1873 04a7 40       		.byte	64
 1874 04a8 8C       		.byte	-116
 1875 04a9 10       		.byte	16
 1876 04aa 8D       		.byte	-115
 1877 04ab 01       		.byte	1
 1878 04ac 90       		.byte	-112
 1879 04ad 10       		.byte	16
 1880 04ae 93       		.byte	-109
 1881 04af 08       		.byte	8
 1882 04b0 94       		.byte	-108
 1883 04b1 08       		.byte	8
ARM GAS  C:\Users\oars0\AppData\Local\Temp\cc7aWiR5.s 			page 59


 1884 04b2 95       		.byte	-107
 1885 04b3 01       		.byte	1
 1886 04b4 96       		.byte	-106
 1887 04b5 24       		.byte	36
 1888 04b6 9B       		.byte	-101
 1889 04b7 02       		.byte	2
 1890 04b8 9E       		.byte	-98
 1891 04b9 80       		.byte	-128
 1892 04ba A2       		.byte	-94
 1893 04bb 21       		.byte	33
 1894 04bc A3       		.byte	-93
 1895 04bd 10       		.byte	16
 1896 04be A4       		.byte	-92
 1897 04bf 08       		.byte	8
 1898 04c0 A7       		.byte	-89
 1899 04c1 8A       		.byte	-118
 1900 04c2 A8       		.byte	-88
 1901 04c3 80       		.byte	-128
 1902 04c4 B5       		.byte	-75
 1903 04c5 04       		.byte	4
 1904 04c6 B6       		.byte	-74
 1905 04c7 20       		.byte	32
 1906 04c8 C0       		.byte	-64
 1907 04c9 CB       		.byte	-53
 1908 04ca C2       		.byte	-62
 1909 04cb FF       		.byte	-1
 1910 04cc C4       		.byte	-60
 1911 04cd 26       		.byte	38
 1912 04ce CA       		.byte	-54
 1913 04cf 0F       		.byte	15
 1914 04d0 CC       		.byte	-52
 1915 04d1 6F       		.byte	111
 1916 04d2 CE       		.byte	-50
 1917 04d3 0F       		.byte	15
 1918 04d4 D6       		.byte	-42
 1919 04d5 02       		.byte	2
 1920 04d6 D8       		.byte	-40
 1921 04d7 02       		.byte	2
 1922 04d8 DE       		.byte	-34
 1923 04d9 18       		.byte	24
 1924 04da E6       		.byte	-26
 1925 04db 02       		.byte	2
 1926 04dc EE       		.byte	-18
 1927 04dd 01       		.byte	1
 1928 04de 54       		.byte	84
 1929 04df 01       		.byte	1
 1930 04e0 58       		.byte	88
 1931 04e1 04       		.byte	4
 1932 04e2 59       		.byte	89
 1933 04e3 04       		.byte	4
 1934 04e4 5B       		.byte	91
 1935 04e5 0D       		.byte	13
 1936 04e6 5F       		.byte	95
 1937 04e7 01       		.byte	1
 1938 04e8 D8       		.byte	-40
 1939 04e9 04       		.byte	4
 1940 04ea D9       		.byte	-39
ARM GAS  C:\Users\oars0\AppData\Local\Temp\cc7aWiR5.s 			page 60


 1941 04eb 04       		.byte	4
 1942 04ec DF       		.byte	-33
 1943 04ed 01       		.byte	1
 1944 04ee 01       		.byte	1
 1945 04ef 20       		.byte	32
 1946 04f0 07       		.byte	7
 1947 04f1 4A       		.byte	74
 1948 04f2 08       		.byte	8
 1949 04f3 24       		.byte	36
 1950 04f4 09       		.byte	9
 1951 04f5 81       		.byte	-127
 1952 04f6 0F       		.byte	15
 1953 04f7 20       		.byte	32
 1954 04f8 10       		.byte	16
 1955 04f9 02       		.byte	2
 1956 04fa 13       		.byte	19
 1957 04fb 02       		.byte	2
 1958 04fc 14       		.byte	20
 1959 04fd 84       		.byte	-124
 1960 04fe 16       		.byte	22
 1961 04ff 20       		.byte	32
 1962 0500 28       		.byte	40
 1963 0501 80       		.byte	-128
 1964 0502 29       		.byte	41
 1965 0503 64       		.byte	100
 1966 0504 2D       		.byte	45
 1967 0505 01       		.byte	1
 1968 0506 2F       		.byte	47
 1969 0507 08       		.byte	8
 1970 0508 32       		.byte	50
 1971 0509 40       		.byte	64
 1972 050a 35       		.byte	53
 1973 050b 20       		.byte	32
 1974 050c 37       		.byte	55
 1975 050d 0A       		.byte	10
 1976 050e 38       		.byte	56
 1977 050f 20       		.byte	32
 1978 0510 39       		.byte	57
 1979 0511 01       		.byte	1
 1980 0512 3D       		.byte	61
 1981 0513 02       		.byte	2
 1982 0514 3E       		.byte	62
 1983 0515 20       		.byte	32
 1984 0516 5F       		.byte	95
 1985 0517 80       		.byte	-128
 1986 0518 7E       		.byte	126
 1987 0519 04       		.byte	4
 1988 051a 8C       		.byte	-116
 1989 051b 92       		.byte	-110
 1990 051c 8D       		.byte	-115
 1991 051d 01       		.byte	1
 1992 051e 8E       		.byte	-114
 1993 051f 20       		.byte	32
 1994 0520 92       		.byte	-110
 1995 0521 80       		.byte	-128
 1996 0522 9B       		.byte	-101
 1997 0523 02       		.byte	2
ARM GAS  C:\Users\oars0\AppData\Local\Temp\cc7aWiR5.s 			page 61


 1998 0524 B6       		.byte	-74
 1999 0525 40       		.byte	64
 2000 0526 B7       		.byte	-73
 2001 0527 02       		.byte	2
 2002 0528 C0       		.byte	-64
 2003 0529 D2       		.byte	-46
 2004 052a C2       		.byte	-62
 2005 052b 2F       		.byte	47
 2006 052c C4       		.byte	-60
 2007 052d 79       		.byte	121
 2008 052e CA       		.byte	-54
 2009 052f AF       		.byte	-81
 2010 0530 CC       		.byte	-52
 2011 0531 E8       		.byte	-24
 2012 0532 CE       		.byte	-50
 2013 0533 A5       		.byte	-91
 2014 0534 D6       		.byte	-42
 2015 0535 10       		.byte	16
 2016 0536 DE       		.byte	-34
 2017 0537 20       		.byte	32
 2018 0538 E0       		.byte	-32
 2019 0539 10       		.byte	16
 2020 053a E4       		.byte	-28
 2021 053b 40       		.byte	64
 2022 053c E6       		.byte	-26
 2023 053d 02       		.byte	2
 2024 053e E8       		.byte	-24
 2025 053f 10       		.byte	16
 2026 0540 EE       		.byte	-18
 2027 0541 01       		.byte	1
 2028 0542 E0       		.byte	-32
 2029 0543 40       		.byte	64
 2030 0544 58       		.byte	88
 2031 0545 04       		.byte	4
 2032 0546 59       		.byte	89
 2033 0547 04       		.byte	4
 2034 0548 5F       		.byte	95
 2035 0549 01       		.byte	1
 2036 054a 86       		.byte	-122
 2037 054b 01       		.byte	1
 2038 054c 89       		.byte	-119
 2039 054d 01       		.byte	1
 2040 054e 8A       		.byte	-118
 2041 054f 01       		.byte	1
 2042 0550 8C       		.byte	-116
 2043 0551 01       		.byte	1
 2044 0552 90       		.byte	-112
 2045 0553 01       		.byte	1
 2046 0554 91       		.byte	-111
 2047 0555 01       		.byte	1
 2048 0556 95       		.byte	-107
 2049 0557 01       		.byte	1
 2050 0558 98       		.byte	-104
 2051 0559 01       		.byte	1
 2052 055a 99       		.byte	-103
 2053 055b 01       		.byte	1
 2054 055c A1       		.byte	-95
ARM GAS  C:\Users\oars0\AppData\Local\Temp\cc7aWiR5.s 			page 62


 2055 055d 01       		.byte	1
 2056 055e A4       		.byte	-92
 2057 055f 01       		.byte	1
 2058 0560 A8       		.byte	-88
 2059 0561 01       		.byte	1
 2060 0562 AB       		.byte	-85
 2061 0563 01       		.byte	1
 2062 0564 AD       		.byte	-83
 2063 0565 01       		.byte	1
 2064 0566 B4       		.byte	-76
 2065 0567 01       		.byte	1
 2066 0568 B5       		.byte	-75
 2067 0569 01       		.byte	1
 2068 056a D6       		.byte	-42
 2069 056b 08       		.byte	8
 2070 056c D8       		.byte	-40
 2071 056d 04       		.byte	4
 2072 056e D9       		.byte	-39
 2073 056f 04       		.byte	4
 2074 0570 DB       		.byte	-37
 2075 0571 04       		.byte	4
 2076 0572 DD       		.byte	-35
 2077 0573 90       		.byte	-112
 2078 0574 DF       		.byte	-33
 2079 0575 01       		.byte	1
 2080 0576 01       		.byte	1
 2081 0577 A2       		.byte	-94
 2082 0578 05       		.byte	5
 2083 0579 A0       		.byte	-96
 2084 057a 07       		.byte	7
 2085 057b 10       		.byte	16
 2086 057c 08       		.byte	8
 2087 057d 10       		.byte	16
 2088 057e 0A       		.byte	10
 2089 057f 40       		.byte	64
 2090 0580 0C       		.byte	12
 2091 0581 11       		.byte	17
 2092 0582 0E       		.byte	14
 2093 0583 40       		.byte	64
 2094 0584 11       		.byte	17
 2095 0585 10       		.byte	16
 2096 0586 12       		.byte	18
 2097 0587 30       		.byte	48
 2098 0588 15       		.byte	21
 2099 0589 10       		.byte	16
 2100 058a 16       		.byte	22
 2101 058b 10       		.byte	16
 2102 058c 1E       		.byte	30
 2103 058d 04       		.byte	4
 2104 058e 25       		.byte	37
 2105 058f 20       		.byte	32
 2106 0590 28       		.byte	40
 2107 0591 11       		.byte	17
 2108 0592 29       		.byte	41
 2109 0593 26       		.byte	38
 2110 0594 2D       		.byte	45
 2111 0595 20       		.byte	32
ARM GAS  C:\Users\oars0\AppData\Local\Temp\cc7aWiR5.s 			page 63


 2112 0596 2E       		.byte	46
 2113 0597 40       		.byte	64
 2114 0598 2F       		.byte	47
 2115 0599 80       		.byte	-128
 2116 059a 32       		.byte	50
 2117 059b 20       		.byte	32
 2118 059c 33       		.byte	51
 2119 059d 80       		.byte	-128
 2120 059e 35       		.byte	53
 2121 059f 06       		.byte	6
 2122 05a0 36       		.byte	54
 2123 05a1 20       		.byte	32
 2124 05a2 39       		.byte	57
 2125 05a3 10       		.byte	16
 2126 05a4 3D       		.byte	61
 2127 05a5 10       		.byte	16
 2128 05a6 5E       		.byte	94
 2129 05a7 80       		.byte	-128
 2130 05a8 5F       		.byte	95
 2131 05a9 28       		.byte	40
 2132 05aa 66       		.byte	102
 2133 05ab 04       		.byte	4
 2134 05ac 86       		.byte	-122
 2135 05ad 44       		.byte	68
 2136 05ae 8D       		.byte	-115
 2137 05af 20       		.byte	32
 2138 05b0 91       		.byte	-111
 2139 05b1 10       		.byte	16
 2140 05b2 92       		.byte	-110
 2141 05b3 40       		.byte	64
 2142 05b4 99       		.byte	-103
 2143 05b5 A6       		.byte	-90
 2144 05b6 9B       		.byte	-101
 2145 05b7 38       		.byte	56
 2146 05b8 9E       		.byte	-98
 2147 05b9 04       		.byte	4
 2148 05ba A2       		.byte	-94
 2149 05bb 20       		.byte	32
 2150 05bc A3       		.byte	-93
 2151 05bd 80       		.byte	-128
 2152 05be B5       		.byte	-75
 2153 05bf 01       		.byte	1
 2154 05c0 B7       		.byte	-73
 2155 05c1 10       		.byte	16
 2156 05c2 C0       		.byte	-64
 2157 05c3 EB       		.byte	-21
 2158 05c4 C2       		.byte	-62
 2159 05c5 5A       		.byte	90
 2160 05c6 C4       		.byte	-60
 2161 05c7 66       		.byte	102
 2162 05c8 CA       		.byte	-54
 2163 05c9 BF       		.byte	-65
 2164 05ca CC       		.byte	-52
 2165 05cb EC       		.byte	-20
 2166 05cc CE       		.byte	-50
 2167 05cd 24       		.byte	36
 2168 05ce D6       		.byte	-42
ARM GAS  C:\Users\oars0\AppData\Local\Temp\cc7aWiR5.s 			page 64


 2169 05cf 70       		.byte	112
 2170 05d0 D8       		.byte	-40
 2171 05d1 40       		.byte	64
 2172 05d2 E4       		.byte	-28
 2173 05d3 01       		.byte	1
 2174 05d4 E6       		.byte	-26
 2175 05d5 40       		.byte	64
 2176 05d6 E8       		.byte	-24
 2177 05d7 10       		.byte	16
 2178 05d8 EA       		.byte	-22
 2179 05d9 01       		.byte	1
 2180 05da EE       		.byte	-18
 2181 05db 06       		.byte	6
 2182 05dc 54       		.byte	84
 2183 05dd 18       		.byte	24
 2184 05de 58       		.byte	88
 2185 05df 04       		.byte	4
 2186 05e0 59       		.byte	89
 2187 05e1 04       		.byte	4
 2188 05e2 5B       		.byte	91
 2189 05e3 04       		.byte	4
 2190 05e4 5D       		.byte	93
 2191 05e5 10       		.byte	16
 2192 05e6 5F       		.byte	95
 2193 05e7 01       		.byte	1
 2194 05e8 AE       		.byte	-82
 2195 05e9 01       		.byte	1
 2196 05ea B0       		.byte	-80
 2197 05eb 01       		.byte	1
 2198 05ec D2       		.byte	-46
 2199 05ed 03       		.byte	3
 2200 05ee D3       		.byte	-45
 2201 05ef 02       		.byte	2
 2202 05f0 D8       		.byte	-40
 2203 05f1 04       		.byte	4
 2204 05f2 D9       		.byte	-39
 2205 05f3 04       		.byte	4
 2206 05f4 DB       		.byte	-37
 2207 05f5 04       		.byte	4
 2208 05f6 DF       		.byte	-33
 2209 05f7 01       		.byte	1
 2210 05f8 01       		.byte	1
 2211 05f9 82       		.byte	-126
 2212 05fa 02       		.byte	2
 2213 05fb 30       		.byte	48
 2214 05fc 05       		.byte	5
 2215 05fd A2       		.byte	-94
 2216 05fe 06       		.byte	6
 2217 05ff 10       		.byte	16
 2218 0600 0A       		.byte	10
 2219 0601 24       		.byte	36
 2220 0602 0E       		.byte	14
 2221 0603 50       		.byte	80
 2222 0604 10       		.byte	16
 2223 0605 82       		.byte	-126
 2224 0606 11       		.byte	17
 2225 0607 10       		.byte	16
ARM GAS  C:\Users\oars0\AppData\Local\Temp\cc7aWiR5.s 			page 65


 2226 0608 15       		.byte	21
 2227 0609 10       		.byte	16
 2228 060a 19       		.byte	25
 2229 060b 03       		.byte	3
 2230 060c 1B       		.byte	27
 2231 060d 02       		.byte	2
 2232 060e 29       		.byte	41
 2233 060f 25       		.byte	37
 2234 0610 2B       		.byte	43
 2235 0611 01       		.byte	1
 2236 0612 2E       		.byte	46
 2237 0613 40       		.byte	64
 2238 0614 2F       		.byte	47
 2239 0615 80       		.byte	-128
 2240 0616 32       		.byte	50
 2241 0617 20       		.byte	32
 2242 0618 33       		.byte	51
 2243 0619 80       		.byte	-128
 2244 061a 35       		.byte	53
 2245 061b 06       		.byte	6
 2246 061c 36       		.byte	54
 2247 061d 20       		.byte	32
 2248 061e 39       		.byte	57
 2249 061f 10       		.byte	16
 2250 0620 3D       		.byte	61
 2251 0621 10       		.byte	16
 2252 0622 3E       		.byte	62
 2253 0623 04       		.byte	4
 2254 0624 5F       		.byte	95
 2255 0625 02       		.byte	2
 2256 0626 65       		.byte	101
 2257 0627 40       		.byte	64
 2258 0628 67       		.byte	103
 2259 0629 08       		.byte	8
 2260 062a 68       		.byte	104
 2261 062b 01       		.byte	1
 2262 062c 69       		.byte	105
 2263 062d 40       		.byte	64
 2264 062e 6B       		.byte	107
 2265 062f 04       		.byte	4
 2266 0630 80       		.byte	-128
 2267 0631 80       		.byte	-128
 2268 0632 82       		.byte	-126
 2269 0633 40       		.byte	64
 2270 0634 88       		.byte	-120
 2271 0635 01       		.byte	1
 2272 0636 8F       		.byte	-113
 2273 0637 20       		.byte	32
 2274 0638 91       		.byte	-111
 2275 0639 10       		.byte	16
 2276 063a 92       		.byte	-110
 2277 063b 74       		.byte	116
 2278 063c 93       		.byte	-109
 2279 063d 08       		.byte	8
 2280 063e 95       		.byte	-107
 2281 063f 40       		.byte	64
 2282 0640 99       		.byte	-103
ARM GAS  C:\Users\oars0\AppData\Local\Temp\cc7aWiR5.s 			page 66


 2283 0641 E4       		.byte	-28
 2284 0642 9B       		.byte	-101
 2285 0643 0A       		.byte	10
 2286 0644 9D       		.byte	-99
 2287 0645 01       		.byte	1
 2288 0646 9E       		.byte	-98
 2289 0647 04       		.byte	4
 2290 0648 9F       		.byte	-97
 2291 0649 04       		.byte	4
 2292 064a A0       		.byte	-96
 2293 064b 02       		.byte	2
 2294 064c A2       		.byte	-94
 2295 064d 20       		.byte	32
 2296 064e A3       		.byte	-93
 2297 064f 81       		.byte	-127
 2298 0650 A7       		.byte	-89
 2299 0651 02       		.byte	2
 2300 0652 A9       		.byte	-87
 2301 0653 04       		.byte	4
 2302 0654 AF       		.byte	-81
 2303 0655 01       		.byte	1
 2304 0656 B1       		.byte	-79
 2305 0657 80       		.byte	-128
 2306 0658 B3       		.byte	-77
 2307 0659 01       		.byte	1
 2308 065a B4       		.byte	-76
 2309 065b 04       		.byte	4
 2310 065c C0       		.byte	-64
 2311 065d FD       		.byte	-3
 2312 065e C2       		.byte	-62
 2313 065f 36       		.byte	54
 2314 0660 C4       		.byte	-60
 2315 0661 4B       		.byte	75
 2316 0662 CA       		.byte	-54
 2317 0663 9F       		.byte	-97
 2318 0664 CC       		.byte	-52
 2319 0665 EC       		.byte	-20
 2320 0666 CE       		.byte	-50
 2321 0667 64       		.byte	100
 2322 0668 D6       		.byte	-42
 2323 0669 80       		.byte	-128
 2324 066a D8       		.byte	-40
 2325 066b 30       		.byte	48
 2326 066c E0       		.byte	-32
 2327 066d 04       		.byte	4
 2328 066e E4       		.byte	-28
 2329 066f 10       		.byte	16
 2330 0670 E6       		.byte	-26
 2331 0671 80       		.byte	-128
 2332 0672 EC       		.byte	-20
 2333 0673 09       		.byte	9
 2334 0674 EE       		.byte	-18
 2335 0675 22       		.byte	34
 2336 0676 80       		.byte	-128
 2337 0677 10       		.byte	16
 2338 0678 83       		.byte	-125
 2339 0679 08       		.byte	8
ARM GAS  C:\Users\oars0\AppData\Local\Temp\cc7aWiR5.s 			page 67


 2340 067a 8A       		.byte	-118
 2341 067b 04       		.byte	4
 2342 067c 91       		.byte	-111
 2343 067d 01       		.byte	1
 2344 067e 92       		.byte	-110
 2345 067f 80       		.byte	-128
 2346 0680 96       		.byte	-106
 2347 0681 08       		.byte	8
 2348 0682 99       		.byte	-103
 2349 0683 04       		.byte	4
 2350 0684 9B       		.byte	-101
 2351 0685 40       		.byte	64
 2352 0686 9F       		.byte	-97
 2353 0687 08       		.byte	8
 2354 0688 A1       		.byte	-95
 2355 0689 81       		.byte	-127
 2356 068a A3       		.byte	-93
 2357 068b 10       		.byte	16
 2358 068c A9       		.byte	-87
 2359 068d 20       		.byte	32
 2360 068e AB       		.byte	-85
 2361 068f 10       		.byte	16
 2362 0690 AC       		.byte	-84
 2363 0691 20       		.byte	32
 2364 0692 AD       		.byte	-83
 2365 0693 40       		.byte	64
 2366 0694 B0       		.byte	-80
 2367 0695 04       		.byte	4
 2368 0696 B1       		.byte	-79
 2369 0697 01       		.byte	1
 2370 0698 B3       		.byte	-77
 2371 0699 80       		.byte	-128
 2372 069a B5       		.byte	-75
 2373 069b 84       		.byte	-124
 2374 069c B7       		.byte	-73
 2375 069d 48       		.byte	72
 2376 069e E0       		.byte	-32
 2377 069f 80       		.byte	-128
 2378 06a0 E4       		.byte	-28
 2379 06a1 10       		.byte	16
 2380 06a2 E6       		.byte	-26
 2381 06a3 80       		.byte	-128
 2382 06a4 E8       		.byte	-24
 2383 06a5 10       		.byte	16
 2384 06a6 EC       		.byte	-20
 2385 06a7 A0       		.byte	-96
 2386 06a8 EE       		.byte	-18
 2387 06a9 02       		.byte	2
 2388 06aa 58       		.byte	88
 2389 06ab 04       		.byte	4
 2390 06ac 59       		.byte	89
 2391 06ad 04       		.byte	4
 2392 06ae 5F       		.byte	95
 2393 06af 01       		.byte	1
 2394 06b0 D8       		.byte	-40
 2395 06b1 04       		.byte	4
 2396 06b2 D9       		.byte	-39
ARM GAS  C:\Users\oars0\AppData\Local\Temp\cc7aWiR5.s 			page 68


 2397 06b3 04       		.byte	4
 2398 06b4 DF       		.byte	-33
 2399 06b5 01       		.byte	1
 2400 06b6 01       		.byte	1
 2401 06b7 01       		.byte	1
 2402 06b8 07       		.byte	7
 2403 06b9 82       		.byte	-126
 2404 06ba 08       		.byte	8
 2405 06bb 05       		.byte	5
 2406 06bc 09       		.byte	9
 2407 06bd 80       		.byte	-128
 2408 06be 0A       		.byte	10
 2409 06bf 80       		.byte	-128
 2410 06c0 0C       		.byte	12
 2411 06c1 04       		.byte	4
 2412 06c2 0F       		.byte	15
 2413 06c3 A0       		.byte	-96
 2414 06c4 10       		.byte	16
 2415 06c5 82       		.byte	-126
 2416 06c6 11       		.byte	17
 2417 06c7 02       		.byte	2
 2418 06c8 13       		.byte	19
 2419 06c9 0A       		.byte	10
 2420 06ca 15       		.byte	21
 2421 06cb 01       		.byte	1
 2422 06cc 17       		.byte	23
 2423 06cd 48       		.byte	72
 2424 06ce 28       		.byte	40
 2425 06cf 01       		.byte	1
 2426 06d0 2B       		.byte	43
 2427 06d1 10       		.byte	16
 2428 06d2 2D       		.byte	45
 2429 06d3 01       		.byte	1
 2430 06d4 30       		.byte	48
 2431 06d5 82       		.byte	-126
 2432 06d6 31       		.byte	49
 2433 06d7 04       		.byte	4
 2434 06d8 34       		.byte	52
 2435 06d9 01       		.byte	1
 2436 06da 37       		.byte	55
 2437 06db 48       		.byte	72
 2438 06dc 38       		.byte	56
 2439 06dd 20       		.byte	32
 2440 06de 39       		.byte	57
 2441 06df 01       		.byte	1
 2442 06e0 3D       		.byte	61
 2443 06e1 02       		.byte	2
 2444 06e2 3F       		.byte	63
 2445 06e3 A0       		.byte	-96
 2446 06e4 5A       		.byte	90
 2447 06e5 80       		.byte	-128
 2448 06e6 5B       		.byte	91
 2449 06e7 80       		.byte	-128
 2450 06e8 90       		.byte	-112
 2451 06e9 20       		.byte	32
 2452 06ea 91       		.byte	-111
 2453 06eb 01       		.byte	1
ARM GAS  C:\Users\oars0\AppData\Local\Temp\cc7aWiR5.s 			page 69


 2454 06ec 92       		.byte	-110
 2455 06ed 80       		.byte	-128
 2456 06ee 99       		.byte	-103
 2457 06ef 04       		.byte	4
 2458 06f0 9B       		.byte	-101
 2459 06f1 48       		.byte	72
 2460 06f2 A0       		.byte	-96
 2461 06f3 02       		.byte	2
 2462 06f4 A1       		.byte	-95
 2463 06f5 81       		.byte	-127
 2464 06f6 A3       		.byte	-93
 2465 06f7 50       		.byte	80
 2466 06f8 B4       		.byte	-76
 2467 06f9 02       		.byte	2
 2468 06fa B7       		.byte	-73
 2469 06fb 40       		.byte	64
 2470 06fc C0       		.byte	-64
 2471 06fd 98       		.byte	-104
 2472 06fe C2       		.byte	-62
 2473 06ff 3D       		.byte	61
 2474 0700 C4       		.byte	-60
 2475 0701 BD       		.byte	-67
 2476 0702 CA       		.byte	-54
 2477 0703 8A       		.byte	-118
 2478 0704 CC       		.byte	-52
 2479 0705 DB       		.byte	-37
 2480 0706 CE       		.byte	-50
 2481 0707 B5       		.byte	-75
 2482 0708 E4       		.byte	-28
 2483 0709 01       		.byte	1
 2484 070a E8       		.byte	-24
 2485 070b 10       		.byte	16
 2486 070c EA       		.byte	-22
 2487 070d 01       		.byte	1
 2488 070e EC       		.byte	-20
 2489 070f 40       		.byte	64
 2490 0710 EE       		.byte	-18
 2491 0711 06       		.byte	6
 2492 0712 10       		.byte	16
 2493 0713 80       		.byte	-128
 2494 0714 16       		.byte	22
 2495 0715 80       		.byte	-128
 2496 0716 30       		.byte	48
 2497 0717 20       		.byte	32
 2498 0718 36       		.byte	54
 2499 0719 40       		.byte	64
 2500 071a 3B       		.byte	59
 2501 071b 02       		.byte	2
 2502 071c 3E       		.byte	62
 2503 071d 80       		.byte	-128
 2504 071e C4       		.byte	-60
 2505 071f 30       		.byte	48
 2506 0720 CC       		.byte	-52
 2507 0721 30       		.byte	48
 2508 0722 CE       		.byte	-50
 2509 0723 60       		.byte	96
 2510 0724 97       		.byte	-105
ARM GAS  C:\Users\oars0\AppData\Local\Temp\cc7aWiR5.s 			page 70


 2511 0725 02       		.byte	2
 2512 0726 A0       		.byte	-96
 2513 0727 80       		.byte	-128
 2514 0728 A4       		.byte	-92
 2515 0729 20       		.byte	32
 2516 072a A6       		.byte	-90
 2517 072b 40       		.byte	64
 2518 072c 3E       		.byte	62
 2519 072d 10       		.byte	16
 2520 072e 97       		.byte	-105
 2521 072f 02       		.byte	2
 2522 0730 A0       		.byte	-96
 2523 0731 80       		.byte	-128
 2524 0732 A4       		.byte	-92
 2525 0733 20       		.byte	32
 2526 0734 A6       		.byte	-90
 2527 0735 40       		.byte	64
 2528 0736 CE       		.byte	-50
 2529 0737 20       		.byte	32
 2530 0738 80       		.byte	-128
 2531 0739 80       		.byte	-128
 2532 073a 96       		.byte	-106
 2533 073b 10       		.byte	16
 2534 073c 97       		.byte	-105
 2535 073d 02       		.byte	2
 2536 073e A0       		.byte	-96
 2537 073f 80       		.byte	-128
 2538 0740 A4       		.byte	-92
 2539 0741 20       		.byte	32
 2540 0742 A6       		.byte	-90
 2541 0743 40       		.byte	64
 2542 0744 E0       		.byte	-32
 2543 0745 20       		.byte	32
 2544 0746 7C       		.byte	124
 2545 0747 40       		.byte	64
 2546 0748 DE       		.byte	-34
 2547 0749 04       		.byte	4
 2548 074a 21       		.byte	33
 2549 074b 01       		.byte	1
 2550 074c 8C       		.byte	-116
 2551 074d 40       		.byte	64
 2552 074e 94       		.byte	-108
 2553 074f 40       		.byte	64
 2554 0750 C8       		.byte	-56
 2555 0751 02       		.byte	2
 2556 0752 E0       		.byte	-32
 2557 0753 02       		.byte	2
 2558 0754 91       		.byte	-111
 2559 0755 02       		.byte	2
 2560 0756 0B       		.byte	11
 2561 0757 40       		.byte	64
 2562 0758 85       		.byte	-123
 2563 0759 01       		.byte	1
 2564 075a 91       		.byte	-111
 2565 075b 02       		.byte	2
 2566 075c A5       		.byte	-91
 2567 075d 01       		.byte	1
ARM GAS  C:\Users\oars0\AppData\Local\Temp\cc7aWiR5.s 			page 71


 2568 075e A9       		.byte	-87
 2569 075f 01       		.byte	1
 2570 0760 C2       		.byte	-62
 2571 0761 08       		.byte	8
 2572 0762 24       		.byte	36
 2573 0763 08       		.byte	8
 2574 0764 8B       		.byte	-117
 2575 0765 02       		.byte	2
 2576 0766 8F       		.byte	-113
 2577 0767 04       		.byte	4
 2578 0768 96       		.byte	-106
 2579 0769 10       		.byte	16
 2580 076a 97       		.byte	-105
 2581 076b 02       		.byte	2
 2582 076c AE       		.byte	-82
 2583 076d 40       		.byte	64
 2584 076e B0       		.byte	-80
 2585 076f 20       		.byte	32
 2586 0770 C8       		.byte	-56
 2587 0771 20       		.byte	32
 2588 0772 EE       		.byte	-18
 2589 0773 40       		.byte	64
 2590 0774 12       		.byte	18
 2591 0775 20       		.byte	32
 2592 0776 17       		.byte	23
 2593 0777 04       		.byte	4
 2594 0778 52       		.byte	82
 2595 0779 02       		.byte	2
 2596 077a 56       		.byte	86
 2597 077b 20       		.byte	32
 2598 077c 7B       		.byte	123
 2599 077d 02       		.byte	2
 2600 077e 7E       		.byte	126
 2601 077f 01       		.byte	1
 2602 0780 82       		.byte	-126
 2603 0781 20       		.byte	32
 2604 0782 86       		.byte	-122
 2605 0783 22       		.byte	34
 2606 0784 8E       		.byte	-114
 2607 0785 20       		.byte	32
 2608 0786 92       		.byte	-110
 2609 0787 02       		.byte	2
 2610 0788 9F       		.byte	-97
 2611 0789 04       		.byte	4
 2612 078a A3       		.byte	-93
 2613 078b 02       		.byte	2
 2614 078c AA       		.byte	-86
 2615 078d 10       		.byte	16
 2616 078e AB       		.byte	-85
 2617 078f 01       		.byte	1
 2618 0790 AE       		.byte	-82
 2619 0791 01       		.byte	1
 2620 0792 B4       		.byte	-76
 2621 0793 04       		.byte	4
 2622 0794 C4       		.byte	-60
 2623 0795 30       		.byte	48
 2624 0796 D4       		.byte	-44
ARM GAS  C:\Users\oars0\AppData\Local\Temp\cc7aWiR5.s 			page 72


 2625 0797 C0       		.byte	-64
 2626 0798 DC       		.byte	-36
 2627 0799 80       		.byte	-128
 2628 079a DE       		.byte	-34
 2629 079b 20       		.byte	32
 2630 079c E2       		.byte	-30
 2631 079d 40       		.byte	64
 2632 079e E4       		.byte	-28
 2633 079f C0       		.byte	-64
 2634 07a0 EA       		.byte	-22
 2635 07a1 80       		.byte	-128
 2636 07a2 EE       		.byte	-18
 2637 07a3 60       		.byte	96
 2638 07a4 13       		.byte	19
 2639 07a5 28       		.byte	40
 2640 07a6 15       		.byte	21
 2641 07a7 02       		.byte	2
 2642 07a8 1F       		.byte	31
 2643 07a9 80       		.byte	-128
 2644 07aa 34       		.byte	52
 2645 07ab 02       		.byte	2
 2646 07ac 7B       		.byte	123
 2647 07ad 10       		.byte	16
 2648 07ae 7D       		.byte	125
 2649 07af 20       		.byte	32
 2650 07b0 8B       		.byte	-117
 2651 07b1 08       		.byte	8
 2652 07b2 8D       		.byte	-115
 2653 07b3 10       		.byte	16
 2654 07b4 A5       		.byte	-91
 2655 07b5 01       		.byte	1
 2656 07b6 AF       		.byte	-81
 2657 07b7 40       		.byte	64
 2658 07b8 C4       		.byte	-60
 2659 07b9 0E       		.byte	14
 2660 07ba C6       		.byte	-58
 2661 07bb 01       		.byte	1
 2662 07bc CC       		.byte	-52
 2663 07bd 01       		.byte	1
 2664 07be DE       		.byte	-34
 2665 07bf 03       		.byte	3
 2666 07c0 E4       		.byte	-28
 2667 07c1 08       		.byte	8
 2668 07c2 E6       		.byte	-26
 2669 07c3 01       		.byte	1
 2670 07c4 11       		.byte	17
 2671 07c5 02       		.byte	2
 2672 07c6 83       		.byte	-125
 2673 07c7 10       		.byte	16
 2674 07c8 A5       		.byte	-91
 2675 07c9 01       		.byte	1
 2676 07ca A7       		.byte	-89
 2677 07cb 10       		.byte	16
 2678 07cc AB       		.byte	-85
 2679 07cd A0       		.byte	-96
 2680 07ce AD       		.byte	-83
 2681 07cf 01       		.byte	1
ARM GAS  C:\Users\oars0\AppData\Local\Temp\cc7aWiR5.s 			page 73


 2682 07d0 B4       		.byte	-76
 2683 07d1 02       		.byte	2
 2684 07d2 C4       		.byte	-60
 2685 07d3 08       		.byte	8
 2686 07d4 E8       		.byte	-24
 2687 07d5 08       		.byte	8
 2688 07d6 00       		.byte	0
 2689 07d7 03       		.byte	3
 2690 07d8 01       		.byte	1
 2691 07d9 01       		.byte	1
 2692 07da 08       		.byte	8
 2693 07db 03       		.byte	3
 2694 07dc 0A       		.byte	10
 2695 07dd 03       		.byte	3
 2696 07de 0B       		.byte	11
 2697 07df 01       		.byte	1
 2698 07e0 0C       		.byte	12
 2699 07e1 01       		.byte	1
 2700 07e2 10       		.byte	16
 2701 07e3 03       		.byte	3
 2702 07e4 11       		.byte	17
 2703 07e5 01       		.byte	1
 2704 07e6 1A       		.byte	26
 2705 07e7 03       		.byte	3
 2706 07e8 1B       		.byte	27
 2707 07e9 01       		.byte	1
 2708 07ea 1C       		.byte	28
 2709 07eb 01       		.byte	1
 2710 07ec 00       		.byte	0
 2711 07ed 0B       		.byte	11
 2712 07ee 03       		.byte	3
 2713 07ef C0       		.byte	-64
 2714 07f0 10       		.byte	16
 2715 07f1 0A       		.byte	10
 2716 07f2 0000     		.align	2
 2717              		.type	BS_PHUB_CFGMEM1_VAL.5020, %object
 2718              		.size	BS_PHUB_CFGMEM1_VAL.5020, 4
 2719              	BS_PHUB_CFGMEM1_VAL.5020:
 2720 07f4 00       		.byte	0
 2721 07f5 01       		.byte	1
 2722 07f6 00       		.byte	0
 2723 07f7 00       		.byte	0
 2724              		.align	2
 2725              		.type	BS_IOPINS0_0_VAL.5015, %object
 2726              		.size	BS_IOPINS0_0_VAL.5015, 8
 2727              	BS_IOPINS0_0_VAL.5015:
 2728 07f8 00       		.byte	0
 2729 07f9 00       		.byte	0
 2730 07fa 00       		.byte	0
 2731 07fb 00       		.byte	0
 2732 07fc 00       		.byte	0
 2733 07fd 00       		.byte	0
 2734 07fe 04       		.byte	4
 2735 07ff 00       		.byte	0
 2736              		.align	2
 2737              		.type	BS_IOPINS0_7_VAL.5016, %object
 2738              		.size	BS_IOPINS0_7_VAL.5016, 10
ARM GAS  C:\Users\oars0\AppData\Local\Temp\cc7aWiR5.s 			page 74


 2739              	BS_IOPINS0_7_VAL.5016:
 2740 0800 83       		.byte	-125
 2741 0801 00       		.byte	0
 2742 0802 40       		.byte	64
 2743 0803 80       		.byte	-128
 2744 0804 83       		.byte	-125
 2745 0805 00       		.byte	0
 2746 0806 83       		.byte	-125
 2747 0807 00       		.byte	0
 2748 0808 00       		.byte	0
 2749 0809 00       		.byte	0
 2750 080a 0000     		.align	2
 2751              		.type	BS_IOPINS0_8_VAL.5017, %object
 2752              		.size	BS_IOPINS0_8_VAL.5017, 10
 2753              	BS_IOPINS0_8_VAL.5017:
 2754 080c 40       		.byte	64
 2755 080d 00       		.byte	0
 2756 080e 00       		.byte	0
 2757 080f 00       		.byte	0
 2758 0810 00       		.byte	0
 2759 0811 00       		.byte	0
 2760 0812 00       		.byte	0
 2761 0813 00       		.byte	0
 2762 0814 C0       		.byte	-64
 2763 0815 00       		.byte	0
 2764 0816 0000     		.align	2
 2765              		.type	BS_IOPINS0_1_VAL.5018, %object
 2766              		.size	BS_IOPINS0_1_VAL.5018, 8
 2767              	BS_IOPINS0_1_VAL.5018:
 2768 0818 00       		.byte	0
 2769 0819 0B       		.byte	11
 2770 081a 0B       		.byte	11
 2771 081b 00       		.byte	0
 2772 081c 00       		.byte	0
 2773 081d 00       		.byte	0
 2774 081e 00       		.byte	0
 2775 081f 00       		.byte	0
 2776              		.align	2
 2777              		.type	BS_IOPINS0_3_VAL.5019, %object
 2778              		.size	BS_IOPINS0_3_VAL.5019, 10
 2779              	BS_IOPINS0_3_VAL.5019:
 2780 0820 04       		.byte	4
 2781 0821 00       		.byte	0
 2782 0822 00       		.byte	0
 2783 0823 04       		.byte	4
 2784 0824 00       		.byte	0
 2785 0825 00       		.byte	0
 2786 0826 00       		.byte	0
 2787 0827 03       		.byte	3
 2788 0828 03       		.byte	3
 2789 0829 00       		.byte	0
 2790              		.text
 2791              	.Letext0:
 2792              		.file 2 "c:\\program files (x86)\\cypress\\psoc creator\\4.4\\psoc creator\\import\\gnu\\arm\\5.4.
 2793              		.file 3 "Generated_Source\\PSoC5\\cytypes.h"