ARM GAS  C:\Users\oars0\AppData\Local\Temp\ccLHMPxV.s 			page 1


   1              		.syntax unified
   2              		.cpu cortex-m3
   3              		.fpu softvfp
   4              		.eabi_attribute 20, 1
   5              		.eabi_attribute 21, 1
   6              		.eabi_attribute 23, 3
   7              		.eabi_attribute 24, 1
   8              		.eabi_attribute 25, 1
   9              		.eabi_attribute 26, 1
  10              		.eabi_attribute 30, 6
  11              		.eabi_attribute 34, 1
  12              		.eabi_attribute 18, 4
  13              		.thumb
  14              		.syntax unified
  15              		.file	"main.c"
  16              		.text
  17              	.Ltext0:
  18              		.cfi_sections	.debug_frame
  19              		.bss
  20              		.align	2
  21              	Mouse_Data:
  22 0000 000000   		.space	3
  23              		.section	.rodata
  24              		.align	2
  25              	.LC0:
  26 0000 4F70656E 		.ascii	"Open\012\000"
  26      0A00
  27              		.global	__aeabi_i2f
  28              		.global	__aeabi_fdiv
  29              		.global	__aeabi_f2iz
  30 0006 0000     		.align	2
  31              	.LC1:
  32 0008 303A2569 		.ascii	"0:%i\011 1:%i\011 2:%i\011\012\000"
  32      0920313A 
  32      25690920 
  32      323A2569 
  32      090A00
  33              		.global	__aeabi_i2d
  34              		.global	__aeabi_ddiv
  35              		.global	__aeabi_dmul
  36              		.global	__aeabi_dsub
  37              		.global	__aeabi_d2iz
  38              		.global	__aeabi_d2uiz
  39 001b 00       		.align	2
  40              	.LC2:
  41 001c 6368616E 		.ascii	"channel:%i \011 temp:%u \011\000"
  41      6E656C3A 
  41      25692009 
  41      2074656D 
  41      703A2575 
  42              		.section	.text.main,"ax",%progbits
  43              		.align	2
  44              		.global	main
  45              		.thumb
  46              		.thumb_func
  47              		.type	main, %function
  48              	main:
ARM GAS  C:\Users\oars0\AppData\Local\Temp\ccLHMPxV.s 			page 2


  49              	.LFB64:
  50              		.file 1 "main.c"
   1:main.c        **** /******************************************************************************
   2:main.c        **** * File Name: main.c
   3:main.c        **** *
   4:main.c        **** * Version: 1.10
   5:main.c        **** *
   6:main.c        **** * Description: This is the source code for the HID Mouse code example.
   7:main.c        **** *
   8:main.c        **** * Related Document: CE195394_HID_Mouse.pdf
   9:main.c        **** *
  10:main.c        **** * Hardware Dependency: See CE195394_HID_Mouse.pdf
  11:main.c        **** *
  12:main.c        **** *******************************************************************************
  13:main.c        **** * Copyright (2018), Cypress Semiconductor Corporation. All rights reserved.
  14:main.c        **** *******************************************************************************
  15:main.c        **** * This software, including source code, documentation and related materials
  16:main.c        **** * (“Software”), is owned by Cypress Semiconductor Corporation or one of its
  17:main.c        **** * subsidiaries (“Cypress”) and is protected by and subject to worldwide patent
  18:main.c        **** * protection (United States and foreign), United States copyright laws and
  19:main.c        **** * international treaty provisions. Therefore, you may use this Software only
  20:main.c        **** * as provided in the license agreement accompanying the software package from
  21:main.c        **** * which you obtained this Software (“EULA”).
  22:main.c        **** *
  23:main.c        **** * If no EULA applies, Cypress hereby grants you a personal, nonexclusive,
  24:main.c        **** * non-transferable license to copy, modify, and compile the Software source
  25:main.c        **** * code solely for use in connection with Cypress’s integrated circuit products.
  26:main.c        **** * Any reproduction, modification, translation, compilation, or representation
  27:main.c        **** * of this Software except as specified above is prohibited without the express
  28:main.c        **** * written permission of Cypress.
  29:main.c        **** *
  30:main.c        **** * Disclaimer: THIS SOFTWARE IS PROVIDED AS-IS, WITH NO WARRANTY OF ANY KIND, 
  31:main.c        **** * EXPRESS OR IMPLIED, INCLUDING, BUT NOT LIMITED TO, NONINFRINGEMENT, IMPLIED 
  32:main.c        **** * WARRANTIES OF MERCHANTABILITY AND FITNESS FOR A PARTICULAR PURPOSE. Cypress 
  33:main.c        **** * reserves the right to make changes to the Software without notice. Cypress 
  34:main.c        **** * does not assume any liability arising out of the application or use of the 
  35:main.c        **** * Software or any product or circuit described in the Software. Cypress does 
  36:main.c        **** * not authorize its products for use in any products where a malfunction or 
  37:main.c        **** * failure of the Cypress product may reasonably be expected to result in 
  38:main.c        **** * significant property damage, injury or death (“High Risk Product”). By 
  39:main.c        **** * including Cypress’s product in a High Risk Product, the manufacturer of such 
  40:main.c        **** * system or application assumes all risk of such use and in doing so agrees to 
  41:main.c        **** * indemnify Cypress against all liability.
  42:main.c        **** *******************************************************************************/
  43:main.c        **** 
  44:main.c        **** 
  45:main.c        **** #include <project.h>
  46:main.c        **** #include <stdio.h>
  47:main.c        **** 
  48:main.c        **** static int8 Mouse_Data[3] = {0,0,0}; /* [0] = Buttons, [1] = X-Axis, [2] = Y-Axis */
  49:main.c        **** 
  50:main.c        **** /*******************************************************************************
  51:main.c        **** * Function Name: main
  52:main.c        **** ********************************************************************************
  53:main.c        **** *
  54:main.c        **** * Summary:
  55:main.c        **** *  main() performs following functions:
ARM GAS  C:\Users\oars0\AppData\Local\Temp\ccLHMPxV.s 			page 3


  56:main.c        **** *  1: Enumerates the PSoC as a HID Mouse.
  57:main.c        **** *  2: Updates Mouse movement data.
  58:main.c        **** *  3: Updates Mouse left click with status of P2[2]
  59:main.c        **** *  4: Waits for ACK from host and then loads new data into EP1.
  60:main.c        **** *
  61:main.c        **** * Parameters:
  62:main.c        **** *  None.
  63:main.c        **** *
  64:main.c        **** * Return:
  65:main.c        **** *  None.
  66:main.c        **** *
  67:main.c        **** *******************************************************************************/
  68:main.c        **** 
  69:main.c        **** int main()
  70:main.c        **** {
  51              		.loc 1 70 0
  52              		.cfi_startproc
  53              		@ args = 0, pretend = 0, frame = 128
  54              		@ frame_needed = 1, uses_anonymous_args = 0
  55 0000 90B5     		push	{r4, r7, lr}
  56              		.cfi_def_cfa_offset 12
  57              		.cfi_offset 4, -12
  58              		.cfi_offset 7, -8
  59              		.cfi_offset 14, -4
  60 0002 A3B0     		sub	sp, sp, #140
  61              		.cfi_def_cfa_offset 152
  62 0004 02AF     		add	r7, sp, #8
  63              		.cfi_def_cfa 7, 144
  71:main.c        **** 	CYGlobalIntEnable;                        		/* Enable Global Interrupts */
  64              		.loc 1 71 0
  65              		.syntax unified
  66              	@ 71 "main.c" 1
  67 0006 62B6     		CPSIE   i
  68              	@ 0 "" 2
  72:main.c        **** 	USBFS_1_Start(0, USBFS_1_DWR_VDDD_OPERATION);   /* Start USBFS Operation/device 0 and with 5V oper
  69              		.loc 1 72 0
  70              		.thumb
  71              		.syntax unified
  72 0008 0221     		movs	r1, #2
  73 000a 0020     		movs	r0, #0
  74 000c FFF7FEFF 		bl	USBFS_1_Start
  73:main.c        **** 	while(!USBFS_1_bGetConfiguration()){};      		/* Wait for Device to enumerate */
  75              		.loc 1 73 0
  76 0010 00BF     		nop
  77              	.L2:
  78              		.loc 1 73 0 is_stmt 0 discriminator 1
  79 0012 FFF7FEFF 		bl	USBFS_1_GetConfiguration
  80 0016 0346     		mov	r3, r0
  81 0018 002B     		cmp	r3, #0
  82 001a FAD0     		beq	.L2
  74:main.c        ****     USBFS_1_LoadInEP(1, (uint8 *)Mouse_Data, 3); 	/* Loads an inital value into EP1 and sends it ou
  83              		.loc 1 74 0 is_stmt 1
  84 001c 0322     		movs	r2, #3
  85 001e 6B49     		ldr	r1, .L9
  86 0020 0120     		movs	r0, #1
  87 0022 FFF7FEFF 		bl	USBFS_1_LoadInEP
  75:main.c        **** 	
ARM GAS  C:\Users\oars0\AppData\Local\Temp\ccLHMPxV.s 			page 4


  76:main.c        ****     ADC_Start();
  88              		.loc 1 76 0
  89 0026 FFF7FEFF 		bl	ADC_Start
  77:main.c        ****     I2C_Start();
  90              		.loc 1 77 0
  91 002a FFF7FEFF 		bl	I2C_Start
  78:main.c        ****     UART_Start();
  92              		.loc 1 78 0
  93 002e FFF7FEFF 		bl	UART_Start
  79:main.c        ****     UART_PutString("Open\n");
  94              		.loc 1 79 0
  95 0032 6748     		ldr	r0, .L9+4
  96 0034 FFF7FEFF 		bl	UART_PutString
  97              	.L8:
  80:main.c        ****     char buffer[100];
  81:main.c        ****     uint8 i2cdata[10];//10 bytes of data - bytes 3+4, 5+6, and 7 correspond to mousex, mousey, and 
  82:main.c        ****     double temp;
  83:main.c        ****     
  84:main.c        ****     
  85:main.c        **** 	for(;;)
  86:main.c        ****     {
  87:main.c        ****         while(!USBFS_1_bGetEPAckState(1));  			/* Wait for ACK before loading data */
  98              		.loc 1 87 0
  99 0038 00BF     		nop
 100              	.L3:
 101              		.loc 1 87 0 is_stmt 0 discriminator 1
 102 003a 0120     		movs	r0, #1
 103 003c FFF7FEFF 		bl	USBFS_1_GetEPAckState
 104 0040 0346     		mov	r3, r0
 105 0042 002B     		cmp	r3, #0
 106 0044 F9D0     		beq	.L3
  88:main.c        **** 		USBFS_1_LoadInEP(1, (uint8 *)Mouse_Data, 3); 	/* Load latest mouse data into EP1 and send to PC *
 107              		.loc 1 88 0 is_stmt 1
 108 0046 0322     		movs	r2, #3
 109 0048 6049     		ldr	r1, .L9
 110 004a 0120     		movs	r0, #1
 111 004c FFF7FEFF 		bl	USBFS_1_LoadInEP
  89:main.c        **** 	            
  90:main.c        ****         I2C_MasterReadBuf(0x20, i2cdata,10, I2C_MODE_COMPLETE_XFER);
 112              		.loc 1 90 0
 113 0050 3946     		mov	r1, r7
 114 0052 0023     		movs	r3, #0
 115 0054 0A22     		movs	r2, #10
 116 0056 2020     		movs	r0, #32
 117 0058 FFF7FEFF 		bl	I2C_MasterReadBuf
  91:main.c        ****         while(I2C_MasterStatus()!=I2C_MSTAT_RD_CMPLT); //wait for i2c to finish
 118              		.loc 1 91 0
 119 005c 00BF     		nop
 120              	.L4:
 121              		.loc 1 91 0 is_stmt 0 discriminator 1
 122 005e FFF7FEFF 		bl	I2C_MasterStatus
 123 0062 0346     		mov	r3, r0
 124 0064 012B     		cmp	r3, #1
 125 0066 FAD1     		bne	.L4
  92:main.c        ****                       
  93:main.c        ****         Mouse_Data[0] = (1-i2cdata[7]) | (!SW_Read());
 126              		.loc 1 93 0 is_stmt 1
ARM GAS  C:\Users\oars0\AppData\Local\Temp\ccLHMPxV.s 			page 5


 127 0068 FB79     		ldrb	r3, [r7, #7]	@ zero_extendqisi2
 128 006a C3F10103 		rsb	r3, r3, #1
 129 006e DBB2     		uxtb	r3, r3
 130 0070 5CB2     		sxtb	r4, r3
 131 0072 FFF7FEFF 		bl	SW_Read
 132 0076 0346     		mov	r3, r0
 133 0078 002B     		cmp	r3, #0
 134 007a 0CBF     		ite	eq
 135 007c 0123     		moveq	r3, #1
 136 007e 0023     		movne	r3, #0
 137 0080 DBB2     		uxtb	r3, r3
 138 0082 5BB2     		sxtb	r3, r3
 139 0084 2343     		orrs	r3, r3, r4
 140 0086 5AB2     		sxtb	r2, r3
 141 0088 504B     		ldr	r3, .L9
 142 008a 1A70     		strb	r2, [r3]
  94:main.c        ****         Mouse_Data[1] = ((i2cdata[3]<<8 | i2cdata[4])-31168)/(float)3000;
 143              		.loc 1 94 0
 144 008c FB78     		ldrb	r3, [r7, #3]	@ zero_extendqisi2
 145 008e 1B02     		lsls	r3, r3, #8
 146 0090 3A79     		ldrb	r2, [r7, #4]	@ zero_extendqisi2
 147 0092 1343     		orrs	r3, r3, r2
 148 0094 A3F5F343 		sub	r3, r3, #31104
 149 0098 403B     		subs	r3, r3, #64
 150 009a 1846     		mov	r0, r3
 151 009c FFF7FEFF 		bl	__aeabi_i2f
 152 00a0 0346     		mov	r3, r0
 153 00a2 4C49     		ldr	r1, .L9+8
 154 00a4 1846     		mov	r0, r3
 155 00a6 FFF7FEFF 		bl	__aeabi_fdiv
 156 00aa 0346     		mov	r3, r0
 157 00ac 1846     		mov	r0, r3
 158 00ae FFF7FEFF 		bl	__aeabi_f2iz
 159 00b2 0346     		mov	r3, r0
 160 00b4 5AB2     		sxtb	r2, r3
 161 00b6 454B     		ldr	r3, .L9
 162 00b8 5A70     		strb	r2, [r3, #1]
  95:main.c        ****         Mouse_Data[2] = ((i2cdata[5]<<8 | i2cdata[6])-32768)/(float)3000;
 163              		.loc 1 95 0
 164 00ba 7B79     		ldrb	r3, [r7, #5]	@ zero_extendqisi2
 165 00bc 1B02     		lsls	r3, r3, #8
 166 00be BA79     		ldrb	r2, [r7, #6]	@ zero_extendqisi2
 167 00c0 1343     		orrs	r3, r3, r2
 168 00c2 A3F50043 		sub	r3, r3, #32768
 169 00c6 1846     		mov	r0, r3
 170 00c8 FFF7FEFF 		bl	__aeabi_i2f
 171 00cc 0346     		mov	r3, r0
 172 00ce 4149     		ldr	r1, .L9+8
 173 00d0 1846     		mov	r0, r3
 174 00d2 FFF7FEFF 		bl	__aeabi_fdiv
 175 00d6 0346     		mov	r3, r0
 176 00d8 1846     		mov	r0, r3
 177 00da FFF7FEFF 		bl	__aeabi_f2iz
 178 00de 0346     		mov	r3, r0
 179 00e0 5AB2     		sxtb	r2, r3
 180 00e2 3A4B     		ldr	r3, .L9
 181 00e4 9A70     		strb	r2, [r3, #2]
ARM GAS  C:\Users\oars0\AppData\Local\Temp\ccLHMPxV.s 			page 6


  96:main.c        ****         
  97:main.c        ****         sprintf(buffer, "0:%i\t 1:%i\t 2:%i\t\n",
  98:main.c        ****             Mouse_Data[0], Mouse_Data[1], Mouse_Data[2]);
 182              		.loc 1 98 0
 183 00e6 394B     		ldr	r3, .L9
 184 00e8 93F90030 		ldrsb	r3, [r3]
  97:main.c        ****             Mouse_Data[0], Mouse_Data[1], Mouse_Data[2]);
 185              		.loc 1 97 0
 186 00ec 1A46     		mov	r2, r3
 187              		.loc 1 98 0
 188 00ee 374B     		ldr	r3, .L9
 189 00f0 93F90130 		ldrsb	r3, [r3, #1]
  97:main.c        ****             Mouse_Data[0], Mouse_Data[1], Mouse_Data[2]);
 190              		.loc 1 97 0
 191 00f4 1946     		mov	r1, r3
 192              		.loc 1 98 0
 193 00f6 354B     		ldr	r3, .L9
 194 00f8 93F90230 		ldrsb	r3, [r3, #2]
  97:main.c        ****             Mouse_Data[0], Mouse_Data[1], Mouse_Data[2]);
 195              		.loc 1 97 0
 196 00fc 07F10C00 		add	r0, r7, #12
 197 0100 0093     		str	r3, [sp]
 198 0102 0B46     		mov	r3, r1
 199 0104 3449     		ldr	r1, .L9+12
 200 0106 FFF7FEFF 		bl	sprintf
  99:main.c        ****         
 100:main.c        ****         while(!USBFS_1_bGetEPAckState(1));  			/* Wait for ACK before loading data */
 201              		.loc 1 100 0
 202 010a 00BF     		nop
 203              	.L5:
 204              		.loc 1 100 0 is_stmt 0 discriminator 1
 205 010c 0120     		movs	r0, #1
 206 010e FFF7FEFF 		bl	USBFS_1_GetEPAckState
 207 0112 0346     		mov	r3, r0
 208 0114 002B     		cmp	r3, #0
 209 0116 F9D0     		beq	.L5
 101:main.c        **** 		USBFS_1_LoadInEP(1, (uint8 *)Mouse_Data, 3); 	/* Load latest mouse data into EP1 and send to PC *
 210              		.loc 1 101 0 is_stmt 1
 211 0118 0322     		movs	r2, #3
 212 011a 2C49     		ldr	r1, .L9
 213 011c 0120     		movs	r0, #1
 214 011e FFF7FEFF 		bl	USBFS_1_LoadInEP
 215              	.LBB2:
 102:main.c        **** 	    
 103:main.c        ****         for(int channel = 0; channel < 2; channel++){
 216              		.loc 1 103 0
 217 0122 0023     		movs	r3, #0
 218 0124 FB67     		str	r3, [r7, #124]
 219 0126 45E0     		b	.L6
 220              	.L7:
 104:main.c        ****             ADC_StartConvert();
 221              		.loc 1 104 0 discriminator 3
 222 0128 FFF7FEFF 		bl	ADC_StartConvert
 105:main.c        ****             ADC_IsEndConversion(ADC_WAIT_FOR_RESULT); 
 223              		.loc 1 105 0 discriminator 3
 224 012c 0020     		movs	r0, #0
 225 012e FFF7FEFF 		bl	ADC_IsEndConversion
ARM GAS  C:\Users\oars0\AppData\Local\Temp\ccLHMPxV.s 			page 7


 106:main.c        ****             temp = (ADC_GetResult16(channel)/128.0)*10.0-10; 
 226              		.loc 1 106 0 discriminator 3
 227 0132 FB6F     		ldr	r3, [r7, #124]
 228 0134 9BB2     		uxth	r3, r3
 229 0136 1846     		mov	r0, r3
 230 0138 FFF7FEFF 		bl	ADC_GetResult16
 231 013c 0346     		mov	r3, r0
 232 013e 1846     		mov	r0, r3
 233 0140 FFF7FEFF 		bl	__aeabi_i2d
 234 0144 4FF00002 		mov	r2, #0
 235 0148 244B     		ldr	r3, .L9+16
 236 014a FFF7FEFF 		bl	__aeabi_ddiv
 237 014e 0346     		mov	r3, r0
 238 0150 0C46     		mov	r4, r1
 239 0152 1846     		mov	r0, r3
 240 0154 2146     		mov	r1, r4
 241 0156 4FF00002 		mov	r2, #0
 242 015a 214B     		ldr	r3, .L9+20
 243 015c FFF7FEFF 		bl	__aeabi_dmul
 244 0160 0346     		mov	r3, r0
 245 0162 0C46     		mov	r4, r1
 246 0164 1846     		mov	r0, r3
 247 0166 2146     		mov	r1, r4
 248 0168 4FF00002 		mov	r2, #0
 249 016c 1C4B     		ldr	r3, .L9+20
 250 016e FFF7FEFF 		bl	__aeabi_dsub
 251 0172 0346     		mov	r3, r0
 252 0174 0C46     		mov	r4, r1
 253 0176 C7E91C34 		strd	r3, [r7, #112]
 107:main.c        ****             
 108:main.c        ****             Mouse_Data[channel+1] = temp;
 254              		.loc 1 108 0 discriminator 3
 255 017a FB6F     		ldr	r3, [r7, #124]
 256 017c 5C1C     		adds	r4, r3, #1
 257 017e D7E91C01 		ldrd	r0, [r7, #112]
 258 0182 FFF7FEFF 		bl	__aeabi_d2iz
 259 0186 0346     		mov	r3, r0
 260 0188 5AB2     		sxtb	r2, r3
 261 018a 104B     		ldr	r3, .L9
 262 018c 1A55     		strb	r2, [r3, r4]
 109:main.c        ****             sprintf(buffer, "channel:%i \t temp:%u \t", channel, (unsigned)temp);
 263              		.loc 1 109 0 discriminator 3
 264 018e D7E91C01 		ldrd	r0, [r7, #112]
 265 0192 FFF7FEFF 		bl	__aeabi_d2uiz
 266 0196 0346     		mov	r3, r0
 267 0198 07F10C00 		add	r0, r7, #12
 268 019c FA6F     		ldr	r2, [r7, #124]
 269 019e 1149     		ldr	r1, .L9+24
 270 01a0 FFF7FEFF 		bl	sprintf
 110:main.c        ****             UART_PutString(buffer);
 271              		.loc 1 110 0 discriminator 3
 272 01a4 07F10C03 		add	r3, r7, #12
 273 01a8 1846     		mov	r0, r3
 274 01aa FFF7FEFF 		bl	UART_PutString
 103:main.c        ****             ADC_StartConvert();
 275              		.loc 1 103 0 discriminator 3
 276 01ae FB6F     		ldr	r3, [r7, #124]
ARM GAS  C:\Users\oars0\AppData\Local\Temp\ccLHMPxV.s 			page 8


 277 01b0 0133     		adds	r3, r3, #1
 278 01b2 FB67     		str	r3, [r7, #124]
 279              	.L6:
 103:main.c        ****             ADC_StartConvert();
 280              		.loc 1 103 0 is_stmt 0 discriminator 1
 281 01b4 FB6F     		ldr	r3, [r7, #124]
 282 01b6 012B     		cmp	r3, #1
 283 01b8 B6DD     		ble	.L7
 284              	.LBE2:
 111:main.c        ****         
 112:main.c        ****         }
 113:main.c        ****        
 114:main.c        ****         UART_PutString(buffer);
 285              		.loc 1 114 0 is_stmt 1
 286 01ba 07F10C03 		add	r3, r7, #12
 287 01be 1846     		mov	r0, r3
 288 01c0 FFF7FEFF 		bl	UART_PutString
 115:main.c        ****                
 116:main.c        **** 		CyDelay(1);
 289              		.loc 1 116 0
 290 01c4 0120     		movs	r0, #1
 291 01c6 FFF7FEFF 		bl	CyDelay
 117:main.c        **** 	}
 292              		.loc 1 117 0
 293 01ca 35E7     		b	.L8
 294              	.L10:
 295              		.align	2
 296              	.L9:
 297 01cc 00000000 		.word	Mouse_Data
 298 01d0 00000000 		.word	.LC0
 299 01d4 00803B45 		.word	1161527296
 300 01d8 08000000 		.word	.LC1
 301 01dc 00006040 		.word	1080033280
 302 01e0 00002440 		.word	1076101120
 303 01e4 1C000000 		.word	.LC2
 304              		.cfi_endproc
 305              	.LFE64:
 306              		.size	main, .-main
 307              		.text
 308              	.Letext0:
 309              		.file 2 "c:\\program files (x86)\\cypress\\psoc creator\\4.4\\psoc creator\\import\\gnu\\arm\\5.4.
 310              		.file 3 "c:\\program files (x86)\\cypress\\psoc creator\\4.4\\psoc creator\\import\\gnu\\arm\\5.4.
 311              		.file 4 "Generated_Source\\PSoC5/cytypes.h"
 312              		.file 5 "Generated_Source\\PSoC5/core_cm3.h"