ARM GAS  C:\Users\oars0\AppData\Local\Temp\ccNqJowk.s 			page 1


   1              		.syntax unified
   2              		.cpu cortex-m3
   3              		.fpu softvfp
   4              		.eabi_attribute 20, 1
   5              		.eabi_attribute 21, 1
   6              		.eabi_attribute 23, 3
   7              		.eabi_attribute 24, 1
   8              		.eabi_attribute 25, 1
   9              		.eabi_attribute 26, 1
  10              		.eabi_attribute 30, 6
  11              		.eabi_attribute 34, 1
  12              		.eabi_attribute 18, 4
  13              		.thumb
  14              		.syntax unified
  15              		.file	"USBFS_1.c"
  16              		.text
  17              	.Ltext0:
  18              		.cfi_sections	.debug_frame
  19              		.global	USBFS_1_initVar
  20              		.bss
  21              		.type	USBFS_1_initVar, %object
  22              		.size	USBFS_1_initVar, 1
  23              	USBFS_1_initVar:
  24 0000 00       		.space	1
  25              		.section	.text.USBFS_1_Start,"ax",%progbits
  26              		.align	2
  27              		.global	USBFS_1_Start
  28              		.thumb
  29              		.thumb_func
  30              		.type	USBFS_1_Start, %function
  31              	USBFS_1_Start:
  32              	.LFB0:
  33              		.file 1 "Generated_Source\\PSoC5\\USBFS_1.c"
   1:Generated_Source\PSoC5/USBFS_1.c **** /***************************************************************************//**
   2:Generated_Source\PSoC5/USBFS_1.c **** * \file USBFS_1.c
   3:Generated_Source\PSoC5/USBFS_1.c **** * \version 3.20
   4:Generated_Source\PSoC5/USBFS_1.c **** *
   5:Generated_Source\PSoC5/USBFS_1.c **** * \brief
   6:Generated_Source\PSoC5/USBFS_1.c **** *  This file contains the global USBFS API functions.
   7:Generated_Source\PSoC5/USBFS_1.c **** *
   8:Generated_Source\PSoC5/USBFS_1.c **** * Note:
   9:Generated_Source\PSoC5/USBFS_1.c **** *  Many of the functions use an endpoint number. SRAM arrays are sized with 9
  10:Generated_Source\PSoC5/USBFS_1.c **** *  elements, so they are indexed directly by epNumber.  The SIE and ARB
  11:Generated_Source\PSoC5/USBFS_1.c **** *  registers are indexed by variations of epNumber - 1.
  12:Generated_Source\PSoC5/USBFS_1.c **** *
  13:Generated_Source\PSoC5/USBFS_1.c **** ********************************************************************************
  14:Generated_Source\PSoC5/USBFS_1.c **** * \copyright
  15:Generated_Source\PSoC5/USBFS_1.c **** * Copyright 2008-2016, Cypress Semiconductor Corporation.  All rights reserved.
  16:Generated_Source\PSoC5/USBFS_1.c **** * You may use this file only in accordance with the license, terms, conditions,
  17:Generated_Source\PSoC5/USBFS_1.c **** * disclaimers, and limitations in the end user license agreement accompanying
  18:Generated_Source\PSoC5/USBFS_1.c **** * the software package with which this file was provided.
  19:Generated_Source\PSoC5/USBFS_1.c **** *******************************************************************************/
  20:Generated_Source\PSoC5/USBFS_1.c **** 
  21:Generated_Source\PSoC5/USBFS_1.c **** #include "USBFS_1_pvt.h"
  22:Generated_Source\PSoC5/USBFS_1.c **** #include "USBFS_1_cydmac.h"
  23:Generated_Source\PSoC5/USBFS_1.c **** #include "USBFS_1_hid.h"
  24:Generated_Source\PSoC5/USBFS_1.c **** #include "USBFS_1_Dp.h"
ARM GAS  C:\Users\oars0\AppData\Local\Temp\ccNqJowk.s 			page 2


  25:Generated_Source\PSoC5/USBFS_1.c **** 
  26:Generated_Source\PSoC5/USBFS_1.c **** 
  27:Generated_Source\PSoC5/USBFS_1.c **** /***************************************
  28:Generated_Source\PSoC5/USBFS_1.c **** * Global data allocation
  29:Generated_Source\PSoC5/USBFS_1.c **** ***************************************/
  30:Generated_Source\PSoC5/USBFS_1.c **** 
  31:Generated_Source\PSoC5/USBFS_1.c **** /** Indicates whether the USBFS has been initialized. The variable is
  32:Generated_Source\PSoC5/USBFS_1.c **** * initialized to 0 after device reset and set to 1 the first time USBFS_Start()
  33:Generated_Source\PSoC5/USBFS_1.c **** * is called. This allows the Component to restart without reinitialization after
  34:Generated_Source\PSoC5/USBFS_1.c **** * the first call to the USBFS_Start() routine.
  35:Generated_Source\PSoC5/USBFS_1.c **** * If re-initialization of the Component is required, the variable should be set
  36:Generated_Source\PSoC5/USBFS_1.c **** * to 0 before the USBFS_Start() routine is called. Alternatively, the USBFS can
  37:Generated_Source\PSoC5/USBFS_1.c **** * be reinitialized by calling both USBFS_Init() and USBFS_InitComponent()
  38:Generated_Source\PSoC5/USBFS_1.c **** * functions.
  39:Generated_Source\PSoC5/USBFS_1.c **** */
  40:Generated_Source\PSoC5/USBFS_1.c **** uint8 USBFS_1_initVar = 0u;
  41:Generated_Source\PSoC5/USBFS_1.c **** 
  42:Generated_Source\PSoC5/USBFS_1.c **** #if (USBFS_1_EP_MANAGEMENT_DMA)
  43:Generated_Source\PSoC5/USBFS_1.c ****     #if (CY_PSOC4)
  44:Generated_Source\PSoC5/USBFS_1.c ****         static void USBFS_1_InitEpDma(void);
  45:Generated_Source\PSoC5/USBFS_1.c **** 
  46:Generated_Source\PSoC5/USBFS_1.c ****         /* DMA chanels assigend for endpoints. */
  47:Generated_Source\PSoC5/USBFS_1.c ****         const uint8 USBFS_1_DmaChan[USBFS_1_MAX_EP] =
  48:Generated_Source\PSoC5/USBFS_1.c ****         {
  49:Generated_Source\PSoC5/USBFS_1.c ****             0u,
  50:Generated_Source\PSoC5/USBFS_1.c ****             0u,
  51:Generated_Source\PSoC5/USBFS_1.c ****             0u,
  52:Generated_Source\PSoC5/USBFS_1.c ****             0u,
  53:Generated_Source\PSoC5/USBFS_1.c ****             0u,
  54:Generated_Source\PSoC5/USBFS_1.c ****             0u,
  55:Generated_Source\PSoC5/USBFS_1.c ****             0u,
  56:Generated_Source\PSoC5/USBFS_1.c ****             0u,
  57:Generated_Source\PSoC5/USBFS_1.c ****             0u,
  58:Generated_Source\PSoC5/USBFS_1.c ****         };        
  59:Generated_Source\PSoC5/USBFS_1.c ****     #else
  60:Generated_Source\PSoC5/USBFS_1.c ****         /* DMA chanels assigend for endpoints. */
  61:Generated_Source\PSoC5/USBFS_1.c ****         uint8 USBFS_1_DmaChan[USBFS_1_MAX_EP];
  62:Generated_Source\PSoC5/USBFS_1.c ****         
  63:Generated_Source\PSoC5/USBFS_1.c ****         /* DMA TDs require for PSoC 3/5LP operation. */
  64:Generated_Source\PSoC5/USBFS_1.c ****         uint8 USBFS_1_DmaTd[USBFS_1_MAX_EP];
  65:Generated_Source\PSoC5/USBFS_1.c ****     #endif /* (CY_PSOC4) */
  66:Generated_Source\PSoC5/USBFS_1.c **** #endif /* (USBFS_1_EP_MANAGEMENT_DMA) */
  67:Generated_Source\PSoC5/USBFS_1.c **** 
  68:Generated_Source\PSoC5/USBFS_1.c **** #if (USBFS_1_EP_MANAGEMENT_DMA_AUTO)
  69:Generated_Source\PSoC5/USBFS_1.c **** #if (CY_PSOC4)
  70:Generated_Source\PSoC5/USBFS_1.c ****     /* Number of DMA bursts. */
  71:Generated_Source\PSoC5/USBFS_1.c ****     uint8  USBFS_1_DmaEpBurstCnt   [USBFS_1_MAX_EP];
  72:Generated_Source\PSoC5/USBFS_1.c ****     
  73:Generated_Source\PSoC5/USBFS_1.c ****     /* Number of bytes to transfer in last DMA burst. */
  74:Generated_Source\PSoC5/USBFS_1.c ****     uint8  USBFS_1_DmaEpLastBurstEl[USBFS_1_MAX_EP];
  75:Generated_Source\PSoC5/USBFS_1.c **** 
  76:Generated_Source\PSoC5/USBFS_1.c ****     /* Storage for arrays above. */
  77:Generated_Source\PSoC5/USBFS_1.c ****     uint8  USBFS_1_DmaEpBurstCntBackup  [USBFS_1_MAX_EP];
  78:Generated_Source\PSoC5/USBFS_1.c ****     uint32 USBFS_1_DmaEpBufferAddrBackup[USBFS_1_MAX_EP];
  79:Generated_Source\PSoC5/USBFS_1.c ****      
  80:Generated_Source\PSoC5/USBFS_1.c ****     /* DMA trigger mux output for usb.dma_req[0-7]. */
  81:Generated_Source\PSoC5/USBFS_1.c ****     const uint8 USBFS_1_DmaReqOut[USBFS_1_MAX_EP] =
ARM GAS  C:\Users\oars0\AppData\Local\Temp\ccNqJowk.s 			page 3


  82:Generated_Source\PSoC5/USBFS_1.c ****     {
  83:Generated_Source\PSoC5/USBFS_1.c ****         0u,
  84:Generated_Source\PSoC5/USBFS_1.c ****         USBFS_1_ep1_dma__TR_OUTPUT,
  85:Generated_Source\PSoC5/USBFS_1.c ****         0u,
  86:Generated_Source\PSoC5/USBFS_1.c ****         0u,
  87:Generated_Source\PSoC5/USBFS_1.c ****         0u,
  88:Generated_Source\PSoC5/USBFS_1.c ****         0u,
  89:Generated_Source\PSoC5/USBFS_1.c ****         0u,
  90:Generated_Source\PSoC5/USBFS_1.c ****         0u,
  91:Generated_Source\PSoC5/USBFS_1.c ****         0u,
  92:Generated_Source\PSoC5/USBFS_1.c ****     };
  93:Generated_Source\PSoC5/USBFS_1.c **** 
  94:Generated_Source\PSoC5/USBFS_1.c ****     /* DMA trigger mux output for usb.dma_burstend[0-7]. */
  95:Generated_Source\PSoC5/USBFS_1.c ****     const uint8 USBFS_1_DmaBurstEndOut[USBFS_1_MAX_EP] =
  96:Generated_Source\PSoC5/USBFS_1.c ****     {
  97:Generated_Source\PSoC5/USBFS_1.c ****         0u,
  98:Generated_Source\PSoC5/USBFS_1.c ****         USBFS_1_BURSTEND_0_TR_OUTPUT,
  99:Generated_Source\PSoC5/USBFS_1.c ****         USBFS_1_BURSTEND_1_TR_OUTPUT,
 100:Generated_Source\PSoC5/USBFS_1.c ****         USBFS_1_BURSTEND_2_TR_OUTPUT,
 101:Generated_Source\PSoC5/USBFS_1.c ****         USBFS_1_BURSTEND_3_TR_OUTPUT,
 102:Generated_Source\PSoC5/USBFS_1.c ****         USBFS_1_BURSTEND_4_TR_OUTPUT,
 103:Generated_Source\PSoC5/USBFS_1.c ****         USBFS_1_BURSTEND_5_TR_OUTPUT,
 104:Generated_Source\PSoC5/USBFS_1.c ****         USBFS_1_BURSTEND_6_TR_OUTPUT,
 105:Generated_Source\PSoC5/USBFS_1.c ****         USBFS_1_BURSTEND_7_TR_OUTPUT
 106:Generated_Source\PSoC5/USBFS_1.c ****     };
 107:Generated_Source\PSoC5/USBFS_1.c ****     
 108:Generated_Source\PSoC5/USBFS_1.c **** #else
 109:Generated_Source\PSoC5/USBFS_1.c ****     #if (USBFS_1_EP_DMA_AUTO_OPT == 0u)
 110:Generated_Source\PSoC5/USBFS_1.c ****         static uint8 clearInDataRdyStatus = USBFS_1_ARB_EPX_CFG_DEFAULT;
 111:Generated_Source\PSoC5/USBFS_1.c ****         uint8 USBFS_1_DmaNextTd[USBFS_1_MAX_EP];
 112:Generated_Source\PSoC5/USBFS_1.c ****         const uint8 USBFS_1_epX_TD_TERMOUT_EN[USBFS_1_MAX_EP] =
 113:Generated_Source\PSoC5/USBFS_1.c ****         {
 114:Generated_Source\PSoC5/USBFS_1.c ****             0u,
 115:Generated_Source\PSoC5/USBFS_1.c ****             0u,
 116:Generated_Source\PSoC5/USBFS_1.c ****             0u,
 117:Generated_Source\PSoC5/USBFS_1.c ****             0u,
 118:Generated_Source\PSoC5/USBFS_1.c ****             0u,
 119:Generated_Source\PSoC5/USBFS_1.c ****             0u,
 120:Generated_Source\PSoC5/USBFS_1.c ****             0u,
 121:Generated_Source\PSoC5/USBFS_1.c ****             0u,
 122:Generated_Source\PSoC5/USBFS_1.c ****             0u,
 123:Generated_Source\PSoC5/USBFS_1.c ****         };
 124:Generated_Source\PSoC5/USBFS_1.c **** 
 125:Generated_Source\PSoC5/USBFS_1.c ****         volatile uint16 USBFS_1_inLength[USBFS_1_MAX_EP];
 126:Generated_Source\PSoC5/USBFS_1.c ****         const uint8 *USBFS_1_inDataPointer[USBFS_1_MAX_EP];
 127:Generated_Source\PSoC5/USBFS_1.c ****         volatile uint8 USBFS_1_inBufFull[USBFS_1_MAX_EP];
 128:Generated_Source\PSoC5/USBFS_1.c ****     #endif /* (USBFS_1_EP_DMA_AUTO_OPT == 0u) */
 129:Generated_Source\PSoC5/USBFS_1.c **** #endif /* (CY_PSOC4) */
 130:Generated_Source\PSoC5/USBFS_1.c **** #endif /* (USBFS_1_EP_MANAGEMENT_DMA_AUTO) */
 131:Generated_Source\PSoC5/USBFS_1.c **** 
 132:Generated_Source\PSoC5/USBFS_1.c **** 
 133:Generated_Source\PSoC5/USBFS_1.c **** /*******************************************************************************
 134:Generated_Source\PSoC5/USBFS_1.c **** * Function Name: USBFS_1_Start
 135:Generated_Source\PSoC5/USBFS_1.c **** ****************************************************************************//**
 136:Generated_Source\PSoC5/USBFS_1.c **** *
 137:Generated_Source\PSoC5/USBFS_1.c **** *   This function performs all required initialization for the USBFS component.
 138:Generated_Source\PSoC5/USBFS_1.c **** *   After this function call, the USB device initiates communication with the
ARM GAS  C:\Users\oars0\AppData\Local\Temp\ccNqJowk.s 			page 4


 139:Generated_Source\PSoC5/USBFS_1.c **** *   host by pull-up D+ line. This is the preferred method to begin component
 140:Generated_Source\PSoC5/USBFS_1.c **** *   operation.
 141:Generated_Source\PSoC5/USBFS_1.c **** *
 142:Generated_Source\PSoC5/USBFS_1.c **** *   Note that global interrupts have to be enabled because interrupts are
 143:Generated_Source\PSoC5/USBFS_1.c **** *   required for USBFS component operation.
 144:Generated_Source\PSoC5/USBFS_1.c **** *
 145:Generated_Source\PSoC5/USBFS_1.c **** *   PSoC 4200L devices: when USBFS component configured to DMA with Automatic
 146:Generated_Source\PSoC5/USBFS_1.c **** *   Buffer Management, the DMA interrupt priority is changed to the highest
 147:Generated_Source\PSoC5/USBFS_1.c **** *   (priority 0) inside this function.
 148:Generated_Source\PSoC5/USBFS_1.c **** *
 149:Generated_Source\PSoC5/USBFS_1.c **** *   PSoC 3/PSoC 5LP devices: when USBFS component configured to DMA with
 150:Generated_Source\PSoC5/USBFS_1.c **** *   Automatic Buffer Management, the Arbiter interrupt priority is changed to
 151:Generated_Source\PSoC5/USBFS_1.c **** *   the highest (priority 0) inside this function.
 152:Generated_Source\PSoC5/USBFS_1.c **** *
 153:Generated_Source\PSoC5/USBFS_1.c **** *  \param device
 154:Generated_Source\PSoC5/USBFS_1.c **** *          Contains the device number of the desired device descriptor.
 155:Generated_Source\PSoC5/USBFS_1.c **** *          The device number can be found in the Device Descriptor Tab of
 156:Generated_Source\PSoC5/USBFS_1.c **** *          "Configure" dialog, under the settings of desired Device Descriptor,
 157:Generated_Source\PSoC5/USBFS_1.c **** *          in the "Device Number" field.
 158:Generated_Source\PSoC5/USBFS_1.c **** *  \param mode:
 159:Generated_Source\PSoC5/USBFS_1.c **** *   The operating voltage. This determines whether the voltage regulator
 160:Generated_Source\PSoC5/USBFS_1.c **** *   is enabled for 5V operation or if pass through mode is used for 3.3V
 161:Generated_Source\PSoC5/USBFS_1.c **** *   operation. Symbolic names and their associated values are given in the
 162:Generated_Source\PSoC5/USBFS_1.c **** *   following list.
 163:Generated_Source\PSoC5/USBFS_1.c **** *
 164:Generated_Source\PSoC5/USBFS_1.c **** *       *USBFS_1_3V_OPERATION* - Disable voltage regulator and pass-
 165:Generated_Source\PSoC5/USBFS_1.c **** *                                      through Vcc for pull-up
 166:Generated_Source\PSoC5/USBFS_1.c **** *
 167:Generated_Source\PSoC5/USBFS_1.c **** *       *USBFS_1_5V_OPERATION* - Enable voltage regulator and use
 168:Generated_Source\PSoC5/USBFS_1.c **** *                                      regulator for pull-up
 169:Generated_Source\PSoC5/USBFS_1.c **** *
 170:Generated_Source\PSoC5/USBFS_1.c **** *       *USBFS_1_DWR_POWER_OPERATION* - Enable or disable the voltage
 171:Generated_Source\PSoC5/USBFS_1.c **** *                                      regulator depending on the power supply
 172:Generated_Source\PSoC5/USBFS_1.c **** *                                      voltage configuration in the DWR tab.
 173:Generated_Source\PSoC5/USBFS_1.c **** *                                      For PSoC 3/5LP devices, the VDDD supply
 174:Generated_Source\PSoC5/USBFS_1.c **** *                                      voltage is considered and for PSoC 4A-L,
 175:Generated_Source\PSoC5/USBFS_1.c **** *                                      the VBUS supply voltage is considered.*
 176:Generated_Source\PSoC5/USBFS_1.c **** * \globalvars
 177:Generated_Source\PSoC5/USBFS_1.c **** *  \ref USBFS_1_initVar
 178:Generated_Source\PSoC5/USBFS_1.c **** *
 179:Generated_Source\PSoC5/USBFS_1.c **** * \sideeffect
 180:Generated_Source\PSoC5/USBFS_1.c **** *   This function will reset all communication states to default.
 181:Generated_Source\PSoC5/USBFS_1.c **** *
 182:Generated_Source\PSoC5/USBFS_1.c **** * \reentrant
 183:Generated_Source\PSoC5/USBFS_1.c **** *  No.
 184:Generated_Source\PSoC5/USBFS_1.c **** *
 185:Generated_Source\PSoC5/USBFS_1.c **** *******************************************************************************/
 186:Generated_Source\PSoC5/USBFS_1.c **** void USBFS_1_Start(uint8 device, uint8 mode) 
 187:Generated_Source\PSoC5/USBFS_1.c **** {
  34              		.loc 1 187 0
  35              		.cfi_startproc
  36              		@ args = 0, pretend = 0, frame = 8
  37              		@ frame_needed = 1, uses_anonymous_args = 0
  38 0000 80B5     		push	{r7, lr}
  39              		.cfi_def_cfa_offset 8
  40              		.cfi_offset 7, -8
  41              		.cfi_offset 14, -4
ARM GAS  C:\Users\oars0\AppData\Local\Temp\ccNqJowk.s 			page 5


  42 0002 82B0     		sub	sp, sp, #8
  43              		.cfi_def_cfa_offset 16
  44 0004 00AF     		add	r7, sp, #0
  45              		.cfi_def_cfa_register 7
  46 0006 0346     		mov	r3, r0
  47 0008 0A46     		mov	r2, r1
  48 000a FB71     		strb	r3, [r7, #7]
  49 000c 1346     		mov	r3, r2
  50 000e BB71     		strb	r3, [r7, #6]
 188:Generated_Source\PSoC5/USBFS_1.c ****     if (0u == USBFS_1_initVar)
  51              		.loc 1 188 0
  52 0010 094B     		ldr	r3, .L3
  53 0012 1B78     		ldrb	r3, [r3]	@ zero_extendqisi2
  54 0014 002B     		cmp	r3, #0
  55 0016 04D1     		bne	.L2
 189:Generated_Source\PSoC5/USBFS_1.c ****     {
 190:Generated_Source\PSoC5/USBFS_1.c ****         USBFS_1_Init();
  56              		.loc 1 190 0
  57 0018 FFF7FEFF 		bl	USBFS_1_Init
 191:Generated_Source\PSoC5/USBFS_1.c ****         USBFS_1_initVar = 1u;
  58              		.loc 1 191 0
  59 001c 064B     		ldr	r3, .L3
  60 001e 0122     		movs	r2, #1
  61 0020 1A70     		strb	r2, [r3]
  62              	.L2:
 192:Generated_Source\PSoC5/USBFS_1.c ****     }
 193:Generated_Source\PSoC5/USBFS_1.c **** 
 194:Generated_Source\PSoC5/USBFS_1.c ****     USBFS_1_InitComponent(device, mode);
  63              		.loc 1 194 0
  64 0022 BA79     		ldrb	r2, [r7, #6]	@ zero_extendqisi2
  65 0024 FB79     		ldrb	r3, [r7, #7]	@ zero_extendqisi2
  66 0026 1146     		mov	r1, r2
  67 0028 1846     		mov	r0, r3
  68 002a FFF7FEFF 		bl	USBFS_1_InitComponent
 195:Generated_Source\PSoC5/USBFS_1.c **** }
  69              		.loc 1 195 0
  70 002e 00BF     		nop
  71 0030 0837     		adds	r7, r7, #8
  72              		.cfi_def_cfa_offset 8
  73 0032 BD46     		mov	sp, r7
  74              		.cfi_def_cfa_register 13
  75              		@ sp needed
  76 0034 80BD     		pop	{r7, pc}
  77              	.L4:
  78 0036 00BF     		.align	2
  79              	.L3:
  80 0038 00000000 		.word	USBFS_1_initVar
  81              		.cfi_endproc
  82              	.LFE0:
  83              		.size	USBFS_1_Start, .-USBFS_1_Start
  84              		.section	.text.USBFS_1_Init,"ax",%progbits
  85              		.align	2
  86              		.global	USBFS_1_Init
  87              		.thumb
  88              		.thumb_func
  89              		.type	USBFS_1_Init, %function
  90              	USBFS_1_Init:
ARM GAS  C:\Users\oars0\AppData\Local\Temp\ccNqJowk.s 			page 6


  91              	.LFB1:
 196:Generated_Source\PSoC5/USBFS_1.c **** 
 197:Generated_Source\PSoC5/USBFS_1.c **** 
 198:Generated_Source\PSoC5/USBFS_1.c **** /*******************************************************************************
 199:Generated_Source\PSoC5/USBFS_1.c **** * Function Name: USBFS_1_Init
 200:Generated_Source\PSoC5/USBFS_1.c **** ****************************************************************************//**
 201:Generated_Source\PSoC5/USBFS_1.c **** *
 202:Generated_Source\PSoC5/USBFS_1.c **** * This function initializes or restores the component according to the
 203:Generated_Source\PSoC5/USBFS_1.c **** * customizer Configure dialog settings. It is not necessary to call
 204:Generated_Source\PSoC5/USBFS_1.c **** * USBFS_1_Init() because the USBFS_1_Start() routine calls
 205:Generated_Source\PSoC5/USBFS_1.c **** * this function and is the preferred method to begin component operation.
 206:Generated_Source\PSoC5/USBFS_1.c **** *
 207:Generated_Source\PSoC5/USBFS_1.c **** * \reentrant
 208:Generated_Source\PSoC5/USBFS_1.c **** *  No.
 209:Generated_Source\PSoC5/USBFS_1.c **** *
 210:Generated_Source\PSoC5/USBFS_1.c **** *******************************************************************************/
 211:Generated_Source\PSoC5/USBFS_1.c **** void USBFS_1_Init(void) 
 212:Generated_Source\PSoC5/USBFS_1.c **** {
  92              		.loc 1 212 0
  93              		.cfi_startproc
  94              		@ args = 0, pretend = 0, frame = 8
  95              		@ frame_needed = 1, uses_anonymous_args = 0
  96 0000 80B5     		push	{r7, lr}
  97              		.cfi_def_cfa_offset 8
  98              		.cfi_offset 7, -8
  99              		.cfi_offset 14, -4
 100 0002 82B0     		sub	sp, sp, #8
 101              		.cfi_def_cfa_offset 16
 102 0004 00AF     		add	r7, sp, #0
 103              		.cfi_def_cfa_register 7
 213:Generated_Source\PSoC5/USBFS_1.c **** #if (CY_PSOC4)
 214:Generated_Source\PSoC5/USBFS_1.c ****     /* Enable clock to USB IP. */
 215:Generated_Source\PSoC5/USBFS_1.c ****     USBFS_1_USB_CLK_EN_REG = USBFS_1_USB_CLK_CSR_CLK_EN;
 216:Generated_Source\PSoC5/USBFS_1.c **** 
 217:Generated_Source\PSoC5/USBFS_1.c ****     /* The internal regulator (CR1.REG_ENABLE) is enabled in
 218:Generated_Source\PSoC5/USBFS_1.c ****     * USBFS_1_InitComponent() if it is required.
 219:Generated_Source\PSoC5/USBFS_1.c ****     */
 220:Generated_Source\PSoC5/USBFS_1.c **** 
 221:Generated_Source\PSoC5/USBFS_1.c ****     /* Enable USBIO control on drive mode of D+ and D- pins. */
 222:Generated_Source\PSoC5/USBFS_1.c ****     USBFS_1_USBIO_CR1_REG &= ~ (uint32) USBFS_1_USBIO_CR1_IOMODE;
 223:Generated_Source\PSoC5/USBFS_1.c **** 
 224:Generated_Source\PSoC5/USBFS_1.c ****     /* Set number of LF CLK to detect UBS bus reset. */
 225:Generated_Source\PSoC5/USBFS_1.c ****     USBFS_1_BUS_RST_CNT_REG = USBFS_1_DEFUALT_BUS_RST_CNT;
 226:Generated_Source\PSoC5/USBFS_1.c **** 
 227:Generated_Source\PSoC5/USBFS_1.c ****     /* Select VBUS detection source and clear PHY isolate. The application level
 228:Generated_Source\PSoC5/USBFS_1.c ****     * must ensure that VBUS is valid. There is no need to wait 2us before VBUS is valid.
 229:Generated_Source\PSoC5/USBFS_1.c ****     */
 230:Generated_Source\PSoC5/USBFS_1.c ****     USBFS_1_POWER_CTRL_REG = USBFS_1_DEFAULT_POWER_CTRL_VBUS;
 231:Generated_Source\PSoC5/USBFS_1.c **** 
 232:Generated_Source\PSoC5/USBFS_1.c ****     /* Enable PHY detector and single-ended and differential receivers. */
 233:Generated_Source\PSoC5/USBFS_1.c ****     USBFS_1_POWER_CTRL_REG |= USBFS_1_DEFAULT_POWER_CTRL_PHY;
 234:Generated_Source\PSoC5/USBFS_1.c **** 
 235:Generated_Source\PSoC5/USBFS_1.c ****     /* Suspend clear sequence. */
 236:Generated_Source\PSoC5/USBFS_1.c ****     USBFS_1_POWER_CTRL_REG &= (uint32) ~USBFS_1_POWER_CTRL_SUSPEND;
 237:Generated_Source\PSoC5/USBFS_1.c ****     CyDelayUs(USBFS_1_WAIT_SUSPEND_DEL_DISABLE);
 238:Generated_Source\PSoC5/USBFS_1.c ****     USBFS_1_POWER_CTRL_REG &= (uint32) ~USBFS_1_POWER_CTRL_SUSPEND_DEL;
 239:Generated_Source\PSoC5/USBFS_1.c **** 
ARM GAS  C:\Users\oars0\AppData\Local\Temp\ccNqJowk.s 			page 7


 240:Generated_Source\PSoC5/USBFS_1.c ****     /* Sets IMO lock options and clear all other bits. */
 241:Generated_Source\PSoC5/USBFS_1.c ****     USBFS_1_CR1_REG = USBFS_1_DEFUALT_CR1;
 242:Generated_Source\PSoC5/USBFS_1.c **** 
 243:Generated_Source\PSoC5/USBFS_1.c ****     /* Configure level (hi, lo, med) for each interrupt source. */
 244:Generated_Source\PSoC5/USBFS_1.c ****     USBFS_1_INTR_LVL_SEL_REG = USBFS_1_DEFAULT_INTR_LVL_SEL;
 245:Generated_Source\PSoC5/USBFS_1.c **** 
 246:Generated_Source\PSoC5/USBFS_1.c ****     /* Configure interrupt sources from: SOF, Bus Reset and EP0. */
 247:Generated_Source\PSoC5/USBFS_1.c ****     USBFS_1_INTR_SIE_MASK_REG = USBFS_1_DEFAULT_INTR_SIE_MASK;
 248:Generated_Source\PSoC5/USBFS_1.c **** 
 249:Generated_Source\PSoC5/USBFS_1.c **** #else
 250:Generated_Source\PSoC5/USBFS_1.c ****     uint8 enableInterrupts = CyEnterCriticalSection();
 104              		.loc 1 250 0
 105 0006 FFF7FEFF 		bl	CyEnterCriticalSection
 106 000a 0346     		mov	r3, r0
 107 000c FB71     		strb	r3, [r7, #7]
 251:Generated_Source\PSoC5/USBFS_1.c **** 
 252:Generated_Source\PSoC5/USBFS_1.c **** #if (USBFS_1_EP_MANAGEMENT_DMA)
 253:Generated_Source\PSoC5/USBFS_1.c ****     uint16 i;
 254:Generated_Source\PSoC5/USBFS_1.c **** #endif /* (USBFS_1_EP_MANAGEMENT_DMA) */
 255:Generated_Source\PSoC5/USBFS_1.c **** 
 256:Generated_Source\PSoC5/USBFS_1.c ****     /* Enable USB block. */
 257:Generated_Source\PSoC5/USBFS_1.c ****     USBFS_1_PM_ACT_CFG_REG |= USBFS_1_PM_ACT_EN_FSUSB;
 108              		.loc 1 257 0
 109 000e 4C4A     		ldr	r2, .L6
 110 0010 4B4B     		ldr	r3, .L6
 111 0012 1B78     		ldrb	r3, [r3]
 112 0014 DBB2     		uxtb	r3, r3
 113 0016 43F00103 		orr	r3, r3, #1
 114 001a DBB2     		uxtb	r3, r3
 115 001c 1370     		strb	r3, [r2]
 258:Generated_Source\PSoC5/USBFS_1.c ****     /* Enable USB block for Standby Power Mode. */
 259:Generated_Source\PSoC5/USBFS_1.c ****     USBFS_1_PM_STBY_CFG_REG |= USBFS_1_PM_STBY_EN_FSUSB;
 116              		.loc 1 259 0
 117 001e 494A     		ldr	r2, .L6+4
 118 0020 484B     		ldr	r3, .L6+4
 119 0022 1B78     		ldrb	r3, [r3]
 120 0024 DBB2     		uxtb	r3, r3
 121 0026 43F00103 		orr	r3, r3, #1
 122 002a DBB2     		uxtb	r3, r3
 123 002c 1370     		strb	r3, [r2]
 260:Generated_Source\PSoC5/USBFS_1.c **** 
 261:Generated_Source\PSoC5/USBFS_1.c ****     /* Enable core clock. */
 262:Generated_Source\PSoC5/USBFS_1.c ****     USBFS_1_USB_CLK_EN_REG = USBFS_1_USB_CLK_ENABLE;
 124              		.loc 1 262 0
 125 002e 464B     		ldr	r3, .L6+8
 126 0030 0122     		movs	r2, #1
 127 0032 1A70     		strb	r2, [r3]
 263:Generated_Source\PSoC5/USBFS_1.c **** 
 264:Generated_Source\PSoC5/USBFS_1.c ****     USBFS_1_CR1_REG = USBFS_1_CR1_ENABLE_LOCK;
 128              		.loc 1 264 0
 129 0034 454B     		ldr	r3, .L6+12
 130 0036 0222     		movs	r2, #2
 131 0038 1A70     		strb	r2, [r3]
 265:Generated_Source\PSoC5/USBFS_1.c **** 
 266:Generated_Source\PSoC5/USBFS_1.c ****     /* ENABLING USBIO PADS IN USB MODE FROM I/O MODE. */
 267:Generated_Source\PSoC5/USBFS_1.c ****     /* Ensure USB transmit enable is low (USB_USBIO_CR0.ten). - Manual Transmission - Disabled. */
 268:Generated_Source\PSoC5/USBFS_1.c ****     USBFS_1_USBIO_CR0_REG &= (uint8) ~USBFS_1_USBIO_CR0_TEN;
ARM GAS  C:\Users\oars0\AppData\Local\Temp\ccNqJowk.s 			page 8


 132              		.loc 1 268 0
 133 003a 454A     		ldr	r2, .L6+16
 134 003c 444B     		ldr	r3, .L6+16
 135 003e 1B78     		ldrb	r3, [r3]
 136 0040 DBB2     		uxtb	r3, r3
 137 0042 03F07F03 		and	r3, r3, #127
 138 0046 DBB2     		uxtb	r3, r3
 139 0048 1370     		strb	r3, [r2]
 269:Generated_Source\PSoC5/USBFS_1.c ****     CyDelayUs(USBFS_1_WAIT_REG_STABILITY_50NS);  /* ~50ns delay. */
 140              		.loc 1 269 0
 141 004a 0020     		movs	r0, #0
 142 004c FFF7FEFF 		bl	CyDelayUs
 270:Generated_Source\PSoC5/USBFS_1.c ****     /* Disable USBIO by asserting PM.USB_CR0.fsusbio_pd_n(Inverted.
 271:Generated_Source\PSoC5/USBFS_1.c ****     *  high. These bits will be set low by the power manager out-of-reset.
 272:Generated_Source\PSoC5/USBFS_1.c ****     *  Also confirm USBIO pull-up is disabled.
 273:Generated_Source\PSoC5/USBFS_1.c ****     */
 274:Generated_Source\PSoC5/USBFS_1.c ****     USBFS_1_PM_USB_CR0_REG &= (uint8) ~(USBFS_1_PM_USB_CR0_PD_N |
 143              		.loc 1 274 0
 144 0050 404A     		ldr	r2, .L6+20
 145 0052 404B     		ldr	r3, .L6+20
 146 0054 1B78     		ldrb	r3, [r3]
 147 0056 DBB2     		uxtb	r3, r3
 148 0058 23F00603 		bic	r3, r3, #6
 149 005c DBB2     		uxtb	r3, r3
 150 005e 1370     		strb	r3, [r2]
 275:Generated_Source\PSoC5/USBFS_1.c ****                                                  USBFS_1_PM_USB_CR0_PD_PULLUP_N);
 276:Generated_Source\PSoC5/USBFS_1.c **** 
 277:Generated_Source\PSoC5/USBFS_1.c ****     /* Select IOMODE to USB mode. */
 278:Generated_Source\PSoC5/USBFS_1.c ****     USBFS_1_USBIO_CR1_REG &= (uint8) ~USBFS_1_USBIO_CR1_IOMODE;
 151              		.loc 1 278 0
 152 0060 3D4A     		ldr	r2, .L6+24
 153 0062 3D4B     		ldr	r3, .L6+24
 154 0064 1B78     		ldrb	r3, [r3]
 155 0066 DBB2     		uxtb	r3, r3
 156 0068 23F02003 		bic	r3, r3, #32
 157 006c DBB2     		uxtb	r3, r3
 158 006e 1370     		strb	r3, [r2]
 279:Generated_Source\PSoC5/USBFS_1.c **** 
 280:Generated_Source\PSoC5/USBFS_1.c ****     /* Enable USBIO reference by setting PM.USB_CR0.fsusbio_ref_en. */
 281:Generated_Source\PSoC5/USBFS_1.c ****     USBFS_1_PM_USB_CR0_REG |= USBFS_1_PM_USB_CR0_REF_EN;
 159              		.loc 1 281 0
 160 0070 384A     		ldr	r2, .L6+20
 161 0072 384B     		ldr	r3, .L6+20
 162 0074 1B78     		ldrb	r3, [r3]
 163 0076 DBB2     		uxtb	r3, r3
 164 0078 43F00103 		orr	r3, r3, #1
 165 007c DBB2     		uxtb	r3, r3
 166 007e 1370     		strb	r3, [r2]
 282:Generated_Source\PSoC5/USBFS_1.c ****     /* Reference is available for 1us after regulator is enabled. */
 283:Generated_Source\PSoC5/USBFS_1.c ****     CyDelayUs(USBFS_1_WAIT_REG_STABILITY_1US);
 167              		.loc 1 283 0
 168 0080 0120     		movs	r0, #1
 169 0082 FFF7FEFF 		bl	CyDelayUs
 284:Generated_Source\PSoC5/USBFS_1.c ****     /* OR 40us after power is restored. */
 285:Generated_Source\PSoC5/USBFS_1.c ****     CyDelayUs(USBFS_1_WAIT_VREF_RESTORE);
 170              		.loc 1 285 0
 171 0086 2820     		movs	r0, #40
ARM GAS  C:\Users\oars0\AppData\Local\Temp\ccNqJowk.s 			page 9


 172 0088 FFF7FEFF 		bl	CyDelayUs
 286:Generated_Source\PSoC5/USBFS_1.c ****     /* Ensure single-ended disable bits are low (PRT15.INP_DIS[7:6])(input receiver enabled). */
 287:Generated_Source\PSoC5/USBFS_1.c ****     USBFS_1_DM_INP_DIS_REG &= (uint8) ~USBFS_1_DM_MASK;
 173              		.loc 1 287 0
 174 008c 334A     		ldr	r2, .L6+28
 175 008e 334B     		ldr	r3, .L6+28
 176 0090 1B78     		ldrb	r3, [r3]
 177 0092 DBB2     		uxtb	r3, r3
 178 0094 03F07F03 		and	r3, r3, #127
 179 0098 DBB2     		uxtb	r3, r3
 180 009a 1370     		strb	r3, [r2]
 288:Generated_Source\PSoC5/USBFS_1.c ****     USBFS_1_DP_INP_DIS_REG &= (uint8) ~USBFS_1_DP_MASK;
 181              		.loc 1 288 0
 182 009c 2F4A     		ldr	r2, .L6+28
 183 009e 2F4B     		ldr	r3, .L6+28
 184 00a0 1B78     		ldrb	r3, [r3]
 185 00a2 DBB2     		uxtb	r3, r3
 186 00a4 23F04003 		bic	r3, r3, #64
 187 00a8 DBB2     		uxtb	r3, r3
 188 00aa 1370     		strb	r3, [r2]
 289:Generated_Source\PSoC5/USBFS_1.c **** 
 290:Generated_Source\PSoC5/USBFS_1.c ****     /* Enable USBIO. */
 291:Generated_Source\PSoC5/USBFS_1.c ****     USBFS_1_PM_USB_CR0_REG |= USBFS_1_PM_USB_CR0_PD_N;
 189              		.loc 1 291 0
 190 00ac 294A     		ldr	r2, .L6+20
 191 00ae 294B     		ldr	r3, .L6+20
 192 00b0 1B78     		ldrb	r3, [r3]
 193 00b2 DBB2     		uxtb	r3, r3
 194 00b4 43F00203 		orr	r3, r3, #2
 195 00b8 DBB2     		uxtb	r3, r3
 196 00ba 1370     		strb	r3, [r2]
 292:Generated_Source\PSoC5/USBFS_1.c ****     CyDelayUs(USBFS_1_WAIT_PD_PULLUP_N_ENABLE);
 197              		.loc 1 292 0
 198 00bc 0220     		movs	r0, #2
 199 00be FFF7FEFF 		bl	CyDelayUs
 293:Generated_Source\PSoC5/USBFS_1.c ****     /* Set USBIO pull-up enable. */
 294:Generated_Source\PSoC5/USBFS_1.c ****     USBFS_1_PM_USB_CR0_REG |= USBFS_1_PM_USB_CR0_PD_PULLUP_N;
 200              		.loc 1 294 0
 201 00c2 244A     		ldr	r2, .L6+20
 202 00c4 234B     		ldr	r3, .L6+20
 203 00c6 1B78     		ldrb	r3, [r3]
 204 00c8 DBB2     		uxtb	r3, r3
 205 00ca 43F00403 		orr	r3, r3, #4
 206 00ce DBB2     		uxtb	r3, r3
 207 00d0 1370     		strb	r3, [r2]
 295:Generated_Source\PSoC5/USBFS_1.c **** 
 296:Generated_Source\PSoC5/USBFS_1.c ****     /* Reset Arbiter Write Address register for endpoint 1. */
 297:Generated_Source\PSoC5/USBFS_1.c ****     CY_SET_REG8(USBFS_1_ARB_RW1_WA_PTR,     0u);
 208              		.loc 1 297 0
 209 00d2 234B     		ldr	r3, .L6+32
 210 00d4 0022     		movs	r2, #0
 211 00d6 1A70     		strb	r2, [r3]
 298:Generated_Source\PSoC5/USBFS_1.c ****     CY_SET_REG8(USBFS_1_ARB_RW1_WA_MSB_PTR, 0u);
 212              		.loc 1 298 0
 213 00d8 224B     		ldr	r3, .L6+36
 214 00da 0022     		movs	r2, #0
 215 00dc 1A70     		strb	r2, [r3]
ARM GAS  C:\Users\oars0\AppData\Local\Temp\ccNqJowk.s 			page 10


 299:Generated_Source\PSoC5/USBFS_1.c **** 
 300:Generated_Source\PSoC5/USBFS_1.c **** #if (USBFS_1_EP_MANAGEMENT_DMA)
 301:Generated_Source\PSoC5/USBFS_1.c ****     /* Initialize transfer descriptor. This will be used to detect DMA state - initialized or not. 
 302:Generated_Source\PSoC5/USBFS_1.c ****     for (i = 0u; i < USBFS_1_MAX_EP; ++i)
 303:Generated_Source\PSoC5/USBFS_1.c ****     {
 304:Generated_Source\PSoC5/USBFS_1.c ****         USBFS_1_DmaTd[i] = DMA_INVALID_TD;
 305:Generated_Source\PSoC5/USBFS_1.c **** 
 306:Generated_Source\PSoC5/USBFS_1.c ****     #if (USBFS_1_EP_MANAGEMENT_DMA_AUTO && (USBFS_1_EP_DMA_AUTO_OPT == 0u))
 307:Generated_Source\PSoC5/USBFS_1.c ****         USBFS_1_DmaNextTd[i] = DMA_INVALID_TD;
 308:Generated_Source\PSoC5/USBFS_1.c ****     #endif /* (USBFS_1_EP_MANAGEMENT_DMA_AUTO && (USBFS_1_EP_DMA_AUTO_OPT == 0u)) */
 309:Generated_Source\PSoC5/USBFS_1.c ****     }
 310:Generated_Source\PSoC5/USBFS_1.c **** #endif /* (USBFS_1_EP_MANAGEMENT_DMA) */
 311:Generated_Source\PSoC5/USBFS_1.c **** 
 312:Generated_Source\PSoC5/USBFS_1.c ****     CyExitCriticalSection(enableInterrupts);
 216              		.loc 1 312 0
 217 00de FB79     		ldrb	r3, [r7, #7]	@ zero_extendqisi2
 218 00e0 1846     		mov	r0, r3
 219 00e2 FFF7FEFF 		bl	CyExitCriticalSection
 313:Generated_Source\PSoC5/USBFS_1.c **** #endif /* (CY_PSOC4) */
 314:Generated_Source\PSoC5/USBFS_1.c **** 
 315:Generated_Source\PSoC5/USBFS_1.c ****     /* Configure interrupts from USB block. */
 316:Generated_Source\PSoC5/USBFS_1.c **** #if (CY_PSOC4)
 317:Generated_Source\PSoC5/USBFS_1.c ****     /* Configure hi_int: set handler and priority. */
 318:Generated_Source\PSoC5/USBFS_1.c ****     CyIntSetPriority     (USBFS_1_INTR_HI_VECT_NUM,  USBFS_1_INTR_HI_PRIORITY);
 319:Generated_Source\PSoC5/USBFS_1.c ****     (void) CyIntSetVector(USBFS_1_INTR_HI_VECT_NUM, &USBFS_1_INTR_HI_ISR);
 320:Generated_Source\PSoC5/USBFS_1.c **** 
 321:Generated_Source\PSoC5/USBFS_1.c ****     /* Configure lo_int: set handler and priority. */
 322:Generated_Source\PSoC5/USBFS_1.c ****     CyIntSetPriority     (USBFS_1_INTR_LO_VECT_NUM,  USBFS_1_INTR_LO_PRIORITY);
 323:Generated_Source\PSoC5/USBFS_1.c ****     (void) CyIntSetVector(USBFS_1_INTR_LO_VECT_NUM, &USBFS_1_INTR_LO_ISR);
 324:Generated_Source\PSoC5/USBFS_1.c **** 
 325:Generated_Source\PSoC5/USBFS_1.c ****     /* Configure med_int: set handler and priority (routed through DSI). */
 326:Generated_Source\PSoC5/USBFS_1.c ****     CyIntSetPriority     (USBFS_1_INTR_MED_VECT_NUM,  USBFS_1_INTR_MED_PRIORITY);
 327:Generated_Source\PSoC5/USBFS_1.c ****     (void) CyIntSetVector(USBFS_1_INTR_MED_VECT_NUM, &USBFS_1_INTR_MED_ISR);
 328:Generated_Source\PSoC5/USBFS_1.c **** 
 329:Generated_Source\PSoC5/USBFS_1.c **** #else
 330:Generated_Source\PSoC5/USBFS_1.c ****     /* Set bus reset interrupt. */
 331:Generated_Source\PSoC5/USBFS_1.c ****     CyIntSetPriority(USBFS_1_BUS_RESET_VECT_NUM, USBFS_1_BUS_RESET_PRIOR);
 220              		.loc 1 331 0
 221 00e6 0721     		movs	r1, #7
 222 00e8 1720     		movs	r0, #23
 223 00ea FFF7FEFF 		bl	CyIntSetPriority
 332:Generated_Source\PSoC5/USBFS_1.c ****     (void) CyIntSetVector(USBFS_1_BUS_RESET_VECT_NUM,   &USBFS_1_BUS_RESET_ISR);
 224              		.loc 1 332 0
 225 00ee 1E49     		ldr	r1, .L6+40
 226 00f0 1720     		movs	r0, #23
 227 00f2 FFF7FEFF 		bl	CyIntSetVector
 333:Generated_Source\PSoC5/USBFS_1.c **** 
 334:Generated_Source\PSoC5/USBFS_1.c ****     /* Set Control Endpoint Interrupt. */
 335:Generated_Source\PSoC5/USBFS_1.c ****     CyIntSetPriority(USBFS_1_EP_0_VECT_NUM, USBFS_1_EP_0_PRIOR);
 228              		.loc 1 335 0
 229 00f6 0721     		movs	r1, #7
 230 00f8 1820     		movs	r0, #24
 231 00fa FFF7FEFF 		bl	CyIntSetPriority
 336:Generated_Source\PSoC5/USBFS_1.c ****     (void) CyIntSetVector(USBFS_1_EP_0_VECT_NUM,   &USBFS_1_EP_0_ISR);
 232              		.loc 1 336 0
 233 00fe 1B49     		ldr	r1, .L6+44
 234 0100 1820     		movs	r0, #24
ARM GAS  C:\Users\oars0\AppData\Local\Temp\ccNqJowk.s 			page 11


 235 0102 FFF7FEFF 		bl	CyIntSetVector
 337:Generated_Source\PSoC5/USBFS_1.c **** 
 338:Generated_Source\PSoC5/USBFS_1.c ****     /* Set SOF interrupt. */
 339:Generated_Source\PSoC5/USBFS_1.c ****     #if (USBFS_1_SOF_ISR_ACTIVE)
 340:Generated_Source\PSoC5/USBFS_1.c ****         CyIntSetPriority     (USBFS_1_SOF_VECT_NUM,  USBFS_1_SOF_PRIOR);
 236              		.loc 1 340 0
 237 0106 0721     		movs	r1, #7
 238 0108 1520     		movs	r0, #21
 239 010a FFF7FEFF 		bl	CyIntSetPriority
 341:Generated_Source\PSoC5/USBFS_1.c ****         (void) CyIntSetVector(USBFS_1_SOF_VECT_NUM, &USBFS_1_SOF_ISR);
 240              		.loc 1 341 0
 241 010e 1849     		ldr	r1, .L6+48
 242 0110 1520     		movs	r0, #21
 243 0112 FFF7FEFF 		bl	CyIntSetVector
 342:Generated_Source\PSoC5/USBFS_1.c ****     #endif /* (USBFS_1_SOF_ISR_ACTIVE) */
 343:Generated_Source\PSoC5/USBFS_1.c **** 
 344:Generated_Source\PSoC5/USBFS_1.c ****     /* Set Data Endpoint 1 Interrupt. */
 345:Generated_Source\PSoC5/USBFS_1.c ****     #if (USBFS_1_EP1_ISR_ACTIVE)
 346:Generated_Source\PSoC5/USBFS_1.c ****         CyIntSetPriority     (USBFS_1_EP_1_VECT_NUM,  USBFS_1_EP_1_PRIOR);
 244              		.loc 1 346 0
 245 0116 0721     		movs	r1, #7
 246 0118 0120     		movs	r0, #1
 247 011a FFF7FEFF 		bl	CyIntSetPriority
 347:Generated_Source\PSoC5/USBFS_1.c ****         (void) CyIntSetVector(USBFS_1_EP_1_VECT_NUM,  &USBFS_1_EP_1_ISR);
 248              		.loc 1 347 0
 249 011e 1549     		ldr	r1, .L6+52
 250 0120 0120     		movs	r0, #1
 251 0122 FFF7FEFF 		bl	CyIntSetVector
 348:Generated_Source\PSoC5/USBFS_1.c ****     #endif /* (USBFS_1_EP1_ISR_ACTIVE) */
 349:Generated_Source\PSoC5/USBFS_1.c **** 
 350:Generated_Source\PSoC5/USBFS_1.c ****     /* Set Data Endpoint 2 Interrupt. */
 351:Generated_Source\PSoC5/USBFS_1.c ****     #if (USBFS_1_EP2_ISR_ACTIVE)
 352:Generated_Source\PSoC5/USBFS_1.c ****         CyIntSetPriority     (USBFS_1_EP_2_VECT_NUM,  USBFS_1_EP_2_PRIOR);
 353:Generated_Source\PSoC5/USBFS_1.c ****         (void) CyIntSetVector(USBFS_1_EP_2_VECT_NUM, &USBFS_1_EP_2_ISR);
 354:Generated_Source\PSoC5/USBFS_1.c ****     #endif /* (USBFS_1_EP2_ISR_ACTIVE) */
 355:Generated_Source\PSoC5/USBFS_1.c **** 
 356:Generated_Source\PSoC5/USBFS_1.c ****     /* Set Data Endpoint 3 Interrupt. */
 357:Generated_Source\PSoC5/USBFS_1.c ****     #if (USBFS_1_EP3_ISR_ACTIVE)
 358:Generated_Source\PSoC5/USBFS_1.c ****         CyIntSetPriority     (USBFS_1_EP_3_VECT_NUM,  USBFS_1_EP_3_PRIOR);
 359:Generated_Source\PSoC5/USBFS_1.c ****         (void) CyIntSetVector(USBFS_1_EP_3_VECT_NUM, &USBFS_1_EP_3_ISR);
 360:Generated_Source\PSoC5/USBFS_1.c ****     #endif /* (USBFS_1_EP3_ISR_ACTIVE) */
 361:Generated_Source\PSoC5/USBFS_1.c **** 
 362:Generated_Source\PSoC5/USBFS_1.c ****     /* Set Data Endpoint 4 Interrupt. */
 363:Generated_Source\PSoC5/USBFS_1.c ****     #if (USBFS_1_EP4_ISR_ACTIVE)
 364:Generated_Source\PSoC5/USBFS_1.c ****         CyIntSetPriority     (USBFS_1_EP_4_VECT_NUM,  USBFS_1_EP_4_PRIOR);
 365:Generated_Source\PSoC5/USBFS_1.c ****         (void) CyIntSetVector(USBFS_1_EP_4_VECT_NUM, &USBFS_1_EP_4_ISR);
 366:Generated_Source\PSoC5/USBFS_1.c ****     #endif /* (USBFS_1_EP4_ISR_ACTIVE) */
 367:Generated_Source\PSoC5/USBFS_1.c **** 
 368:Generated_Source\PSoC5/USBFS_1.c ****     /* Set Data Endpoint 5 Interrupt. */
 369:Generated_Source\PSoC5/USBFS_1.c ****     #if (USBFS_1_EP5_ISR_ACTIVE)
 370:Generated_Source\PSoC5/USBFS_1.c ****         CyIntSetPriority     (USBFS_1_EP_5_VECT_NUM,  USBFS_1_EP_5_PRIOR);
 371:Generated_Source\PSoC5/USBFS_1.c ****         (void) CyIntSetVector(USBFS_1_EP_5_VECT_NUM, &USBFS_1_EP_5_ISR);
 372:Generated_Source\PSoC5/USBFS_1.c ****     #endif /* (USBFS_1_EP5_ISR_ACTIVE) */
 373:Generated_Source\PSoC5/USBFS_1.c **** 
 374:Generated_Source\PSoC5/USBFS_1.c ****     /* Set Data Endpoint 6 Interrupt. */
 375:Generated_Source\PSoC5/USBFS_1.c ****     #if (USBFS_1_EP6_ISR_ACTIVE)
 376:Generated_Source\PSoC5/USBFS_1.c ****         CyIntSetPriority     (USBFS_1_EP_6_VECT_NUM,  USBFS_1_EP_6_PRIOR);
ARM GAS  C:\Users\oars0\AppData\Local\Temp\ccNqJowk.s 			page 12


 377:Generated_Source\PSoC5/USBFS_1.c ****         (void) CyIntSetVector(USBFS_1_EP_6_VECT_NUM, &USBFS_1_EP_6_ISR);
 378:Generated_Source\PSoC5/USBFS_1.c ****     #endif /* (USBFS_1_EP6_ISR_ACTIVE) */
 379:Generated_Source\PSoC5/USBFS_1.c **** 
 380:Generated_Source\PSoC5/USBFS_1.c ****      /* Set Data Endpoint 7 Interrupt. */
 381:Generated_Source\PSoC5/USBFS_1.c ****     #if (USBFS_1_EP7_ISR_ACTIVE)
 382:Generated_Source\PSoC5/USBFS_1.c ****         CyIntSetPriority     (USBFS_1_EP_7_VECT_NUM,  USBFS_1_EP_7_PRIOR);
 383:Generated_Source\PSoC5/USBFS_1.c ****         (void) CyIntSetVector(USBFS_1_EP_7_VECT_NUM, &USBFS_1_EP_7_ISR);
 384:Generated_Source\PSoC5/USBFS_1.c ****     #endif /* (USBFS_1_EP7_ISR_ACTIVE) */
 385:Generated_Source\PSoC5/USBFS_1.c **** 
 386:Generated_Source\PSoC5/USBFS_1.c ****     /* Set Data Endpoint 8 Interrupt. */
 387:Generated_Source\PSoC5/USBFS_1.c ****     #if (USBFS_1_EP8_ISR_ACTIVE)
 388:Generated_Source\PSoC5/USBFS_1.c ****         CyIntSetPriority     (USBFS_1_EP_8_VECT_NUM,  USBFS_1_EP_8_PRIOR);
 389:Generated_Source\PSoC5/USBFS_1.c ****         (void) CyIntSetVector(USBFS_1_EP_8_VECT_NUM, &USBFS_1_EP_8_ISR);
 390:Generated_Source\PSoC5/USBFS_1.c ****     #endif /* (USBFS_1_EP8_ISR_ACTIVE) */
 391:Generated_Source\PSoC5/USBFS_1.c **** 
 392:Generated_Source\PSoC5/USBFS_1.c ****     /* Set ARB Interrupt. */
 393:Generated_Source\PSoC5/USBFS_1.c ****     #if (USBFS_1_EP_MANAGEMENT_DMA && USBFS_1_ARB_ISR_ACTIVE)
 394:Generated_Source\PSoC5/USBFS_1.c ****         CyIntSetPriority     (USBFS_1_ARB_VECT_NUM,  USBFS_1_ARB_PRIOR);
 395:Generated_Source\PSoC5/USBFS_1.c ****         (void) CyIntSetVector(USBFS_1_ARB_VECT_NUM, &USBFS_1_ARB_ISR);
 396:Generated_Source\PSoC5/USBFS_1.c ****     #endif /* (USBFS_1_EP_MANAGEMENT_DMA && USBFS_1_ARB_ISR_ACTIVE) */
 397:Generated_Source\PSoC5/USBFS_1.c **** #endif /* (CY_PSOC4) */
 398:Generated_Source\PSoC5/USBFS_1.c **** 
 399:Generated_Source\PSoC5/USBFS_1.c ****     /* Common: Configure GPIO interrupt for wakeup. */
 400:Generated_Source\PSoC5/USBFS_1.c **** #if (USBFS_1_DP_ISR_ACTIVE)
 401:Generated_Source\PSoC5/USBFS_1.c ****     CyIntSetPriority     (USBFS_1_DP_INTC_VECT_NUM,  USBFS_1_DP_INTC_PRIORITY);
 252              		.loc 1 401 0
 253 0126 0721     		movs	r1, #7
 254 0128 0C20     		movs	r0, #12
 255 012a FFF7FEFF 		bl	CyIntSetPriority
 402:Generated_Source\PSoC5/USBFS_1.c ****     (void) CyIntSetVector(USBFS_1_DP_INTC_VECT_NUM, &USBFS_1_DP_ISR);
 256              		.loc 1 402 0
 257 012e 1249     		ldr	r1, .L6+56
 258 0130 0C20     		movs	r0, #12
 259 0132 FFF7FEFF 		bl	CyIntSetVector
 403:Generated_Source\PSoC5/USBFS_1.c **** #endif /* (USBFS_1_DP_ISR_ACTIVE) */
 404:Generated_Source\PSoC5/USBFS_1.c **** 
 405:Generated_Source\PSoC5/USBFS_1.c **** #if (USBFS_1_EP_MANAGEMENT_DMA && CY_PSOC4)
 406:Generated_Source\PSoC5/USBFS_1.c ****     /* Initialize DMA channels. */
 407:Generated_Source\PSoC5/USBFS_1.c ****     USBFS_1_InitEpDma();
 408:Generated_Source\PSoC5/USBFS_1.c **** #endif /* (USBFS_1_EP_MANAGEMENT_DMA && CY_PSOC4) */
 409:Generated_Source\PSoC5/USBFS_1.c **** }
 260              		.loc 1 409 0
 261 0136 00BF     		nop
 262 0138 0837     		adds	r7, r7, #8
 263              		.cfi_def_cfa_offset 8
 264 013a BD46     		mov	sp, r7
 265              		.cfi_def_cfa_register 13
 266              		@ sp needed
 267 013c 80BD     		pop	{r7, pc}
 268              	.L7:
 269 013e 00BF     		.align	2
 270              	.L6:
 271 0140 A5430040 		.word	1073759141
 272 0144 B5430040 		.word	1073759157
 273 0148 9D600040 		.word	1073766557
 274 014c 09600040 		.word	1073766409
 275 0150 10600040 		.word	1073766416
ARM GAS  C:\Users\oars0\AppData\Local\Temp\ccNqJowk.s 			page 13


 276 0154 94430040 		.word	1073759124
 277 0158 12600040 		.word	1073766418
 278 015c F8510040 		.word	1073762808
 279 0160 84600040 		.word	1073766532
 280 0164 85600040 		.word	1073766533
 281 0168 00000000 		.word	USBFS_1_BUS_RESET_ISR
 282 016c 00000000 		.word	USBFS_1_EP_0_ISR
 283 0170 00000000 		.word	USBFS_1_SOF_ISR
 284 0174 00000000 		.word	USBFS_1_EP_1_ISR
 285 0178 00000000 		.word	USBFS_1_DP_ISR
 286              		.cfi_endproc
 287              	.LFE1:
 288              		.size	USBFS_1_Init, .-USBFS_1_Init
 289              		.section	.text.USBFS_1_InitComponent,"ax",%progbits
 290              		.align	2
 291              		.global	USBFS_1_InitComponent
 292              		.thumb
 293              		.thumb_func
 294              		.type	USBFS_1_InitComponent, %function
 295              	USBFS_1_InitComponent:
 296              	.LFB2:
 410:Generated_Source\PSoC5/USBFS_1.c **** 
 411:Generated_Source\PSoC5/USBFS_1.c **** 
 412:Generated_Source\PSoC5/USBFS_1.c **** /*******************************************************************************
 413:Generated_Source\PSoC5/USBFS_1.c **** * Function Name: USBFS_1_InitComponent
 414:Generated_Source\PSoC5/USBFS_1.c **** ****************************************************************************//**
 415:Generated_Source\PSoC5/USBFS_1.c **** *
 416:Generated_Source\PSoC5/USBFS_1.c **** *   This function initializes the component’s global variables and initiates
 417:Generated_Source\PSoC5/USBFS_1.c **** *   communication with the host by pull-up D+ line.
 418:Generated_Source\PSoC5/USBFS_1.c **** *
 419:Generated_Source\PSoC5/USBFS_1.c **** * \param device:
 420:Generated_Source\PSoC5/USBFS_1.c **** *   Contains the device number of the desired device descriptor. The device
 421:Generated_Source\PSoC5/USBFS_1.c **** *   number can be found in the Device Descriptor Tab of "Configure" dialog,
 422:Generated_Source\PSoC5/USBFS_1.c **** *   under the settings of desired Device Descriptor, in the *Device Number*
 423:Generated_Source\PSoC5/USBFS_1.c **** *   field.
 424:Generated_Source\PSoC5/USBFS_1.c **** *  \param mode:
 425:Generated_Source\PSoC5/USBFS_1.c **** *   The operating voltage. This determines whether the voltage regulator
 426:Generated_Source\PSoC5/USBFS_1.c **** *   is enabled for 5V operation or if pass through mode is used for 3.3V
 427:Generated_Source\PSoC5/USBFS_1.c **** *   operation. Symbolic names and their associated values are given in the
 428:Generated_Source\PSoC5/USBFS_1.c **** *   following list.
 429:Generated_Source\PSoC5/USBFS_1.c **** *
 430:Generated_Source\PSoC5/USBFS_1.c **** *       *USBFS_1_3V_OPERATION* - Disable voltage regulator and pass-
 431:Generated_Source\PSoC5/USBFS_1.c **** *                                      through Vcc for pull-up
 432:Generated_Source\PSoC5/USBFS_1.c **** *
 433:Generated_Source\PSoC5/USBFS_1.c **** *       *USBFS_1_5V_OPERATION* - Enable voltage regulator and use
 434:Generated_Source\PSoC5/USBFS_1.c **** *                                      regulator for pull-up
 435:Generated_Source\PSoC5/USBFS_1.c **** *
 436:Generated_Source\PSoC5/USBFS_1.c **** *       *USBFS_1_DWR_POWER_OPERATION* - Enable or disable the voltage
 437:Generated_Source\PSoC5/USBFS_1.c **** *                                      regulator depending on the power supply
 438:Generated_Source\PSoC5/USBFS_1.c **** *                                      voltage configuration in the DWR tab.
 439:Generated_Source\PSoC5/USBFS_1.c **** *                                      For PSoC 3/5LP devices, the VDDD supply
 440:Generated_Source\PSoC5/USBFS_1.c **** *                                      voltage is considered and for PSoC 4A-L,
 441:Generated_Source\PSoC5/USBFS_1.c **** *                                      the VBUS supply voltage is considered.
 442:Generated_Source\PSoC5/USBFS_1.c **** *
 443:Generated_Source\PSoC5/USBFS_1.c **** * \globalvars
 444:Generated_Source\PSoC5/USBFS_1.c **** *   \ref USBFS_1_device
 445:Generated_Source\PSoC5/USBFS_1.c **** *   \ref USBFS_1_transferState
ARM GAS  C:\Users\oars0\AppData\Local\Temp\ccNqJowk.s 			page 14


 446:Generated_Source\PSoC5/USBFS_1.c **** *   \ref USBFS_1_configuration
 447:Generated_Source\PSoC5/USBFS_1.c **** *   \ref USBFS_1_deviceStatus
 448:Generated_Source\PSoC5/USBFS_1.c **** *
 449:Generated_Source\PSoC5/USBFS_1.c **** *   \ref USBFS_1_deviceAddress - Contains the current device address. This
 450:Generated_Source\PSoC5/USBFS_1.c **** *       variable is initialized to zero in this API. The Host starts to communicate
 451:Generated_Source\PSoC5/USBFS_1.c **** *      to the device with address 0 and then sets it to a whatever value using a
 452:Generated_Source\PSoC5/USBFS_1.c **** *      SET_ADDRESS request.
 453:Generated_Source\PSoC5/USBFS_1.c **** *
 454:Generated_Source\PSoC5/USBFS_1.c **** *   \ref USBFS_1_lastPacketSize - Initialized to 0;
 455:Generated_Source\PSoC5/USBFS_1.c **** *
 456:Generated_Source\PSoC5/USBFS_1.c **** * \reentrant
 457:Generated_Source\PSoC5/USBFS_1.c **** *  No.
 458:Generated_Source\PSoC5/USBFS_1.c **** *
 459:Generated_Source\PSoC5/USBFS_1.c **** *******************************************************************************/
 460:Generated_Source\PSoC5/USBFS_1.c **** void USBFS_1_InitComponent(uint8 device, uint8 mode) 
 461:Generated_Source\PSoC5/USBFS_1.c **** {
 297              		.loc 1 461 0
 298              		.cfi_startproc
 299              		@ args = 0, pretend = 0, frame = 16
 300              		@ frame_needed = 1, uses_anonymous_args = 0
 301 0000 80B5     		push	{r7, lr}
 302              		.cfi_def_cfa_offset 8
 303              		.cfi_offset 7, -8
 304              		.cfi_offset 14, -4
 305 0002 84B0     		sub	sp, sp, #16
 306              		.cfi_def_cfa_offset 24
 307 0004 00AF     		add	r7, sp, #0
 308              		.cfi_def_cfa_register 7
 309 0006 0346     		mov	r3, r0
 310 0008 0A46     		mov	r2, r1
 311 000a FB71     		strb	r3, [r7, #7]
 312 000c 1346     		mov	r3, r2
 313 000e BB71     		strb	r3, [r7, #6]
 462:Generated_Source\PSoC5/USBFS_1.c ****     /* Initialize _hidProtocol variable to comply with
 463:Generated_Source\PSoC5/USBFS_1.c ****     *  HID 7.2.6 Set_Protocol Request:
 464:Generated_Source\PSoC5/USBFS_1.c ****     *  "When initialized, all devices default to report protocol."
 465:Generated_Source\PSoC5/USBFS_1.c ****     */
 466:Generated_Source\PSoC5/USBFS_1.c **** #if defined(USBFS_1_ENABLE_HID_CLASS)
 467:Generated_Source\PSoC5/USBFS_1.c ****     uint8 i;
 468:Generated_Source\PSoC5/USBFS_1.c **** 
 469:Generated_Source\PSoC5/USBFS_1.c ****     for (i = 0u; i < USBFS_1_MAX_INTERFACES_NUMBER; i++)
 314              		.loc 1 469 0
 315 0010 0023     		movs	r3, #0
 316 0012 FB73     		strb	r3, [r7, #15]
 317 0014 06E0     		b	.L9
 318              	.L10:
 470:Generated_Source\PSoC5/USBFS_1.c ****     {
 471:Generated_Source\PSoC5/USBFS_1.c ****         USBFS_1_hidProtocol[i] = USBFS_1_PROTOCOL_REPORT;
 319              		.loc 1 471 0 discriminator 3
 320 0016 FB7B     		ldrb	r3, [r7, #15]	@ zero_extendqisi2
 321 0018 304A     		ldr	r2, .L16
 322 001a 0121     		movs	r1, #1
 323 001c D154     		strb	r1, [r2, r3]
 469:Generated_Source\PSoC5/USBFS_1.c ****     {
 324              		.loc 1 469 0 discriminator 3
 325 001e FB7B     		ldrb	r3, [r7, #15]	@ zero_extendqisi2
 326 0020 0133     		adds	r3, r3, #1
ARM GAS  C:\Users\oars0\AppData\Local\Temp\ccNqJowk.s 			page 15


 327 0022 FB73     		strb	r3, [r7, #15]
 328              	.L9:
 469:Generated_Source\PSoC5/USBFS_1.c ****     {
 329              		.loc 1 469 0 is_stmt 0 discriminator 1
 330 0024 FB7B     		ldrb	r3, [r7, #15]	@ zero_extendqisi2
 331 0026 002B     		cmp	r3, #0
 332 0028 F5D0     		beq	.L10
 472:Generated_Source\PSoC5/USBFS_1.c ****     }
 473:Generated_Source\PSoC5/USBFS_1.c **** #endif /* USBFS_1_ENABLE_HID_CLASS */
 474:Generated_Source\PSoC5/USBFS_1.c **** 
 475:Generated_Source\PSoC5/USBFS_1.c ****     /* Store device number to access descriptor. */
 476:Generated_Source\PSoC5/USBFS_1.c ****     USBFS_1_device = device;
 333              		.loc 1 476 0 is_stmt 1
 334 002a 2D4A     		ldr	r2, .L16+4
 335 002c FB79     		ldrb	r3, [r7, #7]
 336 002e 1370     		strb	r3, [r2]
 477:Generated_Source\PSoC5/USBFS_1.c **** 
 478:Generated_Source\PSoC5/USBFS_1.c ****     /* Reset component internal variables. */
 479:Generated_Source\PSoC5/USBFS_1.c ****     USBFS_1_transferState   = USBFS_1_TRANS_STATE_IDLE;
 337              		.loc 1 479 0
 338 0030 2C4B     		ldr	r3, .L16+8
 339 0032 0022     		movs	r2, #0
 340 0034 1A70     		strb	r2, [r3]
 480:Generated_Source\PSoC5/USBFS_1.c ****     USBFS_1_configurationChanged = 0u;
 341              		.loc 1 480 0
 342 0036 2C4B     		ldr	r3, .L16+12
 343 0038 0022     		movs	r2, #0
 344 003a 1A70     		strb	r2, [r3]
 481:Generated_Source\PSoC5/USBFS_1.c ****     USBFS_1_configuration   = 0u;
 345              		.loc 1 481 0
 346 003c 2B4B     		ldr	r3, .L16+16
 347 003e 0022     		movs	r2, #0
 348 0040 1A70     		strb	r2, [r3]
 482:Generated_Source\PSoC5/USBFS_1.c ****     USBFS_1_interfaceNumber = 0u;
 349              		.loc 1 482 0
 350 0042 2B4B     		ldr	r3, .L16+20
 351 0044 0022     		movs	r2, #0
 352 0046 1A70     		strb	r2, [r3]
 483:Generated_Source\PSoC5/USBFS_1.c ****     USBFS_1_deviceAddress   = 0u;
 353              		.loc 1 483 0
 354 0048 2A4B     		ldr	r3, .L16+24
 355 004a 0022     		movs	r2, #0
 356 004c 1A70     		strb	r2, [r3]
 484:Generated_Source\PSoC5/USBFS_1.c ****     USBFS_1_deviceStatus    = 0u;
 357              		.loc 1 484 0
 358 004e 2A4B     		ldr	r3, .L16+28
 359 0050 0022     		movs	r2, #0
 360 0052 1A70     		strb	r2, [r3]
 485:Generated_Source\PSoC5/USBFS_1.c ****     USBFS_1_lastPacketSize  = 0u;
 361              		.loc 1 485 0
 362 0054 294B     		ldr	r3, .L16+32
 363 0056 0022     		movs	r2, #0
 364 0058 1A70     		strb	r2, [r3]
 486:Generated_Source\PSoC5/USBFS_1.c **** 
 487:Generated_Source\PSoC5/USBFS_1.c ****     /* Enable component interrupts. */
 488:Generated_Source\PSoC5/USBFS_1.c **** #if (CY_PSOC4)
 489:Generated_Source\PSoC5/USBFS_1.c ****     CyIntEnable(USBFS_1_INTR_HI_VECT_NUM);
ARM GAS  C:\Users\oars0\AppData\Local\Temp\ccNqJowk.s 			page 16


 490:Generated_Source\PSoC5/USBFS_1.c ****     CyIntEnable(USBFS_1_INTR_MED_VECT_NUM);
 491:Generated_Source\PSoC5/USBFS_1.c ****     CyIntEnable(USBFS_1_INTR_LO_VECT_NUM);
 492:Generated_Source\PSoC5/USBFS_1.c **** #else
 493:Generated_Source\PSoC5/USBFS_1.c ****     CyIntEnable(USBFS_1_BUS_RESET_VECT_NUM);
 365              		.loc 1 493 0
 366 005a 294B     		ldr	r3, .L16+36
 367 005c 4FF40002 		mov	r2, #8388608
 368 0060 1A60     		str	r2, [r3]
 494:Generated_Source\PSoC5/USBFS_1.c ****     CyIntEnable(USBFS_1_EP_0_VECT_NUM);
 369              		.loc 1 494 0
 370 0062 274B     		ldr	r3, .L16+36
 371 0064 4FF08072 		mov	r2, #16777216
 372 0068 1A60     		str	r2, [r3]
 495:Generated_Source\PSoC5/USBFS_1.c **** 
 496:Generated_Source\PSoC5/USBFS_1.c ****     #if (USBFS_1_SOF_ISR_ACTIVE)
 497:Generated_Source\PSoC5/USBFS_1.c ****         CyIntEnable(USBFS_1_SOF_VECT_NUM);
 373              		.loc 1 497 0
 374 006a 254B     		ldr	r3, .L16+36
 375 006c 4FF40012 		mov	r2, #2097152
 376 0070 1A60     		str	r2, [r3]
 498:Generated_Source\PSoC5/USBFS_1.c ****     #endif /* (USBFS_1_SOF_ISR_ACTIVE) */
 499:Generated_Source\PSoC5/USBFS_1.c **** 
 500:Generated_Source\PSoC5/USBFS_1.c ****     #if (USBFS_1_EP1_ISR_ACTIVE)
 501:Generated_Source\PSoC5/USBFS_1.c ****         CyIntEnable(USBFS_1_EP_1_VECT_NUM);
 377              		.loc 1 501 0
 378 0072 234B     		ldr	r3, .L16+36
 379 0074 0222     		movs	r2, #2
 380 0076 1A60     		str	r2, [r3]
 502:Generated_Source\PSoC5/USBFS_1.c ****     #endif /* (USBFS_1_EP1_ISR_ACTIVE) */
 503:Generated_Source\PSoC5/USBFS_1.c **** 
 504:Generated_Source\PSoC5/USBFS_1.c ****     #if (USBFS_1_EP2_ISR_ACTIVE)
 505:Generated_Source\PSoC5/USBFS_1.c ****         CyIntEnable(USBFS_1_EP_2_VECT_NUM);
 506:Generated_Source\PSoC5/USBFS_1.c ****     #endif /* (USBFS_1_EP5_ISR_ACTIVE) */
 507:Generated_Source\PSoC5/USBFS_1.c **** 
 508:Generated_Source\PSoC5/USBFS_1.c ****     #if (USBFS_1_EP3_ISR_ACTIVE)
 509:Generated_Source\PSoC5/USBFS_1.c ****         CyIntEnable(USBFS_1_EP_3_VECT_NUM);
 510:Generated_Source\PSoC5/USBFS_1.c ****     #endif /* (USBFS_1_EP5_ISR_ACTIVE) */
 511:Generated_Source\PSoC5/USBFS_1.c **** 
 512:Generated_Source\PSoC5/USBFS_1.c ****     #if (USBFS_1_EP4_ISR_ACTIVE)
 513:Generated_Source\PSoC5/USBFS_1.c ****         CyIntEnable(USBFS_1_EP_4_VECT_NUM);
 514:Generated_Source\PSoC5/USBFS_1.c ****     #endif /* (USBFS_1_EP5_ISR_ACTIVE) */
 515:Generated_Source\PSoC5/USBFS_1.c **** 
 516:Generated_Source\PSoC5/USBFS_1.c ****     #if (USBFS_1_EP5_ISR_ACTIVE)
 517:Generated_Source\PSoC5/USBFS_1.c ****         CyIntEnable(USBFS_1_EP_5_VECT_NUM);
 518:Generated_Source\PSoC5/USBFS_1.c ****     #endif /* (USBFS_1_EP5_ISR_ACTIVE) */
 519:Generated_Source\PSoC5/USBFS_1.c **** 
 520:Generated_Source\PSoC5/USBFS_1.c ****     #if (USBFS_1_EP6_ISR_ACTIVE)
 521:Generated_Source\PSoC5/USBFS_1.c ****         CyIntEnable(USBFS_1_EP_6_VECT_NUM);
 522:Generated_Source\PSoC5/USBFS_1.c ****     #endif /* USBFS_1_EP6_ISR_REMOVE */
 523:Generated_Source\PSoC5/USBFS_1.c **** 
 524:Generated_Source\PSoC5/USBFS_1.c ****     #if (USBFS_1_EP7_ISR_ACTIVE)
 525:Generated_Source\PSoC5/USBFS_1.c ****         CyIntEnable(USBFS_1_EP_7_VECT_NUM);
 526:Generated_Source\PSoC5/USBFS_1.c ****     #endif /* (USBFS_1_EP7_ISR_ACTIVE) */
 527:Generated_Source\PSoC5/USBFS_1.c **** 
 528:Generated_Source\PSoC5/USBFS_1.c ****     #if (USBFS_1_EP8_ISR_ACTIVE)
 529:Generated_Source\PSoC5/USBFS_1.c ****         CyIntEnable(USBFS_1_EP_8_VECT_NUM);
 530:Generated_Source\PSoC5/USBFS_1.c ****     #endif /* (USBFS_1_EP8_ISR_ACTIVE) */
ARM GAS  C:\Users\oars0\AppData\Local\Temp\ccNqJowk.s 			page 17


 531:Generated_Source\PSoC5/USBFS_1.c **** #endif /* (CY_PSOC4) */
 532:Generated_Source\PSoC5/USBFS_1.c **** 
 533:Generated_Source\PSoC5/USBFS_1.c **** #if (USBFS_1_EP_MANAGEMENT_DMA && USBFS_1_ARB_ISR_ACTIVE)
 534:Generated_Source\PSoC5/USBFS_1.c ****     /* Enable ARB EP interrupt sources. */
 535:Generated_Source\PSoC5/USBFS_1.c ****     USBFS_1_ARB_INT_EN_REG = USBFS_1_DEFAULT_ARB_INT_EN;
 536:Generated_Source\PSoC5/USBFS_1.c **** 
 537:Generated_Source\PSoC5/USBFS_1.c ****     #if (CY_PSOC3 || CY_PSOC5)
 538:Generated_Source\PSoC5/USBFS_1.c ****         CyIntEnable(USBFS_1_ARB_VECT_NUM);
 539:Generated_Source\PSoC5/USBFS_1.c ****     #endif /* (CY_PSOC3 || CY_PSOC5) */
 540:Generated_Source\PSoC5/USBFS_1.c **** #endif   /* (USBFS_1_EP_MANAGEMENT_DMA && USBFS_1_ARB_ISR_ACTIVE) */
 541:Generated_Source\PSoC5/USBFS_1.c **** 
 542:Generated_Source\PSoC5/USBFS_1.c **** /* Arbiter configuration for DMA transfers. */
 543:Generated_Source\PSoC5/USBFS_1.c **** #if (USBFS_1_EP_MANAGEMENT_DMA)
 544:Generated_Source\PSoC5/USBFS_1.c ****     /* Configure Arbiter for Manual or Auto DMA operation and clear configuration completion. */
 545:Generated_Source\PSoC5/USBFS_1.c ****     USBFS_1_ARB_CFG_REG = USBFS_1_DEFAULT_ARB_CFG;
 546:Generated_Source\PSoC5/USBFS_1.c **** 
 547:Generated_Source\PSoC5/USBFS_1.c ****     #if (CY_PSOC4)
 548:Generated_Source\PSoC5/USBFS_1.c ****         /* Enable DMA operation. */
 549:Generated_Source\PSoC5/USBFS_1.c ****         CyDmaEnable();
 550:Generated_Source\PSoC5/USBFS_1.c **** 
 551:Generated_Source\PSoC5/USBFS_1.c ****         #if (USBFS_1_EP_MANAGEMENT_DMA_AUTO)
 552:Generated_Source\PSoC5/USBFS_1.c ****             /* Change DMA priority to be highest. */
 553:Generated_Source\PSoC5/USBFS_1.c ****              CyIntSetPriority(CYDMA_INTR_NUMBER, USBFS_1_DMA_AUTO_INTR_PRIO);
 554:Generated_Source\PSoC5/USBFS_1.c ****         #endif /* (USBFS_1_EP_MANAGEMENT_DMA_AUTO) */
 555:Generated_Source\PSoC5/USBFS_1.c ****     #endif /* (CY_PSOC4) */
 556:Generated_Source\PSoC5/USBFS_1.c **** 
 557:Generated_Source\PSoC5/USBFS_1.c ****     #if (USBFS_1_EP_MANAGEMENT_DMA_AUTO)
 558:Generated_Source\PSoC5/USBFS_1.c ****         #if (CY_PSOC4)
 559:Generated_Source\PSoC5/USBFS_1.c ****             /* Enable DMA interrupt to handle DMA management. */
 560:Generated_Source\PSoC5/USBFS_1.c ****             CyIntEnable(CYDMA_INTR_NUMBER);
 561:Generated_Source\PSoC5/USBFS_1.c ****         #else
 562:Generated_Source\PSoC5/USBFS_1.c ****             #if (USBFS_1_EP_DMA_AUTO_OPT == 0u)
 563:Generated_Source\PSoC5/USBFS_1.c ****                 /* Initialize interrupts which handle verification of successful DMA transaction. *
 564:Generated_Source\PSoC5/USBFS_1.c ****                 USBFS_1_EP_DMA_Done_isr_StartEx(&USBFS_1_EP_DMA_DONE_ISR);
 565:Generated_Source\PSoC5/USBFS_1.c ****                 USBFS_1_EP17_DMA_Done_SR_InterruptEnable();
 566:Generated_Source\PSoC5/USBFS_1.c ****                 USBFS_1_EP8_DMA_Done_SR_InterruptEnable();
 567:Generated_Source\PSoC5/USBFS_1.c ****             #endif /* (USBFS_1_EP_DMA_AUTO_OPT == 0u) */
 568:Generated_Source\PSoC5/USBFS_1.c ****         #endif /* (CY_PSOC4) */
 569:Generated_Source\PSoC5/USBFS_1.c ****     #endif /* (USBFS_1_EP_MANAGEMENT_DMA_AUTO) */
 570:Generated_Source\PSoC5/USBFS_1.c **** #endif /* (USBFS_1_EP_MANAGEMENT_DMA) */
 571:Generated_Source\PSoC5/USBFS_1.c **** 
 572:Generated_Source\PSoC5/USBFS_1.c ****     /* Enable USB regulator depends on operation voltage. IMO Locking is enabled in Init(). */
 573:Generated_Source\PSoC5/USBFS_1.c ****     switch(mode)
 381              		.loc 1 573 0
 382 0078 BB79     		ldrb	r3, [r7, #6]	@ zero_extendqisi2
 383 007a 002B     		cmp	r3, #0
 384 007c 02D0     		beq	.L12
 385 007e 012B     		cmp	r3, #1
 386 0080 09D0     		beq	.L13
 387 0082 11E0     		b	.L15
 388              	.L12:
 574:Generated_Source\PSoC5/USBFS_1.c ****     {
 575:Generated_Source\PSoC5/USBFS_1.c ****     case USBFS_1_3V_OPERATION:
 576:Generated_Source\PSoC5/USBFS_1.c ****         /* Disable regulator for 3V operation. */
 577:Generated_Source\PSoC5/USBFS_1.c ****         USBFS_1_CR1_REG &= (uint8) ~USBFS_1_CR1_REG_ENABLE;
 389              		.loc 1 577 0
 390 0084 1F4A     		ldr	r2, .L16+40
ARM GAS  C:\Users\oars0\AppData\Local\Temp\ccNqJowk.s 			page 18


 391 0086 1F4B     		ldr	r3, .L16+40
 392 0088 1B78     		ldrb	r3, [r3]
 393 008a DBB2     		uxtb	r3, r3
 394 008c 23F00103 		bic	r3, r3, #1
 395 0090 DBB2     		uxtb	r3, r3
 396 0092 1370     		strb	r3, [r2]
 578:Generated_Source\PSoC5/USBFS_1.c ****         break;
 397              		.loc 1 578 0
 398 0094 11E0     		b	.L14
 399              	.L13:
 579:Generated_Source\PSoC5/USBFS_1.c **** 
 580:Generated_Source\PSoC5/USBFS_1.c ****     case USBFS_1_5V_OPERATION:
 581:Generated_Source\PSoC5/USBFS_1.c ****         /* Enable regulator for 5V operation. */
 582:Generated_Source\PSoC5/USBFS_1.c ****         USBFS_1_CR1_REG |= (uint8)  USBFS_1_CR1_REG_ENABLE;
 400              		.loc 1 582 0
 401 0096 1B4A     		ldr	r2, .L16+40
 402 0098 1A4B     		ldr	r3, .L16+40
 403 009a 1B78     		ldrb	r3, [r3]
 404 009c DBB2     		uxtb	r3, r3
 405 009e 43F00103 		orr	r3, r3, #1
 406 00a2 DBB2     		uxtb	r3, r3
 407 00a4 1370     		strb	r3, [r2]
 583:Generated_Source\PSoC5/USBFS_1.c ****         break;
 408              		.loc 1 583 0
 409 00a6 08E0     		b	.L14
 410              	.L15:
 584:Generated_Source\PSoC5/USBFS_1.c **** 
 585:Generated_Source\PSoC5/USBFS_1.c ****     default: /* Check DWR settings of USB power supply. */
 586:Generated_Source\PSoC5/USBFS_1.c ****     #if (USBFS_1_VDDD_MV < USBFS_1_3500MV)
 587:Generated_Source\PSoC5/USBFS_1.c ****         /* Disable regulator for 3V operation. */
 588:Generated_Source\PSoC5/USBFS_1.c ****         USBFS_1_CR1_REG &= (uint8) ~USBFS_1_CR1_REG_ENABLE;
 589:Generated_Source\PSoC5/USBFS_1.c ****     #else
 590:Generated_Source\PSoC5/USBFS_1.c ****         /* Enable regulator for 5V operation. */
 591:Generated_Source\PSoC5/USBFS_1.c ****         USBFS_1_CR1_REG |= (uint8)  USBFS_1_CR1_REG_ENABLE;
 411              		.loc 1 591 0
 412 00a8 164A     		ldr	r2, .L16+40
 413 00aa 164B     		ldr	r3, .L16+40
 414 00ac 1B78     		ldrb	r3, [r3]
 415 00ae DBB2     		uxtb	r3, r3
 416 00b0 43F00103 		orr	r3, r3, #1
 417 00b4 DBB2     		uxtb	r3, r3
 418 00b6 1370     		strb	r3, [r2]
 592:Generated_Source\PSoC5/USBFS_1.c ****     #endif /* (USBFS_1_VDDD_MV < USBFS_1_3500MV) */
 593:Generated_Source\PSoC5/USBFS_1.c ****         break;
 419              		.loc 1 593 0
 420 00b8 00BF     		nop
 421              	.L14:
 594:Generated_Source\PSoC5/USBFS_1.c ****     }
 595:Generated_Source\PSoC5/USBFS_1.c **** 
 596:Generated_Source\PSoC5/USBFS_1.c **** #if (CY_PSOC4)
 597:Generated_Source\PSoC5/USBFS_1.c ****     /* Clear bus activity. */
 598:Generated_Source\PSoC5/USBFS_1.c ****     USBFS_1_CR1_REG &= (uint32) ~USBFS_1_CR1_BUS_ACTIVITY;
 599:Generated_Source\PSoC5/USBFS_1.c **** 
 600:Generated_Source\PSoC5/USBFS_1.c ****     /* Clear EP0 count register. */
 601:Generated_Source\PSoC5/USBFS_1.c ****     USBFS_1_EP0_CNT_REG = USBFS_1_CLEAR_REG;
 602:Generated_Source\PSoC5/USBFS_1.c **** 
 603:Generated_Source\PSoC5/USBFS_1.c ****     /* Set EP0.CR: ACK Setup, NAK IN/OUT. */
ARM GAS  C:\Users\oars0\AppData\Local\Temp\ccNqJowk.s 			page 19


 604:Generated_Source\PSoC5/USBFS_1.c ****     USBFS_1_EP0_CR_REG = USBFS_1_MODE_NAK_IN_OUT;
 605:Generated_Source\PSoC5/USBFS_1.c **** 
 606:Generated_Source\PSoC5/USBFS_1.c ****     #if (USBFS_1_LPM_ACTIVE)
 607:Generated_Source\PSoC5/USBFS_1.c ****         if (NULL != USBFS_1_GetBOSPtr())
 608:Generated_Source\PSoC5/USBFS_1.c ****         {
 609:Generated_Source\PSoC5/USBFS_1.c ****             /* Enable LPM and acknowledge LPM packets for active device.
 610:Generated_Source\PSoC5/USBFS_1.c ****             * Reset NYET_EN and SUB_RESP bits in the LPM_CTRL register.
 611:Generated_Source\PSoC5/USBFS_1.c ****             */
 612:Generated_Source\PSoC5/USBFS_1.c ****             USBFS_1_LPM_CTRL_REG = (USBFS_1_LPM_CTRL_LPM_EN | \
 613:Generated_Source\PSoC5/USBFS_1.c ****                                              USBFS_1_LPM_CTRL_LPM_ACK_RESP);
 614:Generated_Source\PSoC5/USBFS_1.c ****         }
 615:Generated_Source\PSoC5/USBFS_1.c ****         else
 616:Generated_Source\PSoC5/USBFS_1.c ****         {
 617:Generated_Source\PSoC5/USBFS_1.c ****             /* Disable LPM for active device. */
 618:Generated_Source\PSoC5/USBFS_1.c ****             USBFS_1_LPM_CTRL_REG &= (uint32) ~USBFS_1_LPM_CTRL_LPM_EN;
 619:Generated_Source\PSoC5/USBFS_1.c ****         }
 620:Generated_Source\PSoC5/USBFS_1.c ****     #endif /* (USBFS_1_LPM_ACTIVE) */
 621:Generated_Source\PSoC5/USBFS_1.c **** 
 622:Generated_Source\PSoC5/USBFS_1.c ****     /* Enable device to responds to USB traffic with address 0. */
 623:Generated_Source\PSoC5/USBFS_1.c ****     USBFS_1_CR0_REG = USBFS_1_DEFUALT_CR0;
 624:Generated_Source\PSoC5/USBFS_1.c **** 
 625:Generated_Source\PSoC5/USBFS_1.c **** #else
 626:Generated_Source\PSoC5/USBFS_1.c ****     /* Set EP0.CR: ACK Setup, STALL IN/OUT. */
 627:Generated_Source\PSoC5/USBFS_1.c ****     USBFS_1_EP0_CR_REG = USBFS_1_MODE_STALL_IN_OUT;
 422              		.loc 1 627 0
 423 00ba 134B     		ldr	r3, .L16+44
 424 00bc 0322     		movs	r2, #3
 425 00be 1A70     		strb	r2, [r3]
 628:Generated_Source\PSoC5/USBFS_1.c **** 
 629:Generated_Source\PSoC5/USBFS_1.c ****     /* Enable device to respond to USB traffic with address 0. */
 630:Generated_Source\PSoC5/USBFS_1.c ****     USBFS_1_CR0_REG = USBFS_1_DEFUALT_CR0;
 426              		.loc 1 630 0
 427 00c0 124B     		ldr	r3, .L16+48
 428 00c2 8022     		movs	r2, #128
 429 00c4 1A70     		strb	r2, [r3]
 631:Generated_Source\PSoC5/USBFS_1.c ****     CyDelayCycles(USBFS_1_WAIT_CR0_REG_STABILITY);
 430              		.loc 1 631 0
 431 00c6 0120     		movs	r0, #1
 432 00c8 FFF7FEFF 		bl	CyDelayCycles
 632:Generated_Source\PSoC5/USBFS_1.c **** #endif /* (CY_PSOC4) */
 633:Generated_Source\PSoC5/USBFS_1.c **** 
 634:Generated_Source\PSoC5/USBFS_1.c ****     /* Enable D+ pull-up and keep USB control on IO. */
 635:Generated_Source\PSoC5/USBFS_1.c ****     USBFS_1_USBIO_CR1_REG = USBFS_1_USBIO_CR1_USBPUEN;
 433              		.loc 1 635 0
 434 00cc 104B     		ldr	r3, .L16+52
 435 00ce 0422     		movs	r2, #4
 436 00d0 1A70     		strb	r2, [r3]
 636:Generated_Source\PSoC5/USBFS_1.c **** }
 437              		.loc 1 636 0
 438 00d2 00BF     		nop
 439 00d4 1037     		adds	r7, r7, #16
 440              		.cfi_def_cfa_offset 8
 441 00d6 BD46     		mov	sp, r7
 442              		.cfi_def_cfa_register 13
 443              		@ sp needed
 444 00d8 80BD     		pop	{r7, pc}
 445              	.L17:
ARM GAS  C:\Users\oars0\AppData\Local\Temp\ccNqJowk.s 			page 20


 446 00da 00BF     		.align	2
 447              	.L16:
 448 00dc 00000000 		.word	USBFS_1_hidProtocol
 449 00e0 00000000 		.word	USBFS_1_device
 450 00e4 00000000 		.word	USBFS_1_transferState
 451 00e8 00000000 		.word	USBFS_1_configurationChanged
 452 00ec 00000000 		.word	USBFS_1_configuration
 453 00f0 00000000 		.word	USBFS_1_interfaceNumber
 454 00f4 00000000 		.word	USBFS_1_deviceAddress
 455 00f8 00000000 		.word	USBFS_1_deviceStatus
 456 00fc 00000000 		.word	USBFS_1_lastPacketSize
 457 0100 00E100E0 		.word	-536813312
 458 0104 09600040 		.word	1073766409
 459 0108 28600040 		.word	1073766440
 460 010c 08600040 		.word	1073766408
 461 0110 12600040 		.word	1073766418
 462              		.cfi_endproc
 463              	.LFE2:
 464              		.size	USBFS_1_InitComponent, .-USBFS_1_InitComponent
 465              		.section	.text.USBFS_1_ReInitComponent,"ax",%progbits
 466              		.align	2
 467              		.global	USBFS_1_ReInitComponent
 468              		.thumb
 469              		.thumb_func
 470              		.type	USBFS_1_ReInitComponent, %function
 471              	USBFS_1_ReInitComponent:
 472              	.LFB3:
 637:Generated_Source\PSoC5/USBFS_1.c **** 
 638:Generated_Source\PSoC5/USBFS_1.c **** 
 639:Generated_Source\PSoC5/USBFS_1.c **** /*******************************************************************************
 640:Generated_Source\PSoC5/USBFS_1.c **** * Function Name: USBFS_1_ReInitComponent
 641:Generated_Source\PSoC5/USBFS_1.c **** ****************************************************************************//**
 642:Generated_Source\PSoC5/USBFS_1.c **** *
 643:Generated_Source\PSoC5/USBFS_1.c **** *  This function reinitialize the component configuration and is
 644:Generated_Source\PSoC5/USBFS_1.c **** *  intend to be called from the Reset interrupt.
 645:Generated_Source\PSoC5/USBFS_1.c **** *
 646:Generated_Source\PSoC5/USBFS_1.c **** * \globalvars
 647:Generated_Source\PSoC5/USBFS_1.c **** *   USBFS_1_device - Contains the device number of the desired Device
 648:Generated_Source\PSoC5/USBFS_1.c **** *        Descriptor. The device number can be found in the Device Descriptor tab
 649:Generated_Source\PSoC5/USBFS_1.c **** *       of the Configure dialog, under the settings of the desired Device Descriptor,
 650:Generated_Source\PSoC5/USBFS_1.c **** *       in the Device Number field.
 651:Generated_Source\PSoC5/USBFS_1.c **** *   USBFS_1_transferState - This variable is used by the communication
 652:Generated_Source\PSoC5/USBFS_1.c **** *       functions to handle the current transfer state. Initialized to
 653:Generated_Source\PSoC5/USBFS_1.c **** *       TRANS_STATE_IDLE in this API.
 654:Generated_Source\PSoC5/USBFS_1.c **** *   USBFS_1_configuration - Contains the current configuration number
 655:Generated_Source\PSoC5/USBFS_1.c **** *       set by the Host using a SET_CONFIGURATION request.
 656:Generated_Source\PSoC5/USBFS_1.c **** *       Initialized to zero in this API.
 657:Generated_Source\PSoC5/USBFS_1.c **** *   USBFS_1_deviceAddress - Contains the current device address. This
 658:Generated_Source\PSoC5/USBFS_1.c **** *       variable is initialized to zero in this API. The Host starts to communicate
 659:Generated_Source\PSoC5/USBFS_1.c **** *      to the device with address 0 and then sets it to a whatever value using
 660:Generated_Source\PSoC5/USBFS_1.c **** *      a SET_ADDRESS request.
 661:Generated_Source\PSoC5/USBFS_1.c **** *   USBFS_1_deviceStatus - Initialized to 0.
 662:Generated_Source\PSoC5/USBFS_1.c **** *       This is a two-bit variable which contains the power status in the first bit
 663:Generated_Source\PSoC5/USBFS_1.c **** *       (DEVICE_STATUS_BUS_POWERED or DEVICE_STATUS_SELF_POWERED) and the remote
 664:Generated_Source\PSoC5/USBFS_1.c **** *       wakeup status (DEVICE_STATUS_REMOTE_WAKEUP) in the second bit.
 665:Generated_Source\PSoC5/USBFS_1.c **** *   USBFS_1_lastPacketSize - Initialized to 0;
 666:Generated_Source\PSoC5/USBFS_1.c **** *
ARM GAS  C:\Users\oars0\AppData\Local\Temp\ccNqJowk.s 			page 21


 667:Generated_Source\PSoC5/USBFS_1.c **** * \reentrant
 668:Generated_Source\PSoC5/USBFS_1.c **** *  No.
 669:Generated_Source\PSoC5/USBFS_1.c **** *
 670:Generated_Source\PSoC5/USBFS_1.c **** *******************************************************************************/
 671:Generated_Source\PSoC5/USBFS_1.c **** void USBFS_1_ReInitComponent(void) 
 672:Generated_Source\PSoC5/USBFS_1.c **** {
 473              		.loc 1 672 0
 474              		.cfi_startproc
 475              		@ args = 0, pretend = 0, frame = 8
 476              		@ frame_needed = 1, uses_anonymous_args = 0
 477              		@ link register save eliminated.
 478 0000 80B4     		push	{r7}
 479              		.cfi_def_cfa_offset 4
 480              		.cfi_offset 7, -4
 481 0002 83B0     		sub	sp, sp, #12
 482              		.cfi_def_cfa_offset 16
 483 0004 00AF     		add	r7, sp, #0
 484              		.cfi_def_cfa_register 7
 673:Generated_Source\PSoC5/USBFS_1.c ****     /* Initialize _hidProtocol variable to comply with HID 7.2.6 Set_Protocol
 674:Generated_Source\PSoC5/USBFS_1.c ****     *  Request: "When initialized, all devices default to report protocol."
 675:Generated_Source\PSoC5/USBFS_1.c ****     */
 676:Generated_Source\PSoC5/USBFS_1.c **** #if defined(USBFS_1_ENABLE_HID_CLASS)
 677:Generated_Source\PSoC5/USBFS_1.c ****     uint8 i;
 678:Generated_Source\PSoC5/USBFS_1.c **** 
 679:Generated_Source\PSoC5/USBFS_1.c ****     for (i = 0u; i < USBFS_1_MAX_INTERFACES_NUMBER; i++)
 485              		.loc 1 679 0
 486 0006 0023     		movs	r3, #0
 487 0008 FB71     		strb	r3, [r7, #7]
 488 000a 06E0     		b	.L19
 489              	.L20:
 680:Generated_Source\PSoC5/USBFS_1.c ****     {
 681:Generated_Source\PSoC5/USBFS_1.c ****         USBFS_1_hidProtocol[i] = USBFS_1_PROTOCOL_REPORT;
 490              		.loc 1 681 0 discriminator 3
 491 000c FB79     		ldrb	r3, [r7, #7]	@ zero_extendqisi2
 492 000e 144A     		ldr	r2, .L21
 493 0010 0121     		movs	r1, #1
 494 0012 D154     		strb	r1, [r2, r3]
 679:Generated_Source\PSoC5/USBFS_1.c ****     {
 495              		.loc 1 679 0 discriminator 3
 496 0014 FB79     		ldrb	r3, [r7, #7]	@ zero_extendqisi2
 497 0016 0133     		adds	r3, r3, #1
 498 0018 FB71     		strb	r3, [r7, #7]
 499              	.L19:
 679:Generated_Source\PSoC5/USBFS_1.c ****     {
 500              		.loc 1 679 0 is_stmt 0 discriminator 1
 501 001a FB79     		ldrb	r3, [r7, #7]	@ zero_extendqisi2
 502 001c 002B     		cmp	r3, #0
 503 001e F5D0     		beq	.L20
 682:Generated_Source\PSoC5/USBFS_1.c ****     }
 683:Generated_Source\PSoC5/USBFS_1.c **** #endif /* USBFS_1_ENABLE_HID_CLASS */
 684:Generated_Source\PSoC5/USBFS_1.c **** 
 685:Generated_Source\PSoC5/USBFS_1.c ****     /* Reset component internal variables. */
 686:Generated_Source\PSoC5/USBFS_1.c ****     USBFS_1_transferState   = USBFS_1_TRANS_STATE_IDLE;
 504              		.loc 1 686 0 is_stmt 1
 505 0020 104B     		ldr	r3, .L21+4
 506 0022 0022     		movs	r2, #0
 507 0024 1A70     		strb	r2, [r3]
ARM GAS  C:\Users\oars0\AppData\Local\Temp\ccNqJowk.s 			page 22


 687:Generated_Source\PSoC5/USBFS_1.c ****     USBFS_1_configurationChanged = 0u;
 508              		.loc 1 687 0
 509 0026 104B     		ldr	r3, .L21+8
 510 0028 0022     		movs	r2, #0
 511 002a 1A70     		strb	r2, [r3]
 688:Generated_Source\PSoC5/USBFS_1.c ****     USBFS_1_configuration   = 0u;
 512              		.loc 1 688 0
 513 002c 0F4B     		ldr	r3, .L21+12
 514 002e 0022     		movs	r2, #0
 515 0030 1A70     		strb	r2, [r3]
 689:Generated_Source\PSoC5/USBFS_1.c ****     USBFS_1_interfaceNumber = 0u;
 516              		.loc 1 689 0
 517 0032 0F4B     		ldr	r3, .L21+16
 518 0034 0022     		movs	r2, #0
 519 0036 1A70     		strb	r2, [r3]
 690:Generated_Source\PSoC5/USBFS_1.c ****     USBFS_1_deviceAddress   = 0u;
 520              		.loc 1 690 0
 521 0038 0E4B     		ldr	r3, .L21+20
 522 003a 0022     		movs	r2, #0
 523 003c 1A70     		strb	r2, [r3]
 691:Generated_Source\PSoC5/USBFS_1.c ****     USBFS_1_deviceStatus    = 0u;
 524              		.loc 1 691 0
 525 003e 0E4B     		ldr	r3, .L21+24
 526 0040 0022     		movs	r2, #0
 527 0042 1A70     		strb	r2, [r3]
 692:Generated_Source\PSoC5/USBFS_1.c ****     USBFS_1_lastPacketSize  = 0u;
 528              		.loc 1 692 0
 529 0044 0D4B     		ldr	r3, .L21+28
 530 0046 0022     		movs	r2, #0
 531 0048 1A70     		strb	r2, [r3]
 693:Generated_Source\PSoC5/USBFS_1.c **** 
 694:Generated_Source\PSoC5/USBFS_1.c **** #if (CY_PSOC4)
 695:Generated_Source\PSoC5/USBFS_1.c ****     /* Set EP0.CR: ACK Setup, NAK IN/OUT. */
 696:Generated_Source\PSoC5/USBFS_1.c ****     USBFS_1_EP0_CR_REG = USBFS_1_MODE_NAK_IN_OUT;
 697:Generated_Source\PSoC5/USBFS_1.c **** #else
 698:Generated_Source\PSoC5/USBFS_1.c ****     /* Set EP0.CR: ACK Setup, STALL IN/OUT. */
 699:Generated_Source\PSoC5/USBFS_1.c ****     USBFS_1_EP0_CR_REG = USBFS_1_MODE_STALL_IN_OUT;
 532              		.loc 1 699 0
 533 004a 0D4B     		ldr	r3, .L21+32
 534 004c 0322     		movs	r2, #3
 535 004e 1A70     		strb	r2, [r3]
 700:Generated_Source\PSoC5/USBFS_1.c **** #endif /* (CY_PSOC4) */
 701:Generated_Source\PSoC5/USBFS_1.c **** 
 702:Generated_Source\PSoC5/USBFS_1.c ****     /* Enable device to respond to USB traffic with address 0. */
 703:Generated_Source\PSoC5/USBFS_1.c ****     USBFS_1_CR0_REG = USBFS_1_DEFUALT_CR0;
 536              		.loc 1 703 0
 537 0050 0C4B     		ldr	r3, .L21+36
 538 0052 8022     		movs	r2, #128
 539 0054 1A70     		strb	r2, [r3]
 704:Generated_Source\PSoC5/USBFS_1.c **** }
 540              		.loc 1 704 0
 541 0056 00BF     		nop
 542 0058 0C37     		adds	r7, r7, #12
 543              		.cfi_def_cfa_offset 4
 544 005a BD46     		mov	sp, r7
 545              		.cfi_def_cfa_register 13
 546              		@ sp needed
ARM GAS  C:\Users\oars0\AppData\Local\Temp\ccNqJowk.s 			page 23


 547 005c 80BC     		pop	{r7}
 548              		.cfi_restore 7
 549              		.cfi_def_cfa_offset 0
 550 005e 7047     		bx	lr
 551              	.L22:
 552              		.align	2
 553              	.L21:
 554 0060 00000000 		.word	USBFS_1_hidProtocol
 555 0064 00000000 		.word	USBFS_1_transferState
 556 0068 00000000 		.word	USBFS_1_configurationChanged
 557 006c 00000000 		.word	USBFS_1_configuration
 558 0070 00000000 		.word	USBFS_1_interfaceNumber
 559 0074 00000000 		.word	USBFS_1_deviceAddress
 560 0078 00000000 		.word	USBFS_1_deviceStatus
 561 007c 00000000 		.word	USBFS_1_lastPacketSize
 562 0080 28600040 		.word	1073766440
 563 0084 08600040 		.word	1073766408
 564              		.cfi_endproc
 565              	.LFE3:
 566              		.size	USBFS_1_ReInitComponent, .-USBFS_1_ReInitComponent
 567              		.section	.text.USBFS_1_Stop,"ax",%progbits
 568              		.align	2
 569              		.global	USBFS_1_Stop
 570              		.thumb
 571              		.thumb_func
 572              		.type	USBFS_1_Stop, %function
 573              	USBFS_1_Stop:
 574              	.LFB4:
 705:Generated_Source\PSoC5/USBFS_1.c **** 
 706:Generated_Source\PSoC5/USBFS_1.c **** 
 707:Generated_Source\PSoC5/USBFS_1.c **** /*******************************************************************************
 708:Generated_Source\PSoC5/USBFS_1.c **** * Function Name: USBFS_1_Stop
 709:Generated_Source\PSoC5/USBFS_1.c **** ****************************************************************************//**
 710:Generated_Source\PSoC5/USBFS_1.c **** *
 711:Generated_Source\PSoC5/USBFS_1.c **** *  This function shuts down the USB function including to release
 712:Generated_Source\PSoC5/USBFS_1.c **** *  the D+ pull-up and disabling the SIE.
 713:Generated_Source\PSoC5/USBFS_1.c **** *
 714:Generated_Source\PSoC5/USBFS_1.c **** * \globalvars
 715:Generated_Source\PSoC5/USBFS_1.c **** *   \ref USBFS_1_configuration
 716:Generated_Source\PSoC5/USBFS_1.c **** *
 717:Generated_Source\PSoC5/USBFS_1.c **** *   USBFS_1_deviceAddress - Contains the current device address. This
 718:Generated_Source\PSoC5/USBFS_1.c **** *       variable is initialized to zero in this API. The Host starts to communicate
 719:Generated_Source\PSoC5/USBFS_1.c **** *      to the device with address 0 and then sets it to a whatever value using
 720:Generated_Source\PSoC5/USBFS_1.c **** *      a SET_ADDRESS request.
 721:Generated_Source\PSoC5/USBFS_1.c **** *
 722:Generated_Source\PSoC5/USBFS_1.c **** *   \ref USBFS_1_deviceStatus
 723:Generated_Source\PSoC5/USBFS_1.c **** *
 724:Generated_Source\PSoC5/USBFS_1.c **** *   \ref USBFS_1_configurationChanged
 725:Generated_Source\PSoC5/USBFS_1.c **** *
 726:Generated_Source\PSoC5/USBFS_1.c **** *   USBFS_1_intiVar -  This variable is set to zero
 727:Generated_Source\PSoC5/USBFS_1.c **** *
 728:Generated_Source\PSoC5/USBFS_1.c **** *******************************************************************************/
 729:Generated_Source\PSoC5/USBFS_1.c **** void USBFS_1_Stop(void) 
 730:Generated_Source\PSoC5/USBFS_1.c **** {
 575              		.loc 1 730 0
 576              		.cfi_startproc
 577              		@ args = 0, pretend = 0, frame = 8
ARM GAS  C:\Users\oars0\AppData\Local\Temp\ccNqJowk.s 			page 24


 578              		@ frame_needed = 1, uses_anonymous_args = 0
 579 0000 80B5     		push	{r7, lr}
 580              		.cfi_def_cfa_offset 8
 581              		.cfi_offset 7, -8
 582              		.cfi_offset 14, -4
 583 0002 82B0     		sub	sp, sp, #8
 584              		.cfi_def_cfa_offset 16
 585 0004 00AF     		add	r7, sp, #0
 586              		.cfi_def_cfa_register 7
 731:Generated_Source\PSoC5/USBFS_1.c ****     uint8 enableInterrupts;
 732:Generated_Source\PSoC5/USBFS_1.c **** 
 733:Generated_Source\PSoC5/USBFS_1.c **** #if (USBFS_1_EP_MANAGEMENT_DMA)
 734:Generated_Source\PSoC5/USBFS_1.c ****     /* Stop all DMA channels. */
 735:Generated_Source\PSoC5/USBFS_1.c ****     USBFS_1_Stop_DMA(USBFS_1_MAX_EP);
 736:Generated_Source\PSoC5/USBFS_1.c **** #endif /* (USBFS_1_EP_MANAGEMENT_DMA) */
 737:Generated_Source\PSoC5/USBFS_1.c **** 
 738:Generated_Source\PSoC5/USBFS_1.c ****     enableInterrupts = CyEnterCriticalSection();
 587              		.loc 1 738 0
 588 0006 FFF7FEFF 		bl	CyEnterCriticalSection
 589 000a 0346     		mov	r3, r0
 590 000c FB71     		strb	r3, [r7, #7]
 739:Generated_Source\PSoC5/USBFS_1.c **** 
 740:Generated_Source\PSoC5/USBFS_1.c ****     /* Disable USB IP to respond to USB traffic. */
 741:Generated_Source\PSoC5/USBFS_1.c ****     USBFS_1_CR0_REG &= (uint8) ~USBFS_1_CR0_ENABLE;
 591              		.loc 1 741 0
 592 000e 2F4A     		ldr	r2, .L24
 593 0010 2E4B     		ldr	r3, .L24
 594 0012 1B78     		ldrb	r3, [r3]
 595 0014 DBB2     		uxtb	r3, r3
 596 0016 03F07F03 		and	r3, r3, #127
 597 001a DBB2     		uxtb	r3, r3
 598 001c 1370     		strb	r3, [r2]
 742:Generated_Source\PSoC5/USBFS_1.c **** 
 743:Generated_Source\PSoC5/USBFS_1.c ****     /* Disable D+ pull-up. */
 744:Generated_Source\PSoC5/USBFS_1.c ****     USBFS_1_USBIO_CR1_REG &= (uint8) ~ USBFS_1_USBIO_CR1_USBPUEN;
 599              		.loc 1 744 0
 600 001e 2C4A     		ldr	r2, .L24+4
 601 0020 2B4B     		ldr	r3, .L24+4
 602 0022 1B78     		ldrb	r3, [r3]
 603 0024 DBB2     		uxtb	r3, r3
 604 0026 23F00403 		bic	r3, r3, #4
 605 002a DBB2     		uxtb	r3, r3
 606 002c 1370     		strb	r3, [r2]
 745:Generated_Source\PSoC5/USBFS_1.c **** 
 746:Generated_Source\PSoC5/USBFS_1.c **** #if (CY_PSOC4)
 747:Generated_Source\PSoC5/USBFS_1.c ****     /* Disable USBFS block. */
 748:Generated_Source\PSoC5/USBFS_1.c ****     USBFS_1_POWER_CTRL_REG &= (uint32) ~USBFS_1_POWER_CTRL_ENABLE;
 749:Generated_Source\PSoC5/USBFS_1.c **** #else
 750:Generated_Source\PSoC5/USBFS_1.c ****     /* Clear power active and standby mode templates. */
 751:Generated_Source\PSoC5/USBFS_1.c ****     USBFS_1_PM_ACT_CFG_REG  &= (uint8) ~USBFS_1_PM_ACT_EN_FSUSB;
 607              		.loc 1 751 0
 608 002e 294A     		ldr	r2, .L24+8
 609 0030 284B     		ldr	r3, .L24+8
 610 0032 1B78     		ldrb	r3, [r3]
 611 0034 DBB2     		uxtb	r3, r3
 612 0036 23F00103 		bic	r3, r3, #1
 613 003a DBB2     		uxtb	r3, r3
ARM GAS  C:\Users\oars0\AppData\Local\Temp\ccNqJowk.s 			page 25


 614 003c 1370     		strb	r3, [r2]
 752:Generated_Source\PSoC5/USBFS_1.c ****     USBFS_1_PM_STBY_CFG_REG &= (uint8) ~USBFS_1_PM_STBY_EN_FSUSB;
 615              		.loc 1 752 0
 616 003e 264A     		ldr	r2, .L24+12
 617 0040 254B     		ldr	r3, .L24+12
 618 0042 1B78     		ldrb	r3, [r3]
 619 0044 DBB2     		uxtb	r3, r3
 620 0046 23F00103 		bic	r3, r3, #1
 621 004a DBB2     		uxtb	r3, r3
 622 004c 1370     		strb	r3, [r2]
 753:Generated_Source\PSoC5/USBFS_1.c **** 
 754:Generated_Source\PSoC5/USBFS_1.c ****     /* Ensure single-ended disable bits are high (PRT15.INP_DIS[7:6])
 755:Generated_Source\PSoC5/USBFS_1.c ****      * (input receiver disabled). */
 756:Generated_Source\PSoC5/USBFS_1.c ****     USBFS_1_DM_INP_DIS_REG |= (uint8) USBFS_1_DM_MASK;
 623              		.loc 1 756 0
 624 004e 234A     		ldr	r2, .L24+16
 625 0050 224B     		ldr	r3, .L24+16
 626 0052 1B78     		ldrb	r3, [r3]
 627 0054 DBB2     		uxtb	r3, r3
 628 0056 63F07F03 		orn	r3, r3, #127
 629 005a DBB2     		uxtb	r3, r3
 630 005c 1370     		strb	r3, [r2]
 757:Generated_Source\PSoC5/USBFS_1.c ****     USBFS_1_DP_INP_DIS_REG |= (uint8) USBFS_1_DP_MASK;
 631              		.loc 1 757 0
 632 005e 1F4A     		ldr	r2, .L24+16
 633 0060 1E4B     		ldr	r3, .L24+16
 634 0062 1B78     		ldrb	r3, [r3]
 635 0064 DBB2     		uxtb	r3, r3
 636 0066 43F04003 		orr	r3, r3, #64
 637 006a DBB2     		uxtb	r3, r3
 638 006c 1370     		strb	r3, [r2]
 758:Generated_Source\PSoC5/USBFS_1.c **** 
 759:Generated_Source\PSoC5/USBFS_1.c **** #endif /* (CY_PSOC4) */
 760:Generated_Source\PSoC5/USBFS_1.c **** 
 761:Generated_Source\PSoC5/USBFS_1.c ****     CyExitCriticalSection(enableInterrupts);
 639              		.loc 1 761 0
 640 006e FB79     		ldrb	r3, [r7, #7]	@ zero_extendqisi2
 641 0070 1846     		mov	r0, r3
 642 0072 FFF7FEFF 		bl	CyExitCriticalSection
 762:Generated_Source\PSoC5/USBFS_1.c **** 
 763:Generated_Source\PSoC5/USBFS_1.c ****     /* Disable component interrupts. */
 764:Generated_Source\PSoC5/USBFS_1.c **** #if (CY_PSOC4)
 765:Generated_Source\PSoC5/USBFS_1.c ****     CyIntDisable(USBFS_1_INTR_HI_VECT_NUM);
 766:Generated_Source\PSoC5/USBFS_1.c ****     CyIntDisable(USBFS_1_INTR_LO_VECT_NUM);
 767:Generated_Source\PSoC5/USBFS_1.c ****     CyIntDisable(USBFS_1_INTR_MED_VECT_NUM);
 768:Generated_Source\PSoC5/USBFS_1.c **** #else
 769:Generated_Source\PSoC5/USBFS_1.c **** 
 770:Generated_Source\PSoC5/USBFS_1.c ****     CyIntDisable(USBFS_1_BUS_RESET_VECT_NUM);
 643              		.loc 1 770 0
 644 0076 1A4B     		ldr	r3, .L24+20
 645 0078 4FF40002 		mov	r2, #8388608
 646 007c 1A60     		str	r2, [r3]
 771:Generated_Source\PSoC5/USBFS_1.c ****     CyIntDisable(USBFS_1_EP_0_VECT_NUM);
 647              		.loc 1 771 0
 648 007e 184B     		ldr	r3, .L24+20
 649 0080 4FF08072 		mov	r2, #16777216
 650 0084 1A60     		str	r2, [r3]
ARM GAS  C:\Users\oars0\AppData\Local\Temp\ccNqJowk.s 			page 26


 772:Generated_Source\PSoC5/USBFS_1.c **** 
 773:Generated_Source\PSoC5/USBFS_1.c ****     #if (USBFS_1_SOF_ISR_ACTIVE)
 774:Generated_Source\PSoC5/USBFS_1.c ****         CyIntDisable(USBFS_1_SOF_VECT_NUM);
 651              		.loc 1 774 0
 652 0086 164B     		ldr	r3, .L24+20
 653 0088 4FF40012 		mov	r2, #2097152
 654 008c 1A60     		str	r2, [r3]
 775:Generated_Source\PSoC5/USBFS_1.c ****     #endif /* (USBFS_1_SOF_ISR_ACTIVE) */
 776:Generated_Source\PSoC5/USBFS_1.c **** 
 777:Generated_Source\PSoC5/USBFS_1.c ****     #if (USBFS_1_EP1_ISR_ACTIVE)
 778:Generated_Source\PSoC5/USBFS_1.c ****         CyIntDisable(USBFS_1_EP_1_VECT_NUM);
 655              		.loc 1 778 0
 656 008e 144B     		ldr	r3, .L24+20
 657 0090 0222     		movs	r2, #2
 658 0092 1A60     		str	r2, [r3]
 779:Generated_Source\PSoC5/USBFS_1.c ****     #endif /* (USBFS_1_EP1_ISR_ACTIVE) */
 780:Generated_Source\PSoC5/USBFS_1.c **** 
 781:Generated_Source\PSoC5/USBFS_1.c ****     #if (USBFS_1_EP2_ISR_ACTIVE)
 782:Generated_Source\PSoC5/USBFS_1.c ****         CyIntDisable(USBFS_1_EP_2_VECT_NUM);
 783:Generated_Source\PSoC5/USBFS_1.c ****     #endif /* (USBFS_1_EP2_ISR_ACTIVE) */
 784:Generated_Source\PSoC5/USBFS_1.c **** 
 785:Generated_Source\PSoC5/USBFS_1.c ****     #if (USBFS_1_EP3_ISR_ACTIVE)
 786:Generated_Source\PSoC5/USBFS_1.c ****         CyIntDisable(USBFS_1_EP_3_VECT_NUM);
 787:Generated_Source\PSoC5/USBFS_1.c ****     #endif /* (USBFS_1_EP3_ISR_ACTIVE) */
 788:Generated_Source\PSoC5/USBFS_1.c **** 
 789:Generated_Source\PSoC5/USBFS_1.c ****     #if (USBFS_1_EP4_ISR_ACTIVE)
 790:Generated_Source\PSoC5/USBFS_1.c ****         CyIntDisable(USBFS_1_EP_4_VECT_NUM);
 791:Generated_Source\PSoC5/USBFS_1.c ****     #endif /* (USBFS_1_EP4_ISR_ACTIVE) */
 792:Generated_Source\PSoC5/USBFS_1.c **** 
 793:Generated_Source\PSoC5/USBFS_1.c ****     #if (USBFS_1_EP5_ISR_ACTIVE)
 794:Generated_Source\PSoC5/USBFS_1.c ****         CyIntDisable(USBFS_1_EP_5_VECT_NUM);
 795:Generated_Source\PSoC5/USBFS_1.c ****     #endif /* (USBFS_1_EP5_ISR_ACTIVE) */
 796:Generated_Source\PSoC5/USBFS_1.c **** 
 797:Generated_Source\PSoC5/USBFS_1.c ****     #if (USBFS_1_EP6_ISR_ACTIVE)
 798:Generated_Source\PSoC5/USBFS_1.c ****         CyIntDisable(USBFS_1_EP_6_VECT_NUM);
 799:Generated_Source\PSoC5/USBFS_1.c ****     #endif /* USBFS_1_EP6_ISR_REMOVE */
 800:Generated_Source\PSoC5/USBFS_1.c **** 
 801:Generated_Source\PSoC5/USBFS_1.c ****     #if (USBFS_1_EP7_ISR_ACTIVE)
 802:Generated_Source\PSoC5/USBFS_1.c ****         CyIntDisable(USBFS_1_EP_7_VECT_NUM);
 803:Generated_Source\PSoC5/USBFS_1.c ****     #endif /* (USBFS_1_EP7_ISR_ACTIVE) */
 804:Generated_Source\PSoC5/USBFS_1.c **** 
 805:Generated_Source\PSoC5/USBFS_1.c ****     #if (USBFS_1_EP8_ISR_ACTIVE)
 806:Generated_Source\PSoC5/USBFS_1.c ****         CyIntDisable(USBFS_1_EP_8_VECT_NUM);
 807:Generated_Source\PSoC5/USBFS_1.c ****     #endif /* (USBFS_1_EP8_ISR_ACTIVE) */
 808:Generated_Source\PSoC5/USBFS_1.c **** 
 809:Generated_Source\PSoC5/USBFS_1.c ****     #if (USBFS_1_DP_ISR_ACTIVE)
 810:Generated_Source\PSoC5/USBFS_1.c ****         /* Clear active mode Dp interrupt source history. */
 811:Generated_Source\PSoC5/USBFS_1.c ****         (void) USBFS_1_Dp_ClearInterrupt();
 659              		.loc 1 811 0
 660 0094 FFF7FEFF 		bl	USBFS_1_Dp_ClearInterrupt
 812:Generated_Source\PSoC5/USBFS_1.c ****         CyIntClearPending(USBFS_1_DP_INTC_VECT_NUM);
 661              		.loc 1 812 0
 662 0098 124B     		ldr	r3, .L24+24
 663 009a 4FF48052 		mov	r2, #4096
 664 009e 1A60     		str	r2, [r3]
 813:Generated_Source\PSoC5/USBFS_1.c ****     #endif /* (USBFS_1_DP_ISR_ACTIVE). */
 814:Generated_Source\PSoC5/USBFS_1.c **** 
ARM GAS  C:\Users\oars0\AppData\Local\Temp\ccNqJowk.s 			page 27


 815:Generated_Source\PSoC5/USBFS_1.c **** #endif /* (CY_PSOC4) */
 816:Generated_Source\PSoC5/USBFS_1.c **** 
 817:Generated_Source\PSoC5/USBFS_1.c ****     /* Reset component internal variables. */
 818:Generated_Source\PSoC5/USBFS_1.c ****     USBFS_1_configurationChanged = 0u;
 665              		.loc 1 818 0
 666 00a0 114B     		ldr	r3, .L24+28
 667 00a2 0022     		movs	r2, #0
 668 00a4 1A70     		strb	r2, [r3]
 819:Generated_Source\PSoC5/USBFS_1.c ****     USBFS_1_configuration   = 0u;
 669              		.loc 1 819 0
 670 00a6 114B     		ldr	r3, .L24+32
 671 00a8 0022     		movs	r2, #0
 672 00aa 1A70     		strb	r2, [r3]
 820:Generated_Source\PSoC5/USBFS_1.c ****     USBFS_1_interfaceNumber = 0u;
 673              		.loc 1 820 0
 674 00ac 104B     		ldr	r3, .L24+36
 675 00ae 0022     		movs	r2, #0
 676 00b0 1A70     		strb	r2, [r3]
 821:Generated_Source\PSoC5/USBFS_1.c ****     USBFS_1_deviceAddress   = 0u;
 677              		.loc 1 821 0
 678 00b2 104B     		ldr	r3, .L24+40
 679 00b4 0022     		movs	r2, #0
 680 00b6 1A70     		strb	r2, [r3]
 822:Generated_Source\PSoC5/USBFS_1.c ****     USBFS_1_deviceStatus    = 0u;
 681              		.loc 1 822 0
 682 00b8 0F4B     		ldr	r3, .L24+44
 683 00ba 0022     		movs	r2, #0
 684 00bc 1A70     		strb	r2, [r3]
 823:Generated_Source\PSoC5/USBFS_1.c **** 
 824:Generated_Source\PSoC5/USBFS_1.c ****     /* It is mandatory for correct device startup. */
 825:Generated_Source\PSoC5/USBFS_1.c ****     USBFS_1_initVar = 0u;
 685              		.loc 1 825 0
 686 00be 0F4B     		ldr	r3, .L24+48
 687 00c0 0022     		movs	r2, #0
 688 00c2 1A70     		strb	r2, [r3]
 826:Generated_Source\PSoC5/USBFS_1.c **** }
 689              		.loc 1 826 0
 690 00c4 00BF     		nop
 691 00c6 0837     		adds	r7, r7, #8
 692              		.cfi_def_cfa_offset 8
 693 00c8 BD46     		mov	sp, r7
 694              		.cfi_def_cfa_register 13
 695              		@ sp needed
 696 00ca 80BD     		pop	{r7, pc}
 697              	.L25:
 698              		.align	2
 699              	.L24:
 700 00cc 08600040 		.word	1073766408
 701 00d0 12600040 		.word	1073766418
 702 00d4 A5430040 		.word	1073759141
 703 00d8 B5430040 		.word	1073759157
 704 00dc F8510040 		.word	1073762808
 705 00e0 80E100E0 		.word	-536813184
 706 00e4 80E200E0 		.word	-536812928
 707 00e8 00000000 		.word	USBFS_1_configurationChanged
 708 00ec 00000000 		.word	USBFS_1_configuration
 709 00f0 00000000 		.word	USBFS_1_interfaceNumber
ARM GAS  C:\Users\oars0\AppData\Local\Temp\ccNqJowk.s 			page 28


 710 00f4 00000000 		.word	USBFS_1_deviceAddress
 711 00f8 00000000 		.word	USBFS_1_deviceStatus
 712 00fc 00000000 		.word	USBFS_1_initVar
 713              		.cfi_endproc
 714              	.LFE4:
 715              		.size	USBFS_1_Stop, .-USBFS_1_Stop
 716              		.section	.text.USBFS_1_CheckActivity,"ax",%progbits
 717              		.align	2
 718              		.global	USBFS_1_CheckActivity
 719              		.thumb
 720              		.thumb_func
 721              		.type	USBFS_1_CheckActivity, %function
 722              	USBFS_1_CheckActivity:
 723              	.LFB5:
 827:Generated_Source\PSoC5/USBFS_1.c **** 
 828:Generated_Source\PSoC5/USBFS_1.c **** 
 829:Generated_Source\PSoC5/USBFS_1.c **** /*******************************************************************************
 830:Generated_Source\PSoC5/USBFS_1.c **** * Function Name: USBFS_1_CheckActivity
 831:Generated_Source\PSoC5/USBFS_1.c **** ****************************************************************************//**
 832:Generated_Source\PSoC5/USBFS_1.c **** *
 833:Generated_Source\PSoC5/USBFS_1.c **** *  This function returns the activity status of the bus. It clears the hardware
 834:Generated_Source\PSoC5/USBFS_1.c **** *  status to provide updated status on the next call of this function. It
 835:Generated_Source\PSoC5/USBFS_1.c **** *  provides a way to determine whether any USB bus activity occurred. The
 836:Generated_Source\PSoC5/USBFS_1.c **** *  application should use this function to determine if the USB suspend
 837:Generated_Source\PSoC5/USBFS_1.c **** *  conditions are met.
 838:Generated_Source\PSoC5/USBFS_1.c **** *
 839:Generated_Source\PSoC5/USBFS_1.c **** *
 840:Generated_Source\PSoC5/USBFS_1.c **** * \return
 841:Generated_Source\PSoC5/USBFS_1.c **** *  cystatus: Status of the bus since the last call of the function.
 842:Generated_Source\PSoC5/USBFS_1.c **** *  Return Value |   Description
 843:Generated_Source\PSoC5/USBFS_1.c **** *  -------------|---------------------------------------------------------------
 844:Generated_Source\PSoC5/USBFS_1.c **** *  1            |Bus activity was detected since the last call to this function
 845:Generated_Source\PSoC5/USBFS_1.c **** *  0            |Bus activity was not detected since the last call to this function
 846:Generated_Source\PSoC5/USBFS_1.c **** *
 847:Generated_Source\PSoC5/USBFS_1.c **** *
 848:Generated_Source\PSoC5/USBFS_1.c **** *******************************************************************************/
 849:Generated_Source\PSoC5/USBFS_1.c **** uint8 USBFS_1_CheckActivity(void) 
 850:Generated_Source\PSoC5/USBFS_1.c **** {
 724              		.loc 1 850 0
 725              		.cfi_startproc
 726              		@ args = 0, pretend = 0, frame = 8
 727              		@ frame_needed = 1, uses_anonymous_args = 0
 728              		@ link register save eliminated.
 729 0000 80B4     		push	{r7}
 730              		.cfi_def_cfa_offset 4
 731              		.cfi_offset 7, -4
 732 0002 83B0     		sub	sp, sp, #12
 733              		.cfi_def_cfa_offset 16
 734 0004 00AF     		add	r7, sp, #0
 735              		.cfi_def_cfa_register 7
 851:Generated_Source\PSoC5/USBFS_1.c ****     uint8 cr1Reg = USBFS_1_CR1_REG;
 736              		.loc 1 851 0
 737 0006 0B4B     		ldr	r3, .L30
 738 0008 1B78     		ldrb	r3, [r3]
 739 000a FB71     		strb	r3, [r7, #7]
 852:Generated_Source\PSoC5/USBFS_1.c **** 
 853:Generated_Source\PSoC5/USBFS_1.c ****     /* Clear bus activity. */
ARM GAS  C:\Users\oars0\AppData\Local\Temp\ccNqJowk.s 			page 29


 854:Generated_Source\PSoC5/USBFS_1.c ****     USBFS_1_CR1_REG = (cr1Reg & (uint8) ~USBFS_1_CR1_BUS_ACTIVITY);
 740              		.loc 1 854 0
 741 000c 094A     		ldr	r2, .L30
 742 000e FB79     		ldrb	r3, [r7, #7]
 743 0010 23F00403 		bic	r3, r3, #4
 744 0014 DBB2     		uxtb	r3, r3
 745 0016 1370     		strb	r3, [r2]
 855:Generated_Source\PSoC5/USBFS_1.c **** 
 856:Generated_Source\PSoC5/USBFS_1.c ****     /* Get bus activity. */
 857:Generated_Source\PSoC5/USBFS_1.c ****     return ((0u != (cr1Reg & USBFS_1_CR1_BUS_ACTIVITY)) ? (1u) : (0u));
 746              		.loc 1 857 0
 747 0018 FB79     		ldrb	r3, [r7, #7]	@ zero_extendqisi2
 748 001a 03F00403 		and	r3, r3, #4
 749 001e 002B     		cmp	r3, #0
 750 0020 01D0     		beq	.L27
 751              		.loc 1 857 0 is_stmt 0 discriminator 1
 752 0022 0123     		movs	r3, #1
 753 0024 00E0     		b	.L28
 754              	.L27:
 755              		.loc 1 857 0 discriminator 2
 756 0026 0023     		movs	r3, #0
 757              	.L28:
 858:Generated_Source\PSoC5/USBFS_1.c **** }
 758              		.loc 1 858 0 is_stmt 1 discriminator 4
 759 0028 1846     		mov	r0, r3
 760 002a 0C37     		adds	r7, r7, #12
 761              		.cfi_def_cfa_offset 4
 762 002c BD46     		mov	sp, r7
 763              		.cfi_def_cfa_register 13
 764              		@ sp needed
 765 002e 80BC     		pop	{r7}
 766              		.cfi_restore 7
 767              		.cfi_def_cfa_offset 0
 768 0030 7047     		bx	lr
 769              	.L31:
 770 0032 00BF     		.align	2
 771              	.L30:
 772 0034 09600040 		.word	1073766409
 773              		.cfi_endproc
 774              	.LFE5:
 775              		.size	USBFS_1_CheckActivity, .-USBFS_1_CheckActivity
 776              		.section	.text.USBFS_1_GetConfiguration,"ax",%progbits
 777              		.align	2
 778              		.global	USBFS_1_GetConfiguration
 779              		.thumb
 780              		.thumb_func
 781              		.type	USBFS_1_GetConfiguration, %function
 782              	USBFS_1_GetConfiguration:
 783              	.LFB6:
 859:Generated_Source\PSoC5/USBFS_1.c **** 
 860:Generated_Source\PSoC5/USBFS_1.c **** 
 861:Generated_Source\PSoC5/USBFS_1.c **** /*******************************************************************************
 862:Generated_Source\PSoC5/USBFS_1.c **** * Function Name: USBFS_1_GetConfiguration
 863:Generated_Source\PSoC5/USBFS_1.c **** ****************************************************************************//**
 864:Generated_Source\PSoC5/USBFS_1.c **** *
 865:Generated_Source\PSoC5/USBFS_1.c **** *  This function gets the current configuration of the USB device.
 866:Generated_Source\PSoC5/USBFS_1.c **** *
ARM GAS  C:\Users\oars0\AppData\Local\Temp\ccNqJowk.s 			page 30


 867:Generated_Source\PSoC5/USBFS_1.c **** * \return
 868:Generated_Source\PSoC5/USBFS_1.c **** *  Returns the currently assigned configuration. Returns 0 if the device
 869:Generated_Source\PSoC5/USBFS_1.c **** *  is not configured
 870:Generated_Source\PSoC5/USBFS_1.c **** *
 871:Generated_Source\PSoC5/USBFS_1.c **** *******************************************************************************/
 872:Generated_Source\PSoC5/USBFS_1.c **** uint8 USBFS_1_GetConfiguration(void) 
 873:Generated_Source\PSoC5/USBFS_1.c **** {
 784              		.loc 1 873 0
 785              		.cfi_startproc
 786              		@ args = 0, pretend = 0, frame = 0
 787              		@ frame_needed = 1, uses_anonymous_args = 0
 788              		@ link register save eliminated.
 789 0000 80B4     		push	{r7}
 790              		.cfi_def_cfa_offset 4
 791              		.cfi_offset 7, -4
 792 0002 00AF     		add	r7, sp, #0
 793              		.cfi_def_cfa_register 7
 874:Generated_Source\PSoC5/USBFS_1.c ****     return (USBFS_1_configuration);
 794              		.loc 1 874 0
 795 0004 034B     		ldr	r3, .L34
 796 0006 1B78     		ldrb	r3, [r3]
 797 0008 DBB2     		uxtb	r3, r3
 875:Generated_Source\PSoC5/USBFS_1.c **** }
 798              		.loc 1 875 0
 799 000a 1846     		mov	r0, r3
 800 000c BD46     		mov	sp, r7
 801              		.cfi_def_cfa_register 13
 802              		@ sp needed
 803 000e 80BC     		pop	{r7}
 804              		.cfi_restore 7
 805              		.cfi_def_cfa_offset 0
 806 0010 7047     		bx	lr
 807              	.L35:
 808 0012 00BF     		.align	2
 809              	.L34:
 810 0014 00000000 		.word	USBFS_1_configuration
 811              		.cfi_endproc
 812              	.LFE6:
 813              		.size	USBFS_1_GetConfiguration, .-USBFS_1_GetConfiguration
 814              		.section	.text.USBFS_1_IsConfigurationChanged,"ax",%progbits
 815              		.align	2
 816              		.global	USBFS_1_IsConfigurationChanged
 817              		.thumb
 818              		.thumb_func
 819              		.type	USBFS_1_IsConfigurationChanged, %function
 820              	USBFS_1_IsConfigurationChanged:
 821              	.LFB7:
 876:Generated_Source\PSoC5/USBFS_1.c **** 
 877:Generated_Source\PSoC5/USBFS_1.c **** 
 878:Generated_Source\PSoC5/USBFS_1.c **** /*******************************************************************************
 879:Generated_Source\PSoC5/USBFS_1.c **** * Function Name: USBFS_1_IsConfigurationChanged
 880:Generated_Source\PSoC5/USBFS_1.c **** ****************************************************************************//**
 881:Generated_Source\PSoC5/USBFS_1.c **** *
 882:Generated_Source\PSoC5/USBFS_1.c **** *  This function returns the clear-on-read configuration state.  It is useful
 883:Generated_Source\PSoC5/USBFS_1.c **** *  when the host sends double SET_CONFIGURATION request with the same 
 884:Generated_Source\PSoC5/USBFS_1.c **** *  configuration number or changes alternate settings of the interface. 
 885:Generated_Source\PSoC5/USBFS_1.c **** *  After configuration has been changed the OUT endpoints must be enabled and IN 
ARM GAS  C:\Users\oars0\AppData\Local\Temp\ccNqJowk.s 			page 31


 886:Generated_Source\PSoC5/USBFS_1.c **** *  endpoint must be loaded with data to start communication with the host.
 887:Generated_Source\PSoC5/USBFS_1.c **** *
 888:Generated_Source\PSoC5/USBFS_1.c **** * \return
 889:Generated_Source\PSoC5/USBFS_1.c **** *  None-zero value when new configuration has been changed, otherwise zero is
 890:Generated_Source\PSoC5/USBFS_1.c **** *  returned.
 891:Generated_Source\PSoC5/USBFS_1.c **** *
 892:Generated_Source\PSoC5/USBFS_1.c **** * \globalvars
 893:Generated_Source\PSoC5/USBFS_1.c **** *
 894:Generated_Source\PSoC5/USBFS_1.c **** *  \ref USBFS_1_configurationChanged - This variable is set to 1 after
 895:Generated_Source\PSoC5/USBFS_1.c **** *   a SET_CONFIGURATION request and cleared in this function.
 896:Generated_Source\PSoC5/USBFS_1.c **** *
 897:Generated_Source\PSoC5/USBFS_1.c **** *******************************************************************************/
 898:Generated_Source\PSoC5/USBFS_1.c **** uint8 USBFS_1_IsConfigurationChanged(void) 
 899:Generated_Source\PSoC5/USBFS_1.c **** {
 822              		.loc 1 899 0
 823              		.cfi_startproc
 824              		@ args = 0, pretend = 0, frame = 8
 825              		@ frame_needed = 1, uses_anonymous_args = 0
 826              		@ link register save eliminated.
 827 0000 80B4     		push	{r7}
 828              		.cfi_def_cfa_offset 4
 829              		.cfi_offset 7, -4
 830 0002 83B0     		sub	sp, sp, #12
 831              		.cfi_def_cfa_offset 16
 832 0004 00AF     		add	r7, sp, #0
 833              		.cfi_def_cfa_register 7
 900:Generated_Source\PSoC5/USBFS_1.c ****     uint8 res = 0u;
 834              		.loc 1 900 0
 835 0006 0023     		movs	r3, #0
 836 0008 FB71     		strb	r3, [r7, #7]
 901:Generated_Source\PSoC5/USBFS_1.c **** 
 902:Generated_Source\PSoC5/USBFS_1.c ****     if (USBFS_1_configurationChanged != 0u)
 837              		.loc 1 902 0
 838 000a 084B     		ldr	r3, .L39
 839 000c 1B78     		ldrb	r3, [r3]
 840 000e DBB2     		uxtb	r3, r3
 841 0010 002B     		cmp	r3, #0
 842 0012 05D0     		beq	.L37
 903:Generated_Source\PSoC5/USBFS_1.c ****     {
 904:Generated_Source\PSoC5/USBFS_1.c ****         res = USBFS_1_configurationChanged;
 843              		.loc 1 904 0
 844 0014 054B     		ldr	r3, .L39
 845 0016 1B78     		ldrb	r3, [r3]
 846 0018 FB71     		strb	r3, [r7, #7]
 905:Generated_Source\PSoC5/USBFS_1.c ****         USBFS_1_configurationChanged = 0u;
 847              		.loc 1 905 0
 848 001a 044B     		ldr	r3, .L39
 849 001c 0022     		movs	r2, #0
 850 001e 1A70     		strb	r2, [r3]
 851              	.L37:
 906:Generated_Source\PSoC5/USBFS_1.c ****     }
 907:Generated_Source\PSoC5/USBFS_1.c **** 
 908:Generated_Source\PSoC5/USBFS_1.c ****     return (res);
 852              		.loc 1 908 0
 853 0020 FB79     		ldrb	r3, [r7, #7]	@ zero_extendqisi2
 909:Generated_Source\PSoC5/USBFS_1.c **** }
 854              		.loc 1 909 0
ARM GAS  C:\Users\oars0\AppData\Local\Temp\ccNqJowk.s 			page 32


 855 0022 1846     		mov	r0, r3
 856 0024 0C37     		adds	r7, r7, #12
 857              		.cfi_def_cfa_offset 4
 858 0026 BD46     		mov	sp, r7
 859              		.cfi_def_cfa_register 13
 860              		@ sp needed
 861 0028 80BC     		pop	{r7}
 862              		.cfi_restore 7
 863              		.cfi_def_cfa_offset 0
 864 002a 7047     		bx	lr
 865              	.L40:
 866              		.align	2
 867              	.L39:
 868 002c 00000000 		.word	USBFS_1_configurationChanged
 869              		.cfi_endproc
 870              	.LFE7:
 871              		.size	USBFS_1_IsConfigurationChanged, .-USBFS_1_IsConfigurationChanged
 872              		.section	.text.USBFS_1_GetInterfaceSetting,"ax",%progbits
 873              		.align	2
 874              		.global	USBFS_1_GetInterfaceSetting
 875              		.thumb
 876              		.thumb_func
 877              		.type	USBFS_1_GetInterfaceSetting, %function
 878              	USBFS_1_GetInterfaceSetting:
 879              	.LFB8:
 910:Generated_Source\PSoC5/USBFS_1.c **** 
 911:Generated_Source\PSoC5/USBFS_1.c **** 
 912:Generated_Source\PSoC5/USBFS_1.c **** /*******************************************************************************
 913:Generated_Source\PSoC5/USBFS_1.c **** * Function Name: USBFS_1_GetInterfaceSetting
 914:Generated_Source\PSoC5/USBFS_1.c **** ****************************************************************************//**
 915:Generated_Source\PSoC5/USBFS_1.c **** *
 916:Generated_Source\PSoC5/USBFS_1.c **** *  This function gets the current alternate setting for the specified interface.
 917:Generated_Source\PSoC5/USBFS_1.c **** *  It is useful to identify which alternate settings are active in the specified 
 918:Generated_Source\PSoC5/USBFS_1.c **** *  interface.
 919:Generated_Source\PSoC5/USBFS_1.c **** *
 920:Generated_Source\PSoC5/USBFS_1.c **** *  \param
 921:Generated_Source\PSoC5/USBFS_1.c **** *  interfaceNumber interface number
 922:Generated_Source\PSoC5/USBFS_1.c **** *
 923:Generated_Source\PSoC5/USBFS_1.c **** * \return
 924:Generated_Source\PSoC5/USBFS_1.c **** *  Returns the current alternate setting for the specified interface.
 925:Generated_Source\PSoC5/USBFS_1.c **** *
 926:Generated_Source\PSoC5/USBFS_1.c **** *******************************************************************************/
 927:Generated_Source\PSoC5/USBFS_1.c **** uint8  USBFS_1_GetInterfaceSetting(uint8 interfaceNumber)
 928:Generated_Source\PSoC5/USBFS_1.c ****                                                     
 929:Generated_Source\PSoC5/USBFS_1.c **** {
 880              		.loc 1 929 0
 881              		.cfi_startproc
 882              		@ args = 0, pretend = 0, frame = 8
 883              		@ frame_needed = 1, uses_anonymous_args = 0
 884              		@ link register save eliminated.
 885 0000 80B4     		push	{r7}
 886              		.cfi_def_cfa_offset 4
 887              		.cfi_offset 7, -4
 888 0002 83B0     		sub	sp, sp, #12
 889              		.cfi_def_cfa_offset 16
 890 0004 00AF     		add	r7, sp, #0
 891              		.cfi_def_cfa_register 7
ARM GAS  C:\Users\oars0\AppData\Local\Temp\ccNqJowk.s 			page 33


 892 0006 0346     		mov	r3, r0
 893 0008 FB71     		strb	r3, [r7, #7]
 930:Generated_Source\PSoC5/USBFS_1.c ****     return (USBFS_1_interfaceSetting[interfaceNumber]);
 894              		.loc 1 930 0
 895 000a FB79     		ldrb	r3, [r7, #7]	@ zero_extendqisi2
 896 000c 034A     		ldr	r2, .L43
 897 000e D35C     		ldrb	r3, [r2, r3]
 898 0010 DBB2     		uxtb	r3, r3
 931:Generated_Source\PSoC5/USBFS_1.c **** }
 899              		.loc 1 931 0
 900 0012 1846     		mov	r0, r3
 901 0014 0C37     		adds	r7, r7, #12
 902              		.cfi_def_cfa_offset 4
 903 0016 BD46     		mov	sp, r7
 904              		.cfi_def_cfa_register 13
 905              		@ sp needed
 906 0018 80BC     		pop	{r7}
 907              		.cfi_restore 7
 908              		.cfi_def_cfa_offset 0
 909 001a 7047     		bx	lr
 910              	.L44:
 911              		.align	2
 912              	.L43:
 913 001c 00000000 		.word	USBFS_1_interfaceSetting
 914              		.cfi_endproc
 915              	.LFE8:
 916              		.size	USBFS_1_GetInterfaceSetting, .-USBFS_1_GetInterfaceSetting
 917              		.section	.text.USBFS_1_GetEPState,"ax",%progbits
 918              		.align	2
 919              		.global	USBFS_1_GetEPState
 920              		.thumb
 921              		.thumb_func
 922              		.type	USBFS_1_GetEPState, %function
 923              	USBFS_1_GetEPState:
 924              	.LFB9:
 932:Generated_Source\PSoC5/USBFS_1.c **** 
 933:Generated_Source\PSoC5/USBFS_1.c **** 
 934:Generated_Source\PSoC5/USBFS_1.c **** /*******************************************************************************
 935:Generated_Source\PSoC5/USBFS_1.c **** * Function Name: USBFS_1_GetEPState
 936:Generated_Source\PSoC5/USBFS_1.c **** ****************************************************************************//**
 937:Generated_Source\PSoC5/USBFS_1.c **** *
 938:Generated_Source\PSoC5/USBFS_1.c **** *  This function returns the state of the requested endpoint.
 939:Generated_Source\PSoC5/USBFS_1.c **** *
 940:Generated_Source\PSoC5/USBFS_1.c **** * \param epNumber Data endpoint number
 941:Generated_Source\PSoC5/USBFS_1.c **** *
 942:Generated_Source\PSoC5/USBFS_1.c **** * \return
 943:Generated_Source\PSoC5/USBFS_1.c **** *  Returns the current state of the specified USBFS endpoint. Symbolic names and
 944:Generated_Source\PSoC5/USBFS_1.c **** *  their associated values are given in the following table. Use these constants
 945:Generated_Source\PSoC5/USBFS_1.c **** *  whenever you write code to change the state of the endpoints, such as ISR
 946:Generated_Source\PSoC5/USBFS_1.c **** *  code, to handle data sent or received.
 947:Generated_Source\PSoC5/USBFS_1.c **** *
 948:Generated_Source\PSoC5/USBFS_1.c **** *  Return Value           | Description
 949:Generated_Source\PSoC5/USBFS_1.c **** *  -----------------------|-----------------------------------------------------
 950:Generated_Source\PSoC5/USBFS_1.c **** *  USBFS_NO_EVENT_PENDING |The endpoint is awaiting SIE action
 951:Generated_Source\PSoC5/USBFS_1.c **** *  USBFS_EVENT_PENDING    |The endpoint is awaiting CPU action
 952:Generated_Source\PSoC5/USBFS_1.c **** *  USBFS_NO_EVENT_ALLOWED |The endpoint is locked from access
 953:Generated_Source\PSoC5/USBFS_1.c **** *  USBFS_IN_BUFFER_FULL   |The IN endpoint is loaded and the mode is set to ACK IN
ARM GAS  C:\Users\oars0\AppData\Local\Temp\ccNqJowk.s 			page 34


 954:Generated_Source\PSoC5/USBFS_1.c **** *  USBFS_IN_BUFFER_EMPTY  |An IN transaction occurred and more data can be loaded
 955:Generated_Source\PSoC5/USBFS_1.c **** *  USBFS_OUT_BUFFER_EMPTY |The OUT endpoint is set to ACK OUT and is waiting for data
 956:Generated_Source\PSoC5/USBFS_1.c **** *  USBFS_OUT_BUFFER_FULL  |An OUT transaction has occurred and data can be read
 957:Generated_Source\PSoC5/USBFS_1.c **** *
 958:Generated_Source\PSoC5/USBFS_1.c **** *******************************************************************************/
 959:Generated_Source\PSoC5/USBFS_1.c **** uint8 USBFS_1_GetEPState(uint8 epNumber) 
 960:Generated_Source\PSoC5/USBFS_1.c **** {
 925              		.loc 1 960 0
 926              		.cfi_startproc
 927              		@ args = 0, pretend = 0, frame = 8
 928              		@ frame_needed = 1, uses_anonymous_args = 0
 929              		@ link register save eliminated.
 930 0000 80B4     		push	{r7}
 931              		.cfi_def_cfa_offset 4
 932              		.cfi_offset 7, -4
 933 0002 83B0     		sub	sp, sp, #12
 934              		.cfi_def_cfa_offset 16
 935 0004 00AF     		add	r7, sp, #0
 936              		.cfi_def_cfa_register 7
 937 0006 0346     		mov	r3, r0
 938 0008 FB71     		strb	r3, [r7, #7]
 961:Generated_Source\PSoC5/USBFS_1.c ****     return (USBFS_1_EP[epNumber].apiEpState);
 939              		.loc 1 961 0
 940 000a FA79     		ldrb	r2, [r7, #7]	@ zero_extendqisi2
 941 000c 0649     		ldr	r1, .L47
 942 000e 1346     		mov	r3, r2
 943 0010 5B00     		lsls	r3, r3, #1
 944 0012 1344     		add	r3, r3, r2
 945 0014 9B00     		lsls	r3, r3, #2
 946 0016 0B44     		add	r3, r3, r1
 947 0018 0133     		adds	r3, r3, #1
 948 001a 1B78     		ldrb	r3, [r3]
 949 001c DBB2     		uxtb	r3, r3
 962:Generated_Source\PSoC5/USBFS_1.c **** }
 950              		.loc 1 962 0
 951 001e 1846     		mov	r0, r3
 952 0020 0C37     		adds	r7, r7, #12
 953              		.cfi_def_cfa_offset 4
 954 0022 BD46     		mov	sp, r7
 955              		.cfi_def_cfa_register 13
 956              		@ sp needed
 957 0024 80BC     		pop	{r7}
 958              		.cfi_restore 7
 959              		.cfi_def_cfa_offset 0
 960 0026 7047     		bx	lr
 961              	.L48:
 962              		.align	2
 963              	.L47:
 964 0028 00000000 		.word	USBFS_1_EP
 965              		.cfi_endproc
 966              	.LFE9:
 967              		.size	USBFS_1_GetEPState, .-USBFS_1_GetEPState
 968              		.section	.text.USBFS_1_GetEPCount,"ax",%progbits
 969              		.align	2
 970              		.global	USBFS_1_GetEPCount
 971              		.thumb
 972              		.thumb_func
ARM GAS  C:\Users\oars0\AppData\Local\Temp\ccNqJowk.s 			page 35


 973              		.type	USBFS_1_GetEPCount, %function
 974              	USBFS_1_GetEPCount:
 975              	.LFB10:
 963:Generated_Source\PSoC5/USBFS_1.c **** 
 964:Generated_Source\PSoC5/USBFS_1.c **** 
 965:Generated_Source\PSoC5/USBFS_1.c **** /*******************************************************************************
 966:Generated_Source\PSoC5/USBFS_1.c **** * Function Name: USBFS_1_GetEPCount
 967:Generated_Source\PSoC5/USBFS_1.c **** ****************************************************************************//**
 968:Generated_Source\PSoC5/USBFS_1.c **** *
 969:Generated_Source\PSoC5/USBFS_1.c **** *  This function supports Data Endpoints only(EP1-EP8).
 970:Generated_Source\PSoC5/USBFS_1.c **** *  Returns the transfer count for the requested endpoint.  The value from
 971:Generated_Source\PSoC5/USBFS_1.c **** *  the count registers includes 2 counts for the two byte checksum of the
 972:Generated_Source\PSoC5/USBFS_1.c **** *  packet.  This function subtracts the two counts.
 973:Generated_Source\PSoC5/USBFS_1.c **** *
 974:Generated_Source\PSoC5/USBFS_1.c **** *  \param epNumber Data Endpoint Number.
 975:Generated_Source\PSoC5/USBFS_1.c **** *                   Valid values are between 1 and 8.
 976:Generated_Source\PSoC5/USBFS_1.c **** *
 977:Generated_Source\PSoC5/USBFS_1.c **** * \return
 978:Generated_Source\PSoC5/USBFS_1.c **** *  Returns the current byte count from the specified endpoint or 0 for an
 979:Generated_Source\PSoC5/USBFS_1.c **** *  invalid endpoint.
 980:Generated_Source\PSoC5/USBFS_1.c **** *
 981:Generated_Source\PSoC5/USBFS_1.c **** *******************************************************************************/
 982:Generated_Source\PSoC5/USBFS_1.c **** uint16 USBFS_1_GetEPCount(uint8 epNumber) 
 983:Generated_Source\PSoC5/USBFS_1.c **** {
 976              		.loc 1 983 0
 977              		.cfi_startproc
 978              		@ args = 0, pretend = 0, frame = 16
 979              		@ frame_needed = 1, uses_anonymous_args = 0
 980              		@ link register save eliminated.
 981 0000 80B4     		push	{r7}
 982              		.cfi_def_cfa_offset 4
 983              		.cfi_offset 7, -4
 984 0002 85B0     		sub	sp, sp, #20
 985              		.cfi_def_cfa_offset 24
 986 0004 00AF     		add	r7, sp, #0
 987              		.cfi_def_cfa_register 7
 988 0006 0346     		mov	r3, r0
 989 0008 FB71     		strb	r3, [r7, #7]
 984:Generated_Source\PSoC5/USBFS_1.c ****     uint16 cntr = 0u;
 990              		.loc 1 984 0
 991 000a 0023     		movs	r3, #0
 992 000c FB81     		strh	r3, [r7, #14]	@ movhi
 985:Generated_Source\PSoC5/USBFS_1.c **** 
 986:Generated_Source\PSoC5/USBFS_1.c ****     if ((epNumber > USBFS_1_EP0) && (epNumber < USBFS_1_MAX_EP))
 993              		.loc 1 986 0
 994 000e FB79     		ldrb	r3, [r7, #7]	@ zero_extendqisi2
 995 0010 002B     		cmp	r3, #0
 996 0012 1CD0     		beq	.L50
 997              		.loc 1 986 0 is_stmt 0 discriminator 1
 998 0014 FB79     		ldrb	r3, [r7, #7]	@ zero_extendqisi2
 999 0016 082B     		cmp	r3, #8
 1000 0018 19D8     		bhi	.L50
 987:Generated_Source\PSoC5/USBFS_1.c ****     {
 988:Generated_Source\PSoC5/USBFS_1.c ****         /* Get 11-bits EP counter where epCnt0 - 3 bits MSB and epCnt1 - 8 bits LSB. */
 989:Generated_Source\PSoC5/USBFS_1.c ****         cntr  = ((uint16) USBFS_1_SIE_EP_BASE.sieEp[epNumber].epCnt0) & USBFS_1_EPX_CNT0_MASK;
 1001              		.loc 1 989 0 is_stmt 1
 1002 001a 104A     		ldr	r2, .L52
ARM GAS  C:\Users\oars0\AppData\Local\Temp\ccNqJowk.s 			page 36


 1003 001c FB79     		ldrb	r3, [r7, #7]	@ zero_extendqisi2
 1004 001e 1B01     		lsls	r3, r3, #4
 1005 0020 1344     		add	r3, r3, r2
 1006 0022 1B78     		ldrb	r3, [r3]
 1007 0024 DBB2     		uxtb	r3, r3
 1008 0026 9BB2     		uxth	r3, r3
 1009 0028 03F00F03 		and	r3, r3, #15
 1010 002c FB81     		strh	r3, [r7, #14]	@ movhi
 990:Generated_Source\PSoC5/USBFS_1.c ****         cntr  = ((uint16) (cntr << 8u)) | ((uint16) USBFS_1_SIE_EP_BASE.sieEp[epNumber].epCnt1);
 1011              		.loc 1 990 0
 1012 002e FB89     		ldrh	r3, [r7, #14]	@ movhi
 1013 0030 1B02     		lsls	r3, r3, #8
 1014 0032 9AB2     		uxth	r2, r3
 1015 0034 0949     		ldr	r1, .L52
 1016 0036 FB79     		ldrb	r3, [r7, #7]	@ zero_extendqisi2
 1017 0038 1B01     		lsls	r3, r3, #4
 1018 003a 0B44     		add	r3, r3, r1
 1019 003c 0133     		adds	r3, r3, #1
 1020 003e 1B78     		ldrb	r3, [r3]
 1021 0040 DBB2     		uxtb	r3, r3
 1022 0042 9BB2     		uxth	r3, r3
 1023 0044 1343     		orrs	r3, r3, r2
 1024 0046 FB81     		strh	r3, [r7, #14]	@ movhi
 991:Generated_Source\PSoC5/USBFS_1.c ****         cntr -= USBFS_1_EPX_CNTX_CRC_COUNT;
 1025              		.loc 1 991 0
 1026 0048 FB89     		ldrh	r3, [r7, #14]	@ movhi
 1027 004a 023B     		subs	r3, r3, #2
 1028 004c FB81     		strh	r3, [r7, #14]	@ movhi
 1029              	.L50:
 992:Generated_Source\PSoC5/USBFS_1.c ****     }
 993:Generated_Source\PSoC5/USBFS_1.c **** 
 994:Generated_Source\PSoC5/USBFS_1.c ****     return (cntr);
 1030              		.loc 1 994 0
 1031 004e FB89     		ldrh	r3, [r7, #14]
 995:Generated_Source\PSoC5/USBFS_1.c **** }
 1032              		.loc 1 995 0
 1033 0050 1846     		mov	r0, r3
 1034 0052 1437     		adds	r7, r7, #20
 1035              		.cfi_def_cfa_offset 4
 1036 0054 BD46     		mov	sp, r7
 1037              		.cfi_def_cfa_register 13
 1038              		@ sp needed
 1039 0056 80BC     		pop	{r7}
 1040              		.cfi_restore 7
 1041              		.cfi_def_cfa_offset 0
 1042 0058 7047     		bx	lr
 1043              	.L53:
 1044 005a 00BF     		.align	2
 1045              	.L52:
 1046 005c FC5F0040 		.word	1073766396
 1047              		.cfi_endproc
 1048              	.LFE10:
 1049              		.size	USBFS_1_GetEPCount, .-USBFS_1_GetEPCount
 1050              		.section	.text.USBFS_1_LoadInEP,"ax",%progbits
 1051              		.align	2
 1052              		.global	USBFS_1_LoadInEP
 1053              		.thumb
ARM GAS  C:\Users\oars0\AppData\Local\Temp\ccNqJowk.s 			page 37


 1054              		.thumb_func
 1055              		.type	USBFS_1_LoadInEP, %function
 1056              	USBFS_1_LoadInEP:
 1057              	.LFB11:
 996:Generated_Source\PSoC5/USBFS_1.c **** 
 997:Generated_Source\PSoC5/USBFS_1.c **** 
 998:Generated_Source\PSoC5/USBFS_1.c **** #if (USBFS_1_EP_MANAGEMENT_DMA)
 999:Generated_Source\PSoC5/USBFS_1.c **** #if (CY_PSOC4)
1000:Generated_Source\PSoC5/USBFS_1.c ****     /*******************************************************************************
1001:Generated_Source\PSoC5/USBFS_1.c ****     * Function Name: USBFS_1_InitEpDma
1002:Generated_Source\PSoC5/USBFS_1.c ****     ****************************************************************************//**
1003:Generated_Source\PSoC5/USBFS_1.c ****     *
1004:Generated_Source\PSoC5/USBFS_1.c ****     *  This function configures priority for all DMA channels utilized by the
1005:Generated_Source\PSoC5/USBFS_1.c ****     *  component. Also sets callbacks for DMA auto mode.
1006:Generated_Source\PSoC5/USBFS_1.c ****     *
1007:Generated_Source\PSoC5/USBFS_1.c ****     *******************************************************************************/
1008:Generated_Source\PSoC5/USBFS_1.c ****     static void USBFS_1_InitEpDma(void)
1009:Generated_Source\PSoC5/USBFS_1.c ****     {
1010:Generated_Source\PSoC5/USBFS_1.c ****     #if (USBFS_1_DMA1_ACTIVE)
1011:Generated_Source\PSoC5/USBFS_1.c ****         CYDMA_CH_CTL_BASE.ctl[USBFS_1_ep1_dma_CHANNEL] = USBFS_1_ep1_dma_CHANNEL_CFG;
1012:Generated_Source\PSoC5/USBFS_1.c ****     #endif /* (USBFS_1_DMA1_ACTIVE) */
1013:Generated_Source\PSoC5/USBFS_1.c **** 
1014:Generated_Source\PSoC5/USBFS_1.c ****     #if (USBFS_1_DMA2_ACTIVE)
1015:Generated_Source\PSoC5/USBFS_1.c ****         CYDMA_CH_CTL_BASE.ctl[USBFS_1_ep2_dma_CHANNEL] = USBFS_1_ep2_dma_CHANNEL_CFG;
1016:Generated_Source\PSoC5/USBFS_1.c ****     #endif /* (USBFS_1_DMA2_ACTIVE) */
1017:Generated_Source\PSoC5/USBFS_1.c **** 
1018:Generated_Source\PSoC5/USBFS_1.c ****     #if (USBFS_1_DMA3_ACTIVE)
1019:Generated_Source\PSoC5/USBFS_1.c ****         CYDMA_CH_CTL_BASE.ctl[USBFS_1_ep3_dma_CHANNEL] = USBFS_1_ep3_dma_CHANNEL_CFG;
1020:Generated_Source\PSoC5/USBFS_1.c ****     #endif /* (USBFS_1_DMA3_ACTIVE) */
1021:Generated_Source\PSoC5/USBFS_1.c **** 
1022:Generated_Source\PSoC5/USBFS_1.c ****     #if (USBFS_1_DMA4_ACTIVE)
1023:Generated_Source\PSoC5/USBFS_1.c ****         CYDMA_CH_CTL_BASE.ctl[USBFS_1_ep4_dma_CHANNEL] = USBFS_1_ep4_dma_CHANNEL_CFG;
1024:Generated_Source\PSoC5/USBFS_1.c ****     #endif /* (USBFS_1_DMA4_ACTIVE) */
1025:Generated_Source\PSoC5/USBFS_1.c **** 
1026:Generated_Source\PSoC5/USBFS_1.c ****     #if (USBFS_1_DMA5_ACTIVE)
1027:Generated_Source\PSoC5/USBFS_1.c ****         CYDMA_CH_CTL_BASE.ctl[USBFS_1_ep5_dma_CHANNEL] = USBFS_1_ep5_dma_CHANNEL_CFG;
1028:Generated_Source\PSoC5/USBFS_1.c ****     #endif /* (USBFS_1_DMA5_ACTIVE) */
1029:Generated_Source\PSoC5/USBFS_1.c **** 
1030:Generated_Source\PSoC5/USBFS_1.c ****     #if (USBFS_1_DMA6_ACTIVE)
1031:Generated_Source\PSoC5/USBFS_1.c ****         CYDMA_CH_CTL_BASE.ctl[USBFS_1_ep6_dma_CHANNEL] = USBFS_1_ep6_dma_CHANNEL_CFG;
1032:Generated_Source\PSoC5/USBFS_1.c ****     #endif /* (USBFS_1_DMA6_ACTIVE) */
1033:Generated_Source\PSoC5/USBFS_1.c **** 
1034:Generated_Source\PSoC5/USBFS_1.c ****     #if (USBFS_1_DMA7_ACTIVE)
1035:Generated_Source\PSoC5/USBFS_1.c ****         CYDMA_CH_CTL_BASE.ctl[USBFS_1_ep7_dma_CHANNEL] = USBFS_1_ep7_dma_CHANNEL_CFG;
1036:Generated_Source\PSoC5/USBFS_1.c ****     #endif /* (USBFS_1_DMA7_ACTIVE) */
1037:Generated_Source\PSoC5/USBFS_1.c **** 
1038:Generated_Source\PSoC5/USBFS_1.c ****     #if (USBFS_1_DMA8_ACTIVE)
1039:Generated_Source\PSoC5/USBFS_1.c ****         CYDMA_CH_CTL_BASE.ctl[USBFS_1_ep8_dma_CHANNEL] = USBFS_1_ep8_dma_CHANNEL_CFG;
1040:Generated_Source\PSoC5/USBFS_1.c ****     #endif /* (USBFS_1_DMA8_ACTIVE) */
1041:Generated_Source\PSoC5/USBFS_1.c **** 
1042:Generated_Source\PSoC5/USBFS_1.c ****     #if (USBFS_1_EP_MANAGEMENT_DMA_AUTO)
1043:Generated_Source\PSoC5/USBFS_1.c ****         /* Initialize DMA channel callbacks. */
1044:Generated_Source\PSoC5/USBFS_1.c ****         #if (USBFS_1_DMA1_ACTIVE)
1045:Generated_Source\PSoC5/USBFS_1.c ****             (void) USBFS_1_ep1_dma_SetInterruptCallback(&USBFS_1_EP1_DMA_DONE_ISR);
1046:Generated_Source\PSoC5/USBFS_1.c ****         #endif /* (USBFS_1_DMA1_ACTIVE) */
1047:Generated_Source\PSoC5/USBFS_1.c **** 
1048:Generated_Source\PSoC5/USBFS_1.c ****         #if (USBFS_1_DMA2_ACTIVE)
ARM GAS  C:\Users\oars0\AppData\Local\Temp\ccNqJowk.s 			page 38


1049:Generated_Source\PSoC5/USBFS_1.c ****             (void) USBFS_1_ep2_dma_SetInterruptCallback(&USBFS_1_EP2_DMA_DONE_ISR);
1050:Generated_Source\PSoC5/USBFS_1.c ****         #endif /* (USBFS_1_DMA2_ACTIVE) */
1051:Generated_Source\PSoC5/USBFS_1.c **** 
1052:Generated_Source\PSoC5/USBFS_1.c ****         #if (USBFS_1_DMA3_ACTIVE)
1053:Generated_Source\PSoC5/USBFS_1.c ****             (void) USBFS_1_ep3_dma_SetInterruptCallback(&USBFS_1_EP3_DMA_DONE_ISR);
1054:Generated_Source\PSoC5/USBFS_1.c ****         #endif /* (USBFS_1_DMA3_ACTIVE) */
1055:Generated_Source\PSoC5/USBFS_1.c **** 
1056:Generated_Source\PSoC5/USBFS_1.c ****         #if (USBFS_1_DMA4_ACTIVE)
1057:Generated_Source\PSoC5/USBFS_1.c ****             (void) USBFS_1_ep4_dma_SetInterruptCallback(&USBFS_1_EP4_DMA_DONE_ISR);
1058:Generated_Source\PSoC5/USBFS_1.c ****         #endif /* (USBFS_1_DMA4_ACTIVE) */
1059:Generated_Source\PSoC5/USBFS_1.c **** 
1060:Generated_Source\PSoC5/USBFS_1.c ****         #if (USBFS_1_DMA5_ACTIVE)
1061:Generated_Source\PSoC5/USBFS_1.c ****             (void) USBFS_1_ep5_dma_SetInterruptCallback(&USBFS_1_EP5_DMA_DONE_ISR);
1062:Generated_Source\PSoC5/USBFS_1.c ****         #endif /* (USBFS_1_DMA5_ACTIVE) */
1063:Generated_Source\PSoC5/USBFS_1.c **** 
1064:Generated_Source\PSoC5/USBFS_1.c ****         #if (USBFS_1_DMA6_ACTIVE)
1065:Generated_Source\PSoC5/USBFS_1.c ****             (void) USBFS_1_ep6_dma_SetInterruptCallback(&USBFS_1_EP6_DMA_DONE_ISR);
1066:Generated_Source\PSoC5/USBFS_1.c ****         #endif /* (USBFS_1_DMA6_ACTIVE) */
1067:Generated_Source\PSoC5/USBFS_1.c **** 
1068:Generated_Source\PSoC5/USBFS_1.c ****         #if (USBFS_1_DMA7_ACTIVE)
1069:Generated_Source\PSoC5/USBFS_1.c ****             (void) USBFS_1_ep7_dma_SetInterruptCallback(&USBFS_1_EP7_DMA_DONE_ISR);
1070:Generated_Source\PSoC5/USBFS_1.c ****         #endif /* (USBFS_1_DMA7_ACTIVE) */
1071:Generated_Source\PSoC5/USBFS_1.c **** 
1072:Generated_Source\PSoC5/USBFS_1.c ****         #if (USBFS_1_DMA8_ACTIVE)
1073:Generated_Source\PSoC5/USBFS_1.c ****             (void) USBFS_1_ep8_dma_SetInterruptCallback(&USBFS_1_EP8_DMA_DONE_ISR);
1074:Generated_Source\PSoC5/USBFS_1.c ****         #endif /* (USBFS_1_DMA8_ACTIVE) */
1075:Generated_Source\PSoC5/USBFS_1.c ****     #endif /* (USBFS_1_EP_MANAGEMENT_DMA_AUTO) */
1076:Generated_Source\PSoC5/USBFS_1.c ****     }
1077:Generated_Source\PSoC5/USBFS_1.c **** #else
1078:Generated_Source\PSoC5/USBFS_1.c **** 
1079:Generated_Source\PSoC5/USBFS_1.c **** 
1080:Generated_Source\PSoC5/USBFS_1.c ****     /***************************************************************************
1081:Generated_Source\PSoC5/USBFS_1.c ****     * Function Name: USBFS_1_InitEP_DMA
1082:Generated_Source\PSoC5/USBFS_1.c ****     ************************************************************************//**
1083:Generated_Source\PSoC5/USBFS_1.c ****     *
1084:Generated_Source\PSoC5/USBFS_1.c ****     *  This function allocates and initializes a DMA channel to be used by the
1085:Generated_Source\PSoC5/USBFS_1.c ****     *  USBFS_1_LoadInEP() or USBFS_1_ReadOutEP() APIs for data
1086:Generated_Source\PSoC5/USBFS_1.c ****     *  transfer. It is available when the Endpoint Memory Management parameter
1087:Generated_Source\PSoC5/USBFS_1.c ****     *  is set to DMA.
1088:Generated_Source\PSoC5/USBFS_1.c ****     *
1089:Generated_Source\PSoC5/USBFS_1.c ****     *  This function is automatically called from the USBFS_LoadInEP() and USBFS_ReadOutEP() APIs.
1090:Generated_Source\PSoC5/USBFS_1.c ****     *
1091:Generated_Source\PSoC5/USBFS_1.c ****     *  \param epNumber Contains the data endpoint number.
1092:Generated_Source\PSoC5/USBFS_1.c ****     *            Valid values are between 1 and 8.
1093:Generated_Source\PSoC5/USBFS_1.c ****     *  \param *pData Pointer to a data array that is related to the EP transfers.
1094:Generated_Source\PSoC5/USBFS_1.c ****     *
1095:Generated_Source\PSoC5/USBFS_1.c ****     * \reentrant No.
1096:Generated_Source\PSoC5/USBFS_1.c ****     *
1097:Generated_Source\PSoC5/USBFS_1.c ****     ***************************************************************************/
1098:Generated_Source\PSoC5/USBFS_1.c ****     void USBFS_1_InitEP_DMA(uint8 epNumber, const uint8 *pData)
1099:Generated_Source\PSoC5/USBFS_1.c ****                                                                     
1100:Generated_Source\PSoC5/USBFS_1.c ****     {
1101:Generated_Source\PSoC5/USBFS_1.c ****         uint16 src;
1102:Generated_Source\PSoC5/USBFS_1.c ****         uint16 dst;
1103:Generated_Source\PSoC5/USBFS_1.c **** 
1104:Generated_Source\PSoC5/USBFS_1.c ****     #if (CY_PSOC3)
1105:Generated_Source\PSoC5/USBFS_1.c ****         src = HI16(CYDEV_SRAM_BASE);
ARM GAS  C:\Users\oars0\AppData\Local\Temp\ccNqJowk.s 			page 39


1106:Generated_Source\PSoC5/USBFS_1.c ****         dst = HI16(CYDEV_PERIPH_BASE);
1107:Generated_Source\PSoC5/USBFS_1.c ****         pData = pData;
1108:Generated_Source\PSoC5/USBFS_1.c ****     #else
1109:Generated_Source\PSoC5/USBFS_1.c ****         if ((USBFS_1_EP[epNumber].addr & USBFS_1_DIR_IN) != 0u)
1110:Generated_Source\PSoC5/USBFS_1.c ****         {
1111:Generated_Source\PSoC5/USBFS_1.c ****             /* IN endpoint: source is memory buffer. */
1112:Generated_Source\PSoC5/USBFS_1.c ****             src = HI16(pData);
1113:Generated_Source\PSoC5/USBFS_1.c ****             dst = HI16(CYDEV_PERIPH_BASE);
1114:Generated_Source\PSoC5/USBFS_1.c ****         }
1115:Generated_Source\PSoC5/USBFS_1.c ****         else
1116:Generated_Source\PSoC5/USBFS_1.c ****         {
1117:Generated_Source\PSoC5/USBFS_1.c ****             /* OUT endpoint: source is USB IP memory buffer. */
1118:Generated_Source\PSoC5/USBFS_1.c ****             src = HI16(CYDEV_PERIPH_BASE);
1119:Generated_Source\PSoC5/USBFS_1.c ****             dst = HI16(pData);
1120:Generated_Source\PSoC5/USBFS_1.c ****         }
1121:Generated_Source\PSoC5/USBFS_1.c ****     #endif  /* (CY_PSOC3) */
1122:Generated_Source\PSoC5/USBFS_1.c **** 
1123:Generated_Source\PSoC5/USBFS_1.c ****         switch(epNumber)
1124:Generated_Source\PSoC5/USBFS_1.c ****         {
1125:Generated_Source\PSoC5/USBFS_1.c ****     #if (USBFS_1_DMA1_ACTIVE)
1126:Generated_Source\PSoC5/USBFS_1.c ****         case USBFS_1_EP1:
1127:Generated_Source\PSoC5/USBFS_1.c ****             USBFS_1_DmaChan[epNumber] = USBFS_1_ep1_DmaInitialize(USBFS_1_DMA_BYTES_PER_BURST,
1128:Generated_Source\PSoC5/USBFS_1.c ****                                                                                     USBFS_1_DMA_REQ
1129:Generated_Source\PSoC5/USBFS_1.c ****             break;
1130:Generated_Source\PSoC5/USBFS_1.c ****     #endif /* (USBFS_1_DMA1_ACTIVE) */
1131:Generated_Source\PSoC5/USBFS_1.c **** 
1132:Generated_Source\PSoC5/USBFS_1.c ****     #if (USBFS_1_DMA2_ACTIVE)
1133:Generated_Source\PSoC5/USBFS_1.c ****         case USBFS_1_EP2:
1134:Generated_Source\PSoC5/USBFS_1.c ****             USBFS_1_DmaChan[epNumber] = USBFS_1_ep2_DmaInitialize(USBFS_1_DMA_BYTES_PER_BURST,
1135:Generated_Source\PSoC5/USBFS_1.c ****                                                                                     USBFS_1_DMA_REQ
1136:Generated_Source\PSoC5/USBFS_1.c ****             break;
1137:Generated_Source\PSoC5/USBFS_1.c ****     #endif /* (USBFS_1_DMA2_ACTIVE) */
1138:Generated_Source\PSoC5/USBFS_1.c **** 
1139:Generated_Source\PSoC5/USBFS_1.c ****     #if (USBFS_1_DMA3_ACTIVE)
1140:Generated_Source\PSoC5/USBFS_1.c ****             case USBFS_1_EP3:
1141:Generated_Source\PSoC5/USBFS_1.c ****                 USBFS_1_DmaChan[epNumber] = USBFS_1_ep3_DmaInitialize(USBFS_1_DMA_BYTES_PER_BURST,
1142:Generated_Source\PSoC5/USBFS_1.c ****                                                                                         USBFS_1_DMA
1143:Generated_Source\PSoC5/USBFS_1.c ****             break;
1144:Generated_Source\PSoC5/USBFS_1.c ****     #endif /* (USBFS_1_DMA3_ACTIVE) */
1145:Generated_Source\PSoC5/USBFS_1.c **** 
1146:Generated_Source\PSoC5/USBFS_1.c ****     #if (USBFS_1_DMA4_ACTIVE)
1147:Generated_Source\PSoC5/USBFS_1.c ****             case USBFS_1_EP4:
1148:Generated_Source\PSoC5/USBFS_1.c ****                 USBFS_1_DmaChan[epNumber] = USBFS_1_ep4_DmaInitialize(USBFS_1_DMA_BYTES_PER_BURST,
1149:Generated_Source\PSoC5/USBFS_1.c ****                                                                                         USBFS_1_DMA
1150:Generated_Source\PSoC5/USBFS_1.c ****             break;
1151:Generated_Source\PSoC5/USBFS_1.c ****     #endif /* (USBFS_1_DMA4_ACTIVE) */
1152:Generated_Source\PSoC5/USBFS_1.c **** 
1153:Generated_Source\PSoC5/USBFS_1.c ****     #if (USBFS_1_DMA5_ACTIVE)
1154:Generated_Source\PSoC5/USBFS_1.c ****             case USBFS_1_EP5:
1155:Generated_Source\PSoC5/USBFS_1.c ****                 USBFS_1_DmaChan[epNumber] = USBFS_1_ep5_DmaInitialize(USBFS_1_DMA_BYTES_PER_BURST,
1156:Generated_Source\PSoC5/USBFS_1.c ****                                                                                         USBFS_1_DMA
1157:Generated_Source\PSoC5/USBFS_1.c ****             break;
1158:Generated_Source\PSoC5/USBFS_1.c ****     #endif /* (USBFS_1_DMA5_ACTIVE) */
1159:Generated_Source\PSoC5/USBFS_1.c **** 
1160:Generated_Source\PSoC5/USBFS_1.c ****     #if (USBFS_1_DMA6_ACTIVE)
1161:Generated_Source\PSoC5/USBFS_1.c ****         case USBFS_1_EP6:
1162:Generated_Source\PSoC5/USBFS_1.c ****             USBFS_1_DmaChan[epNumber] = USBFS_1_ep6_DmaInitialize(USBFS_1_DMA_BYTES_PER_BURST,
ARM GAS  C:\Users\oars0\AppData\Local\Temp\ccNqJowk.s 			page 40


1163:Generated_Source\PSoC5/USBFS_1.c ****                                                                                     USBFS_1_DMA_REQ
1164:Generated_Source\PSoC5/USBFS_1.c ****             break;
1165:Generated_Source\PSoC5/USBFS_1.c ****     #endif /* (USBFS_1_DMA6_ACTIVE) */
1166:Generated_Source\PSoC5/USBFS_1.c **** 
1167:Generated_Source\PSoC5/USBFS_1.c ****     #if (USBFS_1_DMA7_ACTIVE)
1168:Generated_Source\PSoC5/USBFS_1.c ****         case USBFS_1_EP7:
1169:Generated_Source\PSoC5/USBFS_1.c ****                 USBFS_1_DmaChan[epNumber] = USBFS_1_ep7_DmaInitialize(USBFS_1_DMA_BYTES_PER_BURST,
1170:Generated_Source\PSoC5/USBFS_1.c ****                                                                                         USBFS_1_DMA
1171:Generated_Source\PSoC5/USBFS_1.c ****             break;
1172:Generated_Source\PSoC5/USBFS_1.c ****     #endif /* (USBFS_1_DMA7_ACTIVE) */
1173:Generated_Source\PSoC5/USBFS_1.c **** 
1174:Generated_Source\PSoC5/USBFS_1.c ****     #if (USBFS_1_DMA8_ACTIVE)
1175:Generated_Source\PSoC5/USBFS_1.c ****         case USBFS_1_EP8:
1176:Generated_Source\PSoC5/USBFS_1.c ****                 USBFS_1_DmaChan[epNumber] = USBFS_1_ep8_DmaInitialize(USBFS_1_DMA_BYTES_PER_BURST,
1177:Generated_Source\PSoC5/USBFS_1.c ****                                                                                         USBFS_1_DMA
1178:Generated_Source\PSoC5/USBFS_1.c ****             break;
1179:Generated_Source\PSoC5/USBFS_1.c ****     #endif /* (USBFS_1_DMA8_ACTIVE) */
1180:Generated_Source\PSoC5/USBFS_1.c **** 
1181:Generated_Source\PSoC5/USBFS_1.c ****         default:
1182:Generated_Source\PSoC5/USBFS_1.c ****             /* Do nothing for endpoints other than 1-8. */
1183:Generated_Source\PSoC5/USBFS_1.c ****             break;
1184:Generated_Source\PSoC5/USBFS_1.c ****         }
1185:Generated_Source\PSoC5/USBFS_1.c **** 
1186:Generated_Source\PSoC5/USBFS_1.c ****         if ((epNumber > USBFS_1_EP0) && (epNumber < USBFS_1_MAX_EP))
1187:Generated_Source\PSoC5/USBFS_1.c ****         {
1188:Generated_Source\PSoC5/USBFS_1.c ****             USBFS_1_DmaTd[epNumber] = CyDmaTdAllocate();
1189:Generated_Source\PSoC5/USBFS_1.c **** 
1190:Generated_Source\PSoC5/USBFS_1.c ****         #if (USBFS_1_EP_MANAGEMENT_DMA_AUTO && (USBFS_1_EP_DMA_AUTO_OPT == 0u))
1191:Generated_Source\PSoC5/USBFS_1.c ****             USBFS_1_DmaNextTd[epNumber] = CyDmaTdAllocate();
1192:Generated_Source\PSoC5/USBFS_1.c ****         #endif /* (USBFS_1_EP_MANAGEMENT_DMA_AUTO && (USBFS_1_EP_DMA_AUTO_OPT == 0u)) */
1193:Generated_Source\PSoC5/USBFS_1.c ****         }
1194:Generated_Source\PSoC5/USBFS_1.c ****     }
1195:Generated_Source\PSoC5/USBFS_1.c **** #endif /* (CY_PSOC4) */
1196:Generated_Source\PSoC5/USBFS_1.c **** 
1197:Generated_Source\PSoC5/USBFS_1.c ****     /***************************************************************************
1198:Generated_Source\PSoC5/USBFS_1.c ****     * Function Name: USBFS_1_Stop_DMA
1199:Generated_Source\PSoC5/USBFS_1.c ****     ************************************************************************//**
1200:Generated_Source\PSoC5/USBFS_1.c ****     *  
1201:Generated_Source\PSoC5/USBFS_1.c ****     *  This function stops DMA channel associated with endpoint. It is available 
1202:Generated_Source\PSoC5/USBFS_1.c ****     *  when the Endpoint Buffer Management parameter is set to DMA. Call this 
1203:Generated_Source\PSoC5/USBFS_1.c ****     *  function when endpoint direction is changed from IN to OUT or vice versa 
1204:Generated_Source\PSoC5/USBFS_1.c ****     *  to trigger DMA re-configuration when USBFS_1_LoadInEP() or 
1205:Generated_Source\PSoC5/USBFS_1.c ****     *  USBFS_1_ReadOutEP() functions are called the first time. 
1206:Generated_Source\PSoC5/USBFS_1.c ****     *  
1207:Generated_Source\PSoC5/USBFS_1.c ****     *  \param epNumber: The data endpoint number for which associated DMA 
1208:Generated_Source\PSoC5/USBFS_1.c ****     *  channel is stopped. The range of valid values is between 1 and 8. To stop 
1209:Generated_Source\PSoC5/USBFS_1.c ****     *  all DMAs associated with endpoints call this function with 
1210:Generated_Source\PSoC5/USBFS_1.c ****     *  USBFS_1_MAX_EP argument.
1211:Generated_Source\PSoC5/USBFS_1.c ****     *
1212:Generated_Source\PSoC5/USBFS_1.c ****     * \reentrant
1213:Generated_Source\PSoC5/USBFS_1.c ****     *  No.
1214:Generated_Source\PSoC5/USBFS_1.c ****     *
1215:Generated_Source\PSoC5/USBFS_1.c ****     ***************************************************************************/
1216:Generated_Source\PSoC5/USBFS_1.c ****     void USBFS_1_Stop_DMA(uint8 epNumber) 
1217:Generated_Source\PSoC5/USBFS_1.c ****     {
1218:Generated_Source\PSoC5/USBFS_1.c ****         uint8 i;
1219:Generated_Source\PSoC5/USBFS_1.c **** 
ARM GAS  C:\Users\oars0\AppData\Local\Temp\ccNqJowk.s 			page 41


1220:Generated_Source\PSoC5/USBFS_1.c ****         i = (epNumber < USBFS_1_MAX_EP) ? epNumber : USBFS_1_EP1;
1221:Generated_Source\PSoC5/USBFS_1.c **** 
1222:Generated_Source\PSoC5/USBFS_1.c ****         do
1223:Generated_Source\PSoC5/USBFS_1.c ****         {
1224:Generated_Source\PSoC5/USBFS_1.c ****         #if (CY_PSOC4)
1225:Generated_Source\PSoC5/USBFS_1.c ****             if (0u != USBFS_1_DmaChan[i])
1226:Generated_Source\PSoC5/USBFS_1.c ****             {
1227:Generated_Source\PSoC5/USBFS_1.c ****                 USBFS_1_CyDmaChDisable(USBFS_1_DmaChan[i]);
1228:Generated_Source\PSoC5/USBFS_1.c ****             }
1229:Generated_Source\PSoC5/USBFS_1.c ****         #else
1230:Generated_Source\PSoC5/USBFS_1.c ****             if(USBFS_1_DmaTd[i] != DMA_INVALID_TD)
1231:Generated_Source\PSoC5/USBFS_1.c ****             {
1232:Generated_Source\PSoC5/USBFS_1.c ****                 (void) CyDmaChDisable(USBFS_1_DmaChan[i]);
1233:Generated_Source\PSoC5/USBFS_1.c ****                 CyDmaTdFree(USBFS_1_DmaTd[i]);
1234:Generated_Source\PSoC5/USBFS_1.c ****                 USBFS_1_DmaTd[i] = DMA_INVALID_TD;
1235:Generated_Source\PSoC5/USBFS_1.c ****             }
1236:Generated_Source\PSoC5/USBFS_1.c **** 
1237:Generated_Source\PSoC5/USBFS_1.c ****             #if (USBFS_1_EP_MANAGEMENT_DMA_AUTO && (USBFS_1_EP_DMA_AUTO_OPT == 0u))
1238:Generated_Source\PSoC5/USBFS_1.c ****                 if(USBFS_1_DmaNextTd[i] != DMA_INVALID_TD)
1239:Generated_Source\PSoC5/USBFS_1.c ****                 {
1240:Generated_Source\PSoC5/USBFS_1.c ****                     CyDmaTdFree(USBFS_1_DmaNextTd[i]);
1241:Generated_Source\PSoC5/USBFS_1.c ****                     USBFS_1_DmaNextTd[i] = DMA_INVALID_TD;
1242:Generated_Source\PSoC5/USBFS_1.c ****                 }
1243:Generated_Source\PSoC5/USBFS_1.c ****             #endif /* (USBFS_1_EP_MANAGEMENT_DMA_AUTO && (USBFS_1_EP_DMA_AUTO_OPT == 0u)) */
1244:Generated_Source\PSoC5/USBFS_1.c **** 
1245:Generated_Source\PSoC5/USBFS_1.c ****         #endif /* (CY_PSOC4) */
1246:Generated_Source\PSoC5/USBFS_1.c ****             i++;
1247:Generated_Source\PSoC5/USBFS_1.c ****         }
1248:Generated_Source\PSoC5/USBFS_1.c ****         while ((i < USBFS_1_MAX_EP) && (epNumber == USBFS_1_MAX_EP));
1249:Generated_Source\PSoC5/USBFS_1.c ****     }
1250:Generated_Source\PSoC5/USBFS_1.c **** #endif /* (USBFS_1_EP_MANAGEMENT_DMA) */
1251:Generated_Source\PSoC5/USBFS_1.c **** 
1252:Generated_Source\PSoC5/USBFS_1.c **** 
1253:Generated_Source\PSoC5/USBFS_1.c **** #if (CY_PSOC3 || CY_PSOC5)
1254:Generated_Source\PSoC5/USBFS_1.c **** #if (USBFS_1_EP_MANAGEMENT_DMA_AUTO && (USBFS_1_EP_DMA_AUTO_OPT == 0u))
1255:Generated_Source\PSoC5/USBFS_1.c ****     /***************************************************************************
1256:Generated_Source\PSoC5/USBFS_1.c ****     * Function Name: USBFS_1_LoadNextInEP
1257:Generated_Source\PSoC5/USBFS_1.c ****     ************************************************************************//**
1258:Generated_Source\PSoC5/USBFS_1.c ****     *
1259:Generated_Source\PSoC5/USBFS_1.c ****     * Summary:
1260:Generated_Source\PSoC5/USBFS_1.c ****     *  This internal function is used for IN endpoint DMA reconfiguration in
1261:Generated_Source\PSoC5/USBFS_1.c ****     *  Auto DMA mode.
1262:Generated_Source\PSoC5/USBFS_1.c ****     *
1263:Generated_Source\PSoC5/USBFS_1.c ****     * Parameters:
1264:Generated_Source\PSoC5/USBFS_1.c ****     *  epNumber: Contains the data endpoint number.
1265:Generated_Source\PSoC5/USBFS_1.c ****     *  mode:   0 - Configure DMA to send the the rest of data.
1266:Generated_Source\PSoC5/USBFS_1.c ****     *          1 - Configure DMA to repeat 2 last bytes of the first burst.
1267:Generated_Source\PSoC5/USBFS_1.c ****     *
1268:Generated_Source\PSoC5/USBFS_1.c ****     ***************************************************************************/
1269:Generated_Source\PSoC5/USBFS_1.c ****     void USBFS_1_LoadNextInEP(uint8 epNumber, uint8 mode) 
1270:Generated_Source\PSoC5/USBFS_1.c ****     {
1271:Generated_Source\PSoC5/USBFS_1.c ****         reg16 *convert;
1272:Generated_Source\PSoC5/USBFS_1.c **** 
1273:Generated_Source\PSoC5/USBFS_1.c ****         if (mode == 0u)
1274:Generated_Source\PSoC5/USBFS_1.c ****         {
1275:Generated_Source\PSoC5/USBFS_1.c ****             /* Configure DMA to send rest of data. */
1276:Generated_Source\PSoC5/USBFS_1.c ****             /* CyDmaTdSetConfiguration API is optimized to change transfer length only and configur
ARM GAS  C:\Users\oars0\AppData\Local\Temp\ccNqJowk.s 			page 42


1277:Generated_Source\PSoC5/USBFS_1.c ****             convert = (reg16 *) &CY_DMA_TDMEM_STRUCT_PTR[USBFS_1_DmaTd[epNumber]].TD0[0u];
1278:Generated_Source\PSoC5/USBFS_1.c ****             /* Set transfer length. */
1279:Generated_Source\PSoC5/USBFS_1.c ****             CY_SET_REG16(convert, USBFS_1_inLength[epNumber] - USBFS_1_DMA_BYTES_PER_BURST);
1280:Generated_Source\PSoC5/USBFS_1.c ****             /* CyDmaTdSetAddress API is optimized to change source address only. */
1281:Generated_Source\PSoC5/USBFS_1.c ****             convert = (reg16 *) &CY_DMA_TDMEM_STRUCT_PTR[USBFS_1_DmaTd[epNumber]].TD1[0u];
1282:Generated_Source\PSoC5/USBFS_1.c ****             CY_SET_REG16(convert, LO16((uint32)USBFS_1_inDataPointer[epNumber] +
1283:Generated_Source\PSoC5/USBFS_1.c ****                                             USBFS_1_DMA_BYTES_PER_BURST));
1284:Generated_Source\PSoC5/USBFS_1.c ****             USBFS_1_inBufFull[epNumber] = 1u;
1285:Generated_Source\PSoC5/USBFS_1.c ****         }
1286:Generated_Source\PSoC5/USBFS_1.c ****         else
1287:Generated_Source\PSoC5/USBFS_1.c ****         {
1288:Generated_Source\PSoC5/USBFS_1.c ****             /* Configure DMA to repeat 2 last bytes of the first burst. */
1289:Generated_Source\PSoC5/USBFS_1.c ****             /* CyDmaTdSetConfiguration API is optimized to change transfer length only and configur
1290:Generated_Source\PSoC5/USBFS_1.c ****             convert = (reg16 *) &CY_DMA_TDMEM_STRUCT_PTR[USBFS_1_DmaTd[epNumber]].TD0[0u];
1291:Generated_Source\PSoC5/USBFS_1.c ****             /* Set transfer length. */
1292:Generated_Source\PSoC5/USBFS_1.c ****             CY_SET_REG16(convert, USBFS_1_DMA_BYTES_REPEAT);
1293:Generated_Source\PSoC5/USBFS_1.c ****             /* CyDmaTdSetAddress API is optimized to change source address only. */
1294:Generated_Source\PSoC5/USBFS_1.c ****             convert = (reg16 *) &CY_DMA_TDMEM_STRUCT_PTR[USBFS_1_DmaTd[epNumber]].TD1[0u];
1295:Generated_Source\PSoC5/USBFS_1.c ****             CY_SET_REG16(convert,  LO16((uint32)USBFS_1_inDataPointer[epNumber] +
1296:Generated_Source\PSoC5/USBFS_1.c ****                                    (USBFS_1_DMA_BYTES_PER_BURST - USBFS_1_DMA_BYTES_REPEAT)));
1297:Generated_Source\PSoC5/USBFS_1.c ****         }
1298:Generated_Source\PSoC5/USBFS_1.c **** 
1299:Generated_Source\PSoC5/USBFS_1.c ****         /* CyDmaChSetInitialTd API is optimized to initialize TD. */
1300:Generated_Source\PSoC5/USBFS_1.c ****         CY_DMA_CH_STRUCT_PTR[USBFS_1_DmaChan[epNumber]].basic_status[1u] = USBFS_1_DmaTd[epNumber];
1301:Generated_Source\PSoC5/USBFS_1.c ****     }
1302:Generated_Source\PSoC5/USBFS_1.c **** #endif /* (USBFS_1_EP_MANAGEMENT_DMA_AUTO && (USBFS_1_EP_DMA_AUTO_OPT == 0u)) */
1303:Generated_Source\PSoC5/USBFS_1.c **** #endif /* (CY_PSOC3 || CY_PSOC5) */
1304:Generated_Source\PSoC5/USBFS_1.c **** 
1305:Generated_Source\PSoC5/USBFS_1.c **** 
1306:Generated_Source\PSoC5/USBFS_1.c **** /*******************************************************************************
1307:Generated_Source\PSoC5/USBFS_1.c **** * Function Name: USBFS_1_LoadInEP
1308:Generated_Source\PSoC5/USBFS_1.c **** ****************************************************************************//**
1309:Generated_Source\PSoC5/USBFS_1.c **** *
1310:Generated_Source\PSoC5/USBFS_1.c **** *  This function performs different functionality depending on the Component’s
1311:Generated_Source\PSoC5/USBFS_1.c **** *  configured Endpoint Buffer Management. This parameter is defined in
1312:Generated_Source\PSoC5/USBFS_1.c **** *  the Descriptor Root in Component Configure window.
1313:Generated_Source\PSoC5/USBFS_1.c **** *
1314:Generated_Source\PSoC5/USBFS_1.c **** *  *Manual (Static/Dynamic Allocation):*
1315:Generated_Source\PSoC5/USBFS_1.c **** *  This function loads and enables the specified USB data endpoint for an IN
1316:Generated_Source\PSoC5/USBFS_1.c **** *  data transfer.
1317:Generated_Source\PSoC5/USBFS_1.c **** *
1318:Generated_Source\PSoC5/USBFS_1.c **** *  *DMA with Manual Buffer Management:*
1319:Generated_Source\PSoC5/USBFS_1.c **** *  Configures DMA for a data transfer from system RAM to endpoint buffer.
1320:Generated_Source\PSoC5/USBFS_1.c **** *  Generates request for a transfer.
1321:Generated_Source\PSoC5/USBFS_1.c **** *
1322:Generated_Source\PSoC5/USBFS_1.c **** *  *DMA with Automatic Buffer Management:*
1323:Generated_Source\PSoC5/USBFS_1.c **** *  Configures DMA. This is required only once, so it is done only when parameter
1324:Generated_Source\PSoC5/USBFS_1.c **** *  pData is not NULL. When the pData pointer is NULL, the function skips this
1325:Generated_Source\PSoC5/USBFS_1.c **** *  task. Sets Data ready status: This generates the first DMA transfer and
1326:Generated_Source\PSoC5/USBFS_1.c **** *  prepares data in endpoint buffer.
1327:Generated_Source\PSoC5/USBFS_1.c **** *
1328:Generated_Source\PSoC5/USBFS_1.c **** *  \param epNumber Contains the data endpoint number.
1329:Generated_Source\PSoC5/USBFS_1.c **** *            Valid values are between 1 and 8.
1330:Generated_Source\PSoC5/USBFS_1.c **** *  \param *pData A pointer to a data array from which the data for the endpoint space
1331:Generated_Source\PSoC5/USBFS_1.c **** *          is loaded.
1332:Generated_Source\PSoC5/USBFS_1.c **** *  \param length The number of bytes to transfer from the array and then send as
1333:Generated_Source\PSoC5/USBFS_1.c **** *          a result of an IN request. Valid values are between 0 and 512
ARM GAS  C:\Users\oars0\AppData\Local\Temp\ccNqJowk.s 			page 43


1334:Generated_Source\PSoC5/USBFS_1.c **** *          (1023 for DMA with Automatic Buffer Management mode). The value 512
1335:Generated_Source\PSoC5/USBFS_1.c **** *          is applicable if only one endpoint is used.
1336:Generated_Source\PSoC5/USBFS_1.c **** *
1337:Generated_Source\PSoC5/USBFS_1.c **** *
1338:Generated_Source\PSoC5/USBFS_1.c **** * \reentrant
1339:Generated_Source\PSoC5/USBFS_1.c **** *  No.
1340:Generated_Source\PSoC5/USBFS_1.c **** *
1341:Generated_Source\PSoC5/USBFS_1.c **** *******************************************************************************/
1342:Generated_Source\PSoC5/USBFS_1.c **** void USBFS_1_LoadInEP(uint8 epNumber, const uint8 pData[], uint16 length)
1343:Generated_Source\PSoC5/USBFS_1.c ****                                                                         
1344:Generated_Source\PSoC5/USBFS_1.c **** {
 1058              		.loc 1 1344 0
 1059              		.cfi_startproc
 1060              		@ args = 0, pretend = 0, frame = 16
 1061              		@ frame_needed = 1, uses_anonymous_args = 0
 1062              		@ link register save eliminated.
 1063 0000 B0B4     		push	{r4, r5, r7}
 1064              		.cfi_def_cfa_offset 12
 1065              		.cfi_offset 4, -12
 1066              		.cfi_offset 5, -8
 1067              		.cfi_offset 7, -4
 1068 0002 85B0     		sub	sp, sp, #20
 1069              		.cfi_def_cfa_offset 32
 1070 0004 00AF     		add	r7, sp, #0
 1071              		.cfi_def_cfa_register 7
 1072 0006 0346     		mov	r3, r0
 1073 0008 3960     		str	r1, [r7]
 1074 000a FB71     		strb	r3, [r7, #7]
 1075 000c 1346     		mov	r3, r2	@ movhi
 1076 000e BB80     		strh	r3, [r7, #4]	@ movhi
1345:Generated_Source\PSoC5/USBFS_1.c ****     if ((epNumber > USBFS_1_EP0) && (epNumber < USBFS_1_MAX_EP))
 1077              		.loc 1 1345 0
 1078 0010 FB79     		ldrb	r3, [r7, #7]	@ zero_extendqisi2
 1079 0012 002B     		cmp	r3, #0
 1080 0014 6DD0     		beq	.L60
 1081              		.loc 1 1345 0 is_stmt 0 discriminator 1
 1082 0016 FB79     		ldrb	r3, [r7, #7]	@ zero_extendqisi2
 1083 0018 082B     		cmp	r3, #8
 1084 001a 6AD8     		bhi	.L60
1346:Generated_Source\PSoC5/USBFS_1.c ****     {
1347:Generated_Source\PSoC5/USBFS_1.c ****     #if (!USBFS_1_EP_MANAGEMENT_DMA_AUTO)
1348:Generated_Source\PSoC5/USBFS_1.c ****         /* Limit length to available buffer USB IP buffer size.*/
1349:Generated_Source\PSoC5/USBFS_1.c ****         if (length > (USBFS_1_EPX_DATA_BUF_MAX - USBFS_1_EP[epNumber].buffOffset))
 1085              		.loc 1 1349 0 is_stmt 1
 1086 001c B988     		ldrh	r1, [r7, #4]
 1087 001e FA79     		ldrb	r2, [r7, #7]	@ zero_extendqisi2
 1088 0020 3648     		ldr	r0, .L61
 1089 0022 1346     		mov	r3, r2
 1090 0024 5B00     		lsls	r3, r3, #1
 1091 0026 1344     		add	r3, r3, r2
 1092 0028 9B00     		lsls	r3, r3, #2
 1093 002a 0344     		add	r3, r3, r0
 1094 002c 0633     		adds	r3, r3, #6
 1095 002e 1B88     		ldrh	r3, [r3]	@ movhi
 1096 0030 9BB2     		uxth	r3, r3
 1097 0032 C3F50073 		rsb	r3, r3, #512
 1098 0036 9942     		cmp	r1, r3
ARM GAS  C:\Users\oars0\AppData\Local\Temp\ccNqJowk.s 			page 44


 1099 0038 0CD9     		bls	.L56
1350:Generated_Source\PSoC5/USBFS_1.c ****         {
1351:Generated_Source\PSoC5/USBFS_1.c ****             length = USBFS_1_EPX_DATA_BUF_MAX - USBFS_1_EP[epNumber].buffOffset;
 1100              		.loc 1 1351 0
 1101 003a FA79     		ldrb	r2, [r7, #7]	@ zero_extendqisi2
 1102 003c 2F49     		ldr	r1, .L61
 1103 003e 1346     		mov	r3, r2
 1104 0040 5B00     		lsls	r3, r3, #1
 1105 0042 1344     		add	r3, r3, r2
 1106 0044 9B00     		lsls	r3, r3, #2
 1107 0046 0B44     		add	r3, r3, r1
 1108 0048 0633     		adds	r3, r3, #6
 1109 004a 1B88     		ldrh	r3, [r3]	@ movhi
 1110 004c 9BB2     		uxth	r3, r3
 1111 004e C3F50073 		rsb	r3, r3, #512
 1112 0052 BB80     		strh	r3, [r7, #4]	@ movhi
 1113              	.L56:
1352:Generated_Source\PSoC5/USBFS_1.c ****         }
1353:Generated_Source\PSoC5/USBFS_1.c ****     #endif /* (!USBFS_1_EP_MANAGEMENT_DMA_AUTO) */
1354:Generated_Source\PSoC5/USBFS_1.c **** 
1355:Generated_Source\PSoC5/USBFS_1.c ****         /* Set count and data toggle. */
1356:Generated_Source\PSoC5/USBFS_1.c ****         USBFS_1_SIE_EP_BASE.sieEp[epNumber].epCnt0 = (uint8) HI8(length) | USBFS_1_EP[epNumber].epT
 1114              		.loc 1 1356 0
 1115 0054 2A4C     		ldr	r4, .L61+4
 1116 0056 F979     		ldrb	r1, [r7, #7]	@ zero_extendqisi2
 1117 0058 BB88     		ldrh	r3, [r7, #4]
 1118 005a 1B0A     		lsrs	r3, r3, #8
 1119 005c 9BB2     		uxth	r3, r3
 1120 005e D8B2     		uxtb	r0, r3
 1121 0060 FA79     		ldrb	r2, [r7, #7]	@ zero_extendqisi2
 1122 0062 264D     		ldr	r5, .L61
 1123 0064 1346     		mov	r3, r2
 1124 0066 5B00     		lsls	r3, r3, #1
 1125 0068 1344     		add	r3, r3, r2
 1126 006a 9B00     		lsls	r3, r3, #2
 1127 006c 2B44     		add	r3, r3, r5
 1128 006e 0333     		adds	r3, r3, #3
 1129 0070 1B78     		ldrb	r3, [r3]
 1130 0072 DBB2     		uxtb	r3, r3
 1131 0074 0343     		orrs	r3, r3, r0
 1132 0076 DAB2     		uxtb	r2, r3
 1133 0078 0B01     		lsls	r3, r1, #4
 1134 007a 2344     		add	r3, r3, r4
 1135 007c 1A70     		strb	r2, [r3]
1357:Generated_Source\PSoC5/USBFS_1.c ****         USBFS_1_SIE_EP_BASE.sieEp[epNumber].epCnt1 = (uint8) LO8(length);
 1136              		.loc 1 1357 0
 1137 007e 204A     		ldr	r2, .L61+4
 1138 0080 FB79     		ldrb	r3, [r7, #7]	@ zero_extendqisi2
 1139 0082 B988     		ldrh	r1, [r7, #4]	@ movhi
 1140 0084 C9B2     		uxtb	r1, r1
 1141 0086 1B01     		lsls	r3, r3, #4
 1142 0088 1344     		add	r3, r3, r2
 1143 008a 0133     		adds	r3, r3, #1
 1144 008c 0A46     		mov	r2, r1
 1145 008e 1A70     		strb	r2, [r3]
1358:Generated_Source\PSoC5/USBFS_1.c **** 
1359:Generated_Source\PSoC5/USBFS_1.c ****     #if (USBFS_1_EP_MANAGEMENT_MANUAL)
ARM GAS  C:\Users\oars0\AppData\Local\Temp\ccNqJowk.s 			page 45


1360:Generated_Source\PSoC5/USBFS_1.c ****         if (NULL != pData)
 1146              		.loc 1 1360 0
 1147 0090 3B68     		ldr	r3, [r7]
 1148 0092 002B     		cmp	r3, #0
 1149 0094 13D0     		beq	.L57
 1150              	.LBB2:
1361:Generated_Source\PSoC5/USBFS_1.c ****         {
1362:Generated_Source\PSoC5/USBFS_1.c **** 			/* Copy data using arbiter data register. */
1363:Generated_Source\PSoC5/USBFS_1.c ****             uint16 i;
1364:Generated_Source\PSoC5/USBFS_1.c ****             for (i = 0u; i < length; ++i)
 1151              		.loc 1 1364 0
 1152 0096 0023     		movs	r3, #0
 1153 0098 FB81     		strh	r3, [r7, #14]	@ movhi
 1154 009a 0CE0     		b	.L58
 1155              	.L59:
1365:Generated_Source\PSoC5/USBFS_1.c ****             {
1366:Generated_Source\PSoC5/USBFS_1.c ****                 USBFS_1_ARB_EP_BASE.arbEp[epNumber].rwDr = pData[i];
 1156              		.loc 1 1366 0 discriminator 3
 1157 009c 1948     		ldr	r0, .L61+8
 1158 009e FB79     		ldrb	r3, [r7, #7]	@ zero_extendqisi2
 1159 00a0 FA89     		ldrh	r2, [r7, #14]
 1160 00a2 3968     		ldr	r1, [r7]
 1161 00a4 0A44     		add	r2, r2, r1
 1162 00a6 1278     		ldrb	r2, [r2]	@ zero_extendqisi2
 1163 00a8 1B01     		lsls	r3, r3, #4
 1164 00aa 0344     		add	r3, r3, r0
 1165 00ac 0833     		adds	r3, r3, #8
 1166 00ae 1A70     		strb	r2, [r3]
1364:Generated_Source\PSoC5/USBFS_1.c ****             {
 1167              		.loc 1 1364 0 discriminator 3
 1168 00b0 FB89     		ldrh	r3, [r7, #14]	@ movhi
 1169 00b2 0133     		adds	r3, r3, #1
 1170 00b4 FB81     		strh	r3, [r7, #14]	@ movhi
 1171              	.L58:
1364:Generated_Source\PSoC5/USBFS_1.c ****             {
 1172              		.loc 1 1364 0 is_stmt 0 discriminator 1
 1173 00b6 FA89     		ldrh	r2, [r7, #14]
 1174 00b8 BB88     		ldrh	r3, [r7, #4]
 1175 00ba 9A42     		cmp	r2, r3
 1176 00bc EED3     		bcc	.L59
 1177              	.L57:
 1178              	.LBE2:
1367:Generated_Source\PSoC5/USBFS_1.c ****             }
1368:Generated_Source\PSoC5/USBFS_1.c ****         }
1369:Generated_Source\PSoC5/USBFS_1.c **** 
1370:Generated_Source\PSoC5/USBFS_1.c ****         /* IN endpoint buffer is full - read to be read. */
1371:Generated_Source\PSoC5/USBFS_1.c ****         USBFS_1_EP[epNumber].apiEpState = USBFS_1_NO_EVENT_PENDING;
 1179              		.loc 1 1371 0 is_stmt 1
 1180 00be FA79     		ldrb	r2, [r7, #7]	@ zero_extendqisi2
 1181 00c0 0E49     		ldr	r1, .L61
 1182 00c2 1346     		mov	r3, r2
 1183 00c4 5B00     		lsls	r3, r3, #1
 1184 00c6 1344     		add	r3, r3, r2
 1185 00c8 9B00     		lsls	r3, r3, #2
 1186 00ca 0B44     		add	r3, r3, r1
 1187 00cc 0133     		adds	r3, r3, #1
 1188 00ce 0022     		movs	r2, #0
ARM GAS  C:\Users\oars0\AppData\Local\Temp\ccNqJowk.s 			page 46


 1189 00d0 1A70     		strb	r2, [r3]
1372:Generated_Source\PSoC5/USBFS_1.c **** 
1373:Generated_Source\PSoC5/USBFS_1.c ****         /* Arm IN endpoint. */
1374:Generated_Source\PSoC5/USBFS_1.c ****         USBFS_1_SIE_EP_BASE.sieEp[epNumber].epCr0 = USBFS_1_EP[epNumber].epMode;
 1190              		.loc 1 1374 0
 1191 00d2 0B48     		ldr	r0, .L61+4
 1192 00d4 F979     		ldrb	r1, [r7, #7]	@ zero_extendqisi2
 1193 00d6 FA79     		ldrb	r2, [r7, #7]	@ zero_extendqisi2
 1194 00d8 084C     		ldr	r4, .L61
 1195 00da 1346     		mov	r3, r2
 1196 00dc 5B00     		lsls	r3, r3, #1
 1197 00de 1344     		add	r3, r3, r2
 1198 00e0 9B00     		lsls	r3, r3, #2
 1199 00e2 2344     		add	r3, r3, r4
 1200 00e4 0533     		adds	r3, r3, #5
 1201 00e6 1B78     		ldrb	r3, [r3]
 1202 00e8 DAB2     		uxtb	r2, r3
 1203 00ea 0B01     		lsls	r3, r1, #4
 1204 00ec 0344     		add	r3, r3, r0
 1205 00ee 0233     		adds	r3, r3, #2
 1206 00f0 1A70     		strb	r2, [r3]
 1207              	.L60:
1375:Generated_Source\PSoC5/USBFS_1.c **** 
1376:Generated_Source\PSoC5/USBFS_1.c ****     #else
1377:Generated_Source\PSoC5/USBFS_1.c **** 
1378:Generated_Source\PSoC5/USBFS_1.c ****         #if (CY_PSOC3 || CY_PSOC5LP)
1379:Generated_Source\PSoC5/USBFS_1.c ****             /* Initialize DMA if it was not initialized. */
1380:Generated_Source\PSoC5/USBFS_1.c ****             if (DMA_INVALID_TD == USBFS_1_DmaTd[epNumber])
1381:Generated_Source\PSoC5/USBFS_1.c ****             {
1382:Generated_Source\PSoC5/USBFS_1.c ****                 USBFS_1_InitEP_DMA(epNumber, pData);
1383:Generated_Source\PSoC5/USBFS_1.c ****             }
1384:Generated_Source\PSoC5/USBFS_1.c ****         #endif /* (CY_PSOC3 || CY_PSOC5LP) */
1385:Generated_Source\PSoC5/USBFS_1.c **** 
1386:Generated_Source\PSoC5/USBFS_1.c ****         #if (USBFS_1_EP_MANAGEMENT_DMA_MANUAL)
1387:Generated_Source\PSoC5/USBFS_1.c ****             /* IN endpoint buffer will be fully loaded by DMA shortly. */
1388:Generated_Source\PSoC5/USBFS_1.c ****             USBFS_1_EP[epNumber].apiEpState = USBFS_1_NO_EVENT_PENDING;
1389:Generated_Source\PSoC5/USBFS_1.c **** 
1390:Generated_Source\PSoC5/USBFS_1.c ****             if ((pData != NULL) && (length > 0u))
1391:Generated_Source\PSoC5/USBFS_1.c ****             {
1392:Generated_Source\PSoC5/USBFS_1.c ****             #if (CY_PSOC4)
1393:Generated_Source\PSoC5/USBFS_1.c ****                 uint32 channelNum = (uint32) USBFS_1_DmaChan[epNumber];
1394:Generated_Source\PSoC5/USBFS_1.c **** 
1395:Generated_Source\PSoC5/USBFS_1.c ****                 /* Disable DMA channel: start configuration. */
1396:Generated_Source\PSoC5/USBFS_1.c ****                 USBFS_1_CyDmaChDisable(channelNum);
1397:Generated_Source\PSoC5/USBFS_1.c **** 
1398:Generated_Source\PSoC5/USBFS_1.c ****                 /* Configure source and destination. */
1399:Generated_Source\PSoC5/USBFS_1.c ****                 USBFS_1_CyDmaSetSrcAddress(channelNum, USBFS_1_DMA_DESCR0, (void*) pData);
1400:Generated_Source\PSoC5/USBFS_1.c ****                 USBFS_1_CyDmaSetDstAddress(channelNum, USBFS_1_DMA_DESCR0, (void*) &USBFS_1_ARB_EP_
1401:Generated_Source\PSoC5/USBFS_1.c **** 
1402:Generated_Source\PSoC5/USBFS_1.c ****                 /* Configure DMA descriptor. */
1403:Generated_Source\PSoC5/USBFS_1.c ****                 --length;
1404:Generated_Source\PSoC5/USBFS_1.c ****                 USBFS_1_CyDmaSetConfiguration(channelNum, USBFS_1_DMA_DESCR0, USBFS_1_DMA_COMMON_CF
1405:Generated_Source\PSoC5/USBFS_1.c ****                                                         CYDMA_BYTE | CYDMA_ELEMENT_WORD | CYDMA_INC
1406:Generated_Source\PSoC5/USBFS_1.c **** 
1407:Generated_Source\PSoC5/USBFS_1.c ****                 /* Validate descriptor to execute on following DMA request. */
1408:Generated_Source\PSoC5/USBFS_1.c ****                 USBFS_1_CyDmaValidateDescriptor(channelNum, USBFS_1_DMA_DESCR0);
1409:Generated_Source\PSoC5/USBFS_1.c **** 
ARM GAS  C:\Users\oars0\AppData\Local\Temp\ccNqJowk.s 			page 47


1410:Generated_Source\PSoC5/USBFS_1.c ****                 /* Enable DMA channel: configuration complete. */
1411:Generated_Source\PSoC5/USBFS_1.c ****                 USBFS_1_CyDmaChEnable(channelNum);
1412:Generated_Source\PSoC5/USBFS_1.c ****             #else
1413:Generated_Source\PSoC5/USBFS_1.c ****                 /* Configure DMA to transfer data. */
1414:Generated_Source\PSoC5/USBFS_1.c ****                 (void) CyDmaChDisable(USBFS_1_DmaChan[epNumber]);
1415:Generated_Source\PSoC5/USBFS_1.c ****                 (void) CyDmaTdSetConfiguration(USBFS_1_DmaTd[epNumber], length, CY_DMA_DISABLE_TD, 
1416:Generated_Source\PSoC5/USBFS_1.c ****                 (void) CyDmaTdSetAddress(USBFS_1_DmaTd[epNumber], LO16((uint32) pData), LO16((uint3
1417:Generated_Source\PSoC5/USBFS_1.c **** 
1418:Generated_Source\PSoC5/USBFS_1.c ****                 /* Enable DMA channel. */
1419:Generated_Source\PSoC5/USBFS_1.c ****                 (void) CyDmaChSetInitialTd(USBFS_1_DmaChan[epNumber], USBFS_1_DmaTd[epNumber]);
1420:Generated_Source\PSoC5/USBFS_1.c ****                 (void) CyDmaChEnable(USBFS_1_DmaChan[epNumber], 1u);
1421:Generated_Source\PSoC5/USBFS_1.c ****             #endif /* (CY_PSOC4) */
1422:Generated_Source\PSoC5/USBFS_1.c **** 
1423:Generated_Source\PSoC5/USBFS_1.c ****                 /* Generate DMA request. */
1424:Generated_Source\PSoC5/USBFS_1.c ****                 USBFS_1_ARB_EP_BASE.arbEp[epNumber].epCfg |=  (uint8)  USBFS_1_ARB_EPX_CFG_DMA_REQ;
1425:Generated_Source\PSoC5/USBFS_1.c ****                 USBFS_1_ARB_EP_BASE.arbEp[epNumber].epCfg &=  (uint8) ~USBFS_1_ARB_EPX_CFG_DMA_REQ;
1426:Generated_Source\PSoC5/USBFS_1.c **** 
1427:Generated_Source\PSoC5/USBFS_1.c ****                 /* IN endpoint will be armed in ARB_ISR(source: IN_BUF_FULL) after first DMA transf
1428:Generated_Source\PSoC5/USBFS_1.c ****             }
1429:Generated_Source\PSoC5/USBFS_1.c ****             else
1430:Generated_Source\PSoC5/USBFS_1.c ****             {
1431:Generated_Source\PSoC5/USBFS_1.c ****                 /* When zero-length packet: arm IN endpoint directly. */
1432:Generated_Source\PSoC5/USBFS_1.c ****                 USBFS_1_SIE_EP_BASE.sieEp[epNumber].epCr0 = USBFS_1_EP[epNumber].epMode;
1433:Generated_Source\PSoC5/USBFS_1.c ****             }
1434:Generated_Source\PSoC5/USBFS_1.c ****         #endif /* (USBFS_1_EP_MANAGEMENT_DMA_MANUAL) */
1435:Generated_Source\PSoC5/USBFS_1.c **** 
1436:Generated_Source\PSoC5/USBFS_1.c ****         #if (USBFS_1_EP_MANAGEMENT_DMA_AUTO)
1437:Generated_Source\PSoC5/USBFS_1.c ****             if (pData != NULL)
1438:Generated_Source\PSoC5/USBFS_1.c ****             {
1439:Generated_Source\PSoC5/USBFS_1.c ****             #if (CY_PSOC4)
1440:Generated_Source\PSoC5/USBFS_1.c ****                 uint32 channelNum = (uint32) USBFS_1_DmaChan[epNumber];
1441:Generated_Source\PSoC5/USBFS_1.c **** 
1442:Generated_Source\PSoC5/USBFS_1.c ****                 /* Store address of buffer. */
1443:Generated_Source\PSoC5/USBFS_1.c ****                 USBFS_1_DmaEpBufferAddrBackup[epNumber] = (uint32) pData;
1444:Generated_Source\PSoC5/USBFS_1.c **** 
1445:Generated_Source\PSoC5/USBFS_1.c ****                 /* Disable DMA channel: start configuration. */
1446:Generated_Source\PSoC5/USBFS_1.c ****                 USBFS_1_CyDmaChDisable(channelNum);
1447:Generated_Source\PSoC5/USBFS_1.c **** 
1448:Generated_Source\PSoC5/USBFS_1.c ****                 /* Set destination address. */
1449:Generated_Source\PSoC5/USBFS_1.c ****                 USBFS_1_CyDmaSetDstAddress(channelNum, USBFS_1_DMA_DESCR0, (void*) &USBFS_1_ARB_EP_
1450:Generated_Source\PSoC5/USBFS_1.c ****                 USBFS_1_CyDmaSetDstAddress(channelNum, USBFS_1_DMA_DESCR1, (void*) &USBFS_1_ARB_EP_
1451:Generated_Source\PSoC5/USBFS_1.c **** 
1452:Generated_Source\PSoC5/USBFS_1.c ****                 /* Configure DMA descriptor. */
1453:Generated_Source\PSoC5/USBFS_1.c ****                 USBFS_1_CyDmaSetConfiguration(channelNum, USBFS_1_DMA_DESCR0, USBFS_1_DMA_COMMON_CF
1454:Generated_Source\PSoC5/USBFS_1.c ****                                                         CYDMA_BYTE | CYDMA_ELEMENT_WORD | CYDMA_INC
1455:Generated_Source\PSoC5/USBFS_1.c **** 
1456:Generated_Source\PSoC5/USBFS_1.c ****                 /* Configure DMA descriptor. */
1457:Generated_Source\PSoC5/USBFS_1.c ****                 USBFS_1_CyDmaSetConfiguration(channelNum, USBFS_1_DMA_DESCR1, USBFS_1_DMA_COMMON_CF
1458:Generated_Source\PSoC5/USBFS_1.c ****                                                         CYDMA_BYTE | CYDMA_ELEMENT_WORD | CYDMA_INC
1459:Generated_Source\PSoC5/USBFS_1.c **** 
1460:Generated_Source\PSoC5/USBFS_1.c ****                 /* Enable interrupt from DMA channel. */
1461:Generated_Source\PSoC5/USBFS_1.c ****                 USBFS_1_CyDmaSetInterruptMask(channelNum);
1462:Generated_Source\PSoC5/USBFS_1.c **** 
1463:Generated_Source\PSoC5/USBFS_1.c **** 
1464:Generated_Source\PSoC5/USBFS_1.c ****                 /* Enable DMA channel: configuration complete. */
1465:Generated_Source\PSoC5/USBFS_1.c ****                 USBFS_1_CyDmaChEnable(channelNum);
1466:Generated_Source\PSoC5/USBFS_1.c **** 
ARM GAS  C:\Users\oars0\AppData\Local\Temp\ccNqJowk.s 			page 48


1467:Generated_Source\PSoC5/USBFS_1.c ****             #else
1468:Generated_Source\PSoC5/USBFS_1.c ****                 (void) CyDmaChDisable(USBFS_1_DmaChan[epNumber]);
1469:Generated_Source\PSoC5/USBFS_1.c **** 
1470:Generated_Source\PSoC5/USBFS_1.c ****                 #if (USBFS_1_EP_DMA_AUTO_OPT == 0u)
1471:Generated_Source\PSoC5/USBFS_1.c ****                     USBFS_1_inLength[epNumber] = length;
1472:Generated_Source\PSoC5/USBFS_1.c ****                     USBFS_1_inDataPointer[epNumber] = pData;
1473:Generated_Source\PSoC5/USBFS_1.c **** 
1474:Generated_Source\PSoC5/USBFS_1.c ****                     /* Configure DMA to send data only for first burst */
1475:Generated_Source\PSoC5/USBFS_1.c ****                     (void) CyDmaTdSetConfiguration(USBFS_1_DmaTd[epNumber],
1476:Generated_Source\PSoC5/USBFS_1.c ****                         (length > USBFS_1_DMA_BYTES_PER_BURST) ? USBFS_1_DMA_BYTES_PER_BURST : leng
1477:Generated_Source\PSoC5/USBFS_1.c ****                         USBFS_1_DmaNextTd[epNumber], TD_TERMIN_EN | TD_INC_SRC_ADR);
1478:Generated_Source\PSoC5/USBFS_1.c ****                     (void) CyDmaTdSetAddress(USBFS_1_DmaTd[epNumber], LO16((uint32) pData),
1479:Generated_Source\PSoC5/USBFS_1.c ****                                                                                LO16((uint32) &USBFS
1480:Generated_Source\PSoC5/USBFS_1.c **** 
1481:Generated_Source\PSoC5/USBFS_1.c ****                     /* The second TD will be executed only when the first one fails.
1482:Generated_Source\PSoC5/USBFS_1.c ****                     *  The intention of this TD is to generate NRQ interrupt
1483:Generated_Source\PSoC5/USBFS_1.c ****                     *  and repeat 2 last bytes of the first burst.
1484:Generated_Source\PSoC5/USBFS_1.c ****                     */
1485:Generated_Source\PSoC5/USBFS_1.c ****                     (void) CyDmaTdSetConfiguration(USBFS_1_DmaNextTd[epNumber], 1u,
1486:Generated_Source\PSoC5/USBFS_1.c ****                                                    USBFS_1_DmaNextTd[epNumber],
1487:Generated_Source\PSoC5/USBFS_1.c ****                                                    USBFS_1_epX_TD_TERMOUT_EN[epNumber]);
1488:Generated_Source\PSoC5/USBFS_1.c **** 
1489:Generated_Source\PSoC5/USBFS_1.c ****                     /* Configure DmaNextTd to clear Data Ready status. */
1490:Generated_Source\PSoC5/USBFS_1.c ****                     (void) CyDmaTdSetAddress(USBFS_1_DmaNextTd[epNumber], LO16((uint32) &clearInDat
1491:Generated_Source\PSoC5/USBFS_1.c ****                                                                                    LO16((uint32) &U
1492:Generated_Source\PSoC5/USBFS_1.c ****                 #else
1493:Generated_Source\PSoC5/USBFS_1.c ****                     /* Configure DMA to send all data. */
1494:Generated_Source\PSoC5/USBFS_1.c ****                     (void) CyDmaTdSetConfiguration(USBFS_1_DmaTd[epNumber], length,
1495:Generated_Source\PSoC5/USBFS_1.c ****                                                    USBFS_1_DmaTd[epNumber], TD_TERMIN_EN | TD_INC_S
1496:Generated_Source\PSoC5/USBFS_1.c ****                     (void) CyDmaTdSetAddress(USBFS_1_DmaTd[epNumber], LO16((uint32) pData),
1497:Generated_Source\PSoC5/USBFS_1.c ****                                                                                LO16((uint32) &USBFS
1498:Generated_Source\PSoC5/USBFS_1.c ****                 #endif /* (USBFS_1_EP_DMA_AUTO_OPT == 0u) */
1499:Generated_Source\PSoC5/USBFS_1.c **** 
1500:Generated_Source\PSoC5/USBFS_1.c ****                 /* Clear any potential pending DMA requests before starting DMA channel to transfer
1501:Generated_Source\PSoC5/USBFS_1.c ****                 (void) CyDmaClearPendingDrq(USBFS_1_DmaChan[epNumber]);
1502:Generated_Source\PSoC5/USBFS_1.c ****                 /* Enable DMA. */
1503:Generated_Source\PSoC5/USBFS_1.c ****                 (void) CyDmaChSetInitialTd(USBFS_1_DmaChan[epNumber], USBFS_1_DmaTd[epNumber]);
1504:Generated_Source\PSoC5/USBFS_1.c ****                 (void) CyDmaChEnable(USBFS_1_DmaChan[epNumber], 1u);
1505:Generated_Source\PSoC5/USBFS_1.c ****             #endif /* (CY_PSOC4) */
1506:Generated_Source\PSoC5/USBFS_1.c ****             }
1507:Generated_Source\PSoC5/USBFS_1.c ****             else
1508:Generated_Source\PSoC5/USBFS_1.c ****             {
1509:Generated_Source\PSoC5/USBFS_1.c ****                 /* IN endpoint buffer (32 bytes) will shortly be preloaded by DMA. */
1510:Generated_Source\PSoC5/USBFS_1.c ****                 USBFS_1_EP[epNumber].apiEpState = USBFS_1_NO_EVENT_PENDING;
1511:Generated_Source\PSoC5/USBFS_1.c **** 
1512:Generated_Source\PSoC5/USBFS_1.c ****                 if (length > 0u)
1513:Generated_Source\PSoC5/USBFS_1.c ****                 {
1514:Generated_Source\PSoC5/USBFS_1.c ****                 #if (CY_PSOC4)
1515:Generated_Source\PSoC5/USBFS_1.c ****                     uint32 lengthDescr0, lengthDescr1;
1516:Generated_Source\PSoC5/USBFS_1.c ****                     uint32 channelNum = (uint32) USBFS_1_DmaChan[epNumber];
1517:Generated_Source\PSoC5/USBFS_1.c **** 
1518:Generated_Source\PSoC5/USBFS_1.c ****                     /* Get number of full bursts. */
1519:Generated_Source\PSoC5/USBFS_1.c ****                     USBFS_1_DmaEpBurstCnt[epNumber] = (uint8) (length / USBFS_1_DMA_BYTES_PER_BURST
1520:Generated_Source\PSoC5/USBFS_1.c **** 
1521:Generated_Source\PSoC5/USBFS_1.c ****                     /* Get number of elements in the last burst. */
1522:Generated_Source\PSoC5/USBFS_1.c ****                     USBFS_1_DmaEpLastBurstEl[epNumber] = (uint8) (length % USBFS_1_DMA_BYTES_PER_BU
1523:Generated_Source\PSoC5/USBFS_1.c **** 
ARM GAS  C:\Users\oars0\AppData\Local\Temp\ccNqJowk.s 			page 49


1524:Generated_Source\PSoC5/USBFS_1.c ****                     /* Get total number of bursts. */
1525:Generated_Source\PSoC5/USBFS_1.c ****                     USBFS_1_DmaEpBurstCnt[epNumber] += (0u != USBFS_1_DmaEpLastBurstEl[epNumber]) ?
1526:Generated_Source\PSoC5/USBFS_1.c **** 
1527:Generated_Source\PSoC5/USBFS_1.c ****                     /* Adjust number of data elements transferred in last burst. */
1528:Generated_Source\PSoC5/USBFS_1.c ****                     USBFS_1_DmaEpLastBurstEl[epNumber] = (0u != USBFS_1_DmaEpLastBurstEl[epNumber])
1529:Generated_Source\PSoC5/USBFS_1.c ****                                                                           (USBFS_1_DmaEpLastBurstEl
1530:Generated_Source\PSoC5/USBFS_1.c ****                                                                           (USBFS_1_DMA_BYTES_PER_BU
1531:Generated_Source\PSoC5/USBFS_1.c **** 
1532:Generated_Source\PSoC5/USBFS_1.c ****                     /* Get number of data elements to transfer for descriptor 0 and 1. */
1533:Generated_Source\PSoC5/USBFS_1.c ****                     lengthDescr0 = (1u == USBFS_1_DmaEpBurstCnt[epNumber]) ? USBFS_1_DmaEpLastBurst
1534:Generated_Source\PSoC5/USBFS_1.c ****                     lengthDescr1 = (2u == USBFS_1_DmaEpBurstCnt[epNumber]) ? USBFS_1_DmaEpLastBurst
1535:Generated_Source\PSoC5/USBFS_1.c **** 
1536:Generated_Source\PSoC5/USBFS_1.c **** 
1537:Generated_Source\PSoC5/USBFS_1.c ****                     /* Mark which descriptor is last one to execute. */
1538:Generated_Source\PSoC5/USBFS_1.c ****                     USBFS_1_DmaEpLastBurstEl[epNumber] |= (0u != (USBFS_1_DmaEpBurstCnt[epNumber] &
1539:Generated_Source\PSoC5/USBFS_1.c ****                                                                             USBFS_1_DMA_DESCR0_MASK
1540:Generated_Source\PSoC5/USBFS_1.c **** 
1541:Generated_Source\PSoC5/USBFS_1.c ****                     /* Restore DMA settings for current transfer. */
1542:Generated_Source\PSoC5/USBFS_1.c ****                     USBFS_1_CyDmaChDisable(channelNum);
1543:Generated_Source\PSoC5/USBFS_1.c **** 
1544:Generated_Source\PSoC5/USBFS_1.c ****                     /* Restore destination address for input endpoint. */
1545:Generated_Source\PSoC5/USBFS_1.c ****                     USBFS_1_CyDmaSetSrcAddress(channelNum, USBFS_1_DMA_DESCR0, (void*) ((uint32) US
1546:Generated_Source\PSoC5/USBFS_1.c ****                     USBFS_1_CyDmaSetSrcAddress(channelNum, USBFS_1_DMA_DESCR1, (void*) ((uint32) US
1547:Generated_Source\PSoC5/USBFS_1.c ****                                                                                                    
1548:Generated_Source\PSoC5/USBFS_1.c **** 
1549:Generated_Source\PSoC5/USBFS_1.c ****                     /* Set number of elements to transfer. */
1550:Generated_Source\PSoC5/USBFS_1.c ****                     USBFS_1_CyDmaSetNumDataElements(channelNum, USBFS_1_DMA_DESCR0, lengthDescr0);
1551:Generated_Source\PSoC5/USBFS_1.c ****                     USBFS_1_CyDmaSetNumDataElements(channelNum, USBFS_1_DMA_DESCR1, lengthDescr1);
1552:Generated_Source\PSoC5/USBFS_1.c **** 
1553:Generated_Source\PSoC5/USBFS_1.c ****                     /* Validate descriptor 0 and command to start with it. */
1554:Generated_Source\PSoC5/USBFS_1.c ****                     USBFS_1_CyDmaValidateDescriptor(channelNum, USBFS_1_DMA_DESCR0);
1555:Generated_Source\PSoC5/USBFS_1.c ****                     USBFS_1_CyDmaSetDescriptor0Next(channelNum);
1556:Generated_Source\PSoC5/USBFS_1.c **** 
1557:Generated_Source\PSoC5/USBFS_1.c ****                     /* Validate descriptor 1. */
1558:Generated_Source\PSoC5/USBFS_1.c ****                     if (USBFS_1_DmaEpBurstCnt[epNumber] > 1u)
1559:Generated_Source\PSoC5/USBFS_1.c ****                     {
1560:Generated_Source\PSoC5/USBFS_1.c ****                         USBFS_1_CyDmaValidateDescriptor(channelNum, USBFS_1_DMA_DESCR1); 
1561:Generated_Source\PSoC5/USBFS_1.c ****                     }                   
1562:Generated_Source\PSoC5/USBFS_1.c **** 
1563:Generated_Source\PSoC5/USBFS_1.c ****                     /* Adjust burst counter taking to account: 2 valid descriptors and interrupt tr
1564:Generated_Source\PSoC5/USBFS_1.c ****                     USBFS_1_DmaEpBurstCnt[epNumber] = USBFS_1_DMA_GET_BURST_CNT(USBFS_1_DmaEpBurstC
1565:Generated_Source\PSoC5/USBFS_1.c **** 
1566:Generated_Source\PSoC5/USBFS_1.c ****                     /* Enable DMA channel: configuration complete. */
1567:Generated_Source\PSoC5/USBFS_1.c ****                     USBFS_1_CyDmaChEnable(channelNum);
1568:Generated_Source\PSoC5/USBFS_1.c **** 
1569:Generated_Source\PSoC5/USBFS_1.c ****                 #elif (USBFS_1_EP_DMA_AUTO_OPT == 0u)
1570:Generated_Source\PSoC5/USBFS_1.c ****                     USBFS_1_inLength[epNumber]  = length;
1571:Generated_Source\PSoC5/USBFS_1.c ****                     USBFS_1_inBufFull[epNumber] = 0u;
1572:Generated_Source\PSoC5/USBFS_1.c **** 
1573:Generated_Source\PSoC5/USBFS_1.c ****                     (void) CyDmaChDisable(USBFS_1_DmaChan[epNumber]);
1574:Generated_Source\PSoC5/USBFS_1.c ****                     /* Configure DMA to send data only for first burst. */
1575:Generated_Source\PSoC5/USBFS_1.c ****                     (void) CyDmaTdSetConfiguration(
1576:Generated_Source\PSoC5/USBFS_1.c ****                         USBFS_1_DmaTd[epNumber], (length > USBFS_1_DMA_BYTES_PER_BURST) ?
1577:Generated_Source\PSoC5/USBFS_1.c ****                         USBFS_1_DMA_BYTES_PER_BURST : length,
1578:Generated_Source\PSoC5/USBFS_1.c ****                         USBFS_1_DmaNextTd[epNumber], TD_TERMIN_EN | TD_INC_SRC_ADR );
1579:Generated_Source\PSoC5/USBFS_1.c ****                     (void) CyDmaTdSetAddress(USBFS_1_DmaTd[epNumber], LO16((uint32)  USBFS_1_inData
1580:Generated_Source\PSoC5/USBFS_1.c ****                                                                                LO16((uint32) &USBFS
ARM GAS  C:\Users\oars0\AppData\Local\Temp\ccNqJowk.s 			page 50


1581:Generated_Source\PSoC5/USBFS_1.c ****                     /* Clear Any potential pending DMA requests before starting DMA channel to tran
1582:Generated_Source\PSoC5/USBFS_1.c ****                     (void) CyDmaClearPendingDrq(USBFS_1_DmaChan[epNumber]);
1583:Generated_Source\PSoC5/USBFS_1.c ****                     /* Enable DMA. */
1584:Generated_Source\PSoC5/USBFS_1.c ****                     (void) CyDmaChSetInitialTd(USBFS_1_DmaChan[epNumber], USBFS_1_DmaTd[epNumber]);
1585:Generated_Source\PSoC5/USBFS_1.c ****                     (void) CyDmaChEnable(USBFS_1_DmaChan[epNumber], 1u);
1586:Generated_Source\PSoC5/USBFS_1.c ****                 #endif /* (CY_PSOC4) */
1587:Generated_Source\PSoC5/USBFS_1.c **** 
1588:Generated_Source\PSoC5/USBFS_1.c ****                 #if !defined (USBFS_1_MANUAL_IN_EP_ARM)
1589:Generated_Source\PSoC5/USBFS_1.c ****                     /* Set IN data ready to generate DMA request to load data into endpoint buffer.
1590:Generated_Source\PSoC5/USBFS_1.c ****                     USBFS_1_ARB_EP_BASE.arbEp[epNumber].epCfg |= USBFS_1_ARB_EPX_CFG_IN_DATA_RDY;
1591:Generated_Source\PSoC5/USBFS_1.c ****                 #endif  /* (USBFS_1_MANUAL_IN_EP_ARM) */
1592:Generated_Source\PSoC5/USBFS_1.c **** 
1593:Generated_Source\PSoC5/USBFS_1.c ****                     /* IN endpoint will be armed in ARB_ISR(source: IN_BUF_FULL) after first DMA tr
1594:Generated_Source\PSoC5/USBFS_1.c ****                 }
1595:Generated_Source\PSoC5/USBFS_1.c ****                 else
1596:Generated_Source\PSoC5/USBFS_1.c ****                 {
1597:Generated_Source\PSoC5/USBFS_1.c ****                     /* When zero-length packet: arm IN endpoint directly. */
1598:Generated_Source\PSoC5/USBFS_1.c ****                     USBFS_1_SIE_EP_BASE.sieEp[epNumber].epCr0 = USBFS_1_EP[epNumber].epMode;
1599:Generated_Source\PSoC5/USBFS_1.c ****                 }
1600:Generated_Source\PSoC5/USBFS_1.c ****             }
1601:Generated_Source\PSoC5/USBFS_1.c ****         #endif /* (USBFS_1_EP_MANAGEMENT_DMA_AUTO) */
1602:Generated_Source\PSoC5/USBFS_1.c ****     #endif /* (USBFS_1_EP_MANAGEMENT_MANUAL) */
1603:Generated_Source\PSoC5/USBFS_1.c ****     }
1604:Generated_Source\PSoC5/USBFS_1.c **** }
 1208              		.loc 1 1604 0
 1209 00f2 00BF     		nop
 1210 00f4 1437     		adds	r7, r7, #20
 1211              		.cfi_def_cfa_offset 12
 1212 00f6 BD46     		mov	sp, r7
 1213              		.cfi_def_cfa_register 13
 1214              		@ sp needed
 1215 00f8 B0BC     		pop	{r4, r5, r7}
 1216              		.cfi_restore 7
 1217              		.cfi_restore 5
 1218              		.cfi_restore 4
 1219              		.cfi_def_cfa_offset 0
 1220 00fa 7047     		bx	lr
 1221              	.L62:
 1222              		.align	2
 1223              	.L61:
 1224 00fc 00000000 		.word	USBFS_1_EP
 1225 0100 FC5F0040 		.word	1073766396
 1226 0104 70600040 		.word	1073766512
 1227              		.cfi_endproc
 1228              	.LFE11:
 1229              		.size	USBFS_1_LoadInEP, .-USBFS_1_LoadInEP
 1230              		.section	.text.USBFS_1_ReadOutEP,"ax",%progbits
 1231              		.align	2
 1232              		.global	USBFS_1_ReadOutEP
 1233              		.thumb
 1234              		.thumb_func
 1235              		.type	USBFS_1_ReadOutEP, %function
 1236              	USBFS_1_ReadOutEP:
 1237              	.LFB12:
1605:Generated_Source\PSoC5/USBFS_1.c **** 
1606:Generated_Source\PSoC5/USBFS_1.c **** 
1607:Generated_Source\PSoC5/USBFS_1.c **** /*******************************************************************************
ARM GAS  C:\Users\oars0\AppData\Local\Temp\ccNqJowk.s 			page 51


1608:Generated_Source\PSoC5/USBFS_1.c **** * Function Name: USBFS_1_ReadOutEP
1609:Generated_Source\PSoC5/USBFS_1.c **** ****************************************************************************//**
1610:Generated_Source\PSoC5/USBFS_1.c **** *
1611:Generated_Source\PSoC5/USBFS_1.c **** *   This function performs different functionality depending on the Component’s
1612:Generated_Source\PSoC5/USBFS_1.c **** *   configured Endpoint Buffer Management. This parameter is defined in the
1613:Generated_Source\PSoC5/USBFS_1.c **** *   Descriptor Root in Component Configure window.
1614:Generated_Source\PSoC5/USBFS_1.c **** *
1615:Generated_Source\PSoC5/USBFS_1.c **** *   *Manual (Static/Dynamic Allocation):*
1616:Generated_Source\PSoC5/USBFS_1.c **** *   This function moves the specified number of bytes from endpoint buffer to
1617:Generated_Source\PSoC5/USBFS_1.c **** *   system RAM. The number of bytes actually transferred from endpoint buffer to
1618:Generated_Source\PSoC5/USBFS_1.c **** *   system RAM is the lesser of the actual number of bytes sent by the host or
1619:Generated_Source\PSoC5/USBFS_1.c **** *   the number of bytes requested by the length parameter.
1620:Generated_Source\PSoC5/USBFS_1.c **** *
1621:Generated_Source\PSoC5/USBFS_1.c **** *   *DMA with Manual Buffer Management:*
1622:Generated_Source\PSoC5/USBFS_1.c **** *   Configure DMA to transfer data from endpoint buffer to system RAM. Generate
1623:Generated_Source\PSoC5/USBFS_1.c **** *   a DMA request. The firmware must wait until the DMA completes the data
1624:Generated_Source\PSoC5/USBFS_1.c **** *   transfer after calling the USBFS_1_ReadOutEP() API. For example,
1625:Generated_Source\PSoC5/USBFS_1.c **** *   by checking EPstate:
1626:Generated_Source\PSoC5/USBFS_1.c **** *
1627:Generated_Source\PSoC5/USBFS_1.c **** *   \snippet /USBFS_sut_02.cydsn/main.c checking EPstatey
1628:Generated_Source\PSoC5/USBFS_1.c **** *
1629:Generated_Source\PSoC5/USBFS_1.c **** *   The USBFS_EnableOutEP() has to be called to allow host to write data into
1630:Generated_Source\PSoC5/USBFS_1.c **** *   the endpoint buffer after DMA has completed transfer data from OUT endpoint
1631:Generated_Source\PSoC5/USBFS_1.c **** *   buffer to SRAM.
1632:Generated_Source\PSoC5/USBFS_1.c **** *
1633:Generated_Source\PSoC5/USBFS_1.c **** *   *DMA with Automatic Buffer Management:*
1634:Generated_Source\PSoC5/USBFS_1.c **** *   Configure DMA. This is required only once and automatically generates DMA
1635:Generated_Source\PSoC5/USBFS_1.c **** *   requests as data arrives
1636:Generated_Source\PSoC5/USBFS_1.c **** *
1637:Generated_Source\PSoC5/USBFS_1.c **** *  \param epNumber: Contains the data endpoint number.
1638:Generated_Source\PSoC5/USBFS_1.c **** *            Valid values are between 1 and 8.
1639:Generated_Source\PSoC5/USBFS_1.c **** *  \param pData: A pointer to a data array from which the data for the endpoint
1640:Generated_Source\PSoC5/USBFS_1.c **** *         space is loaded.
1641:Generated_Source\PSoC5/USBFS_1.c **** *  \param length: The number of bytes to transfer from the USB Out endpoint and
1642:Generated_Source\PSoC5/USBFS_1.c **** *          loads it into data array. Valid values are between 0 and 1023. The
1643:Generated_Source\PSoC5/USBFS_1.c **** *          function moves fewer than the requested number of bytes if the host
1644:Generated_Source\PSoC5/USBFS_1.c **** *          sends fewer bytes than requested.
1645:Generated_Source\PSoC5/USBFS_1.c **** *
1646:Generated_Source\PSoC5/USBFS_1.c **** * \return
1647:Generated_Source\PSoC5/USBFS_1.c **** *  Number of bytes received, 0 for an invalid endpoint.
1648:Generated_Source\PSoC5/USBFS_1.c **** *
1649:Generated_Source\PSoC5/USBFS_1.c **** * \reentrant
1650:Generated_Source\PSoC5/USBFS_1.c **** *  No.
1651:Generated_Source\PSoC5/USBFS_1.c **** *
1652:Generated_Source\PSoC5/USBFS_1.c **** *******************************************************************************/
1653:Generated_Source\PSoC5/USBFS_1.c **** uint16 USBFS_1_ReadOutEP(uint8 epNumber, uint8 pData[], uint16 length)
1654:Generated_Source\PSoC5/USBFS_1.c ****                                                                         
1655:Generated_Source\PSoC5/USBFS_1.c **** {
 1238              		.loc 1 1655 0
 1239              		.cfi_startproc
 1240              		@ args = 0, pretend = 0, frame = 16
 1241              		@ frame_needed = 1, uses_anonymous_args = 0
 1242 0000 80B5     		push	{r7, lr}
 1243              		.cfi_def_cfa_offset 8
 1244              		.cfi_offset 7, -8
 1245              		.cfi_offset 14, -4
 1246 0002 84B0     		sub	sp, sp, #16
ARM GAS  C:\Users\oars0\AppData\Local\Temp\ccNqJowk.s 			page 52


 1247              		.cfi_def_cfa_offset 24
 1248 0004 00AF     		add	r7, sp, #0
 1249              		.cfi_def_cfa_register 7
 1250 0006 0346     		mov	r3, r0
 1251 0008 3960     		str	r1, [r7]
 1252 000a FB71     		strb	r3, [r7, #7]
 1253 000c 1346     		mov	r3, r2	@ movhi
 1254 000e BB80     		strh	r3, [r7, #4]	@ movhi
1656:Generated_Source\PSoC5/USBFS_1.c ****     if ((pData != NULL) && (epNumber > USBFS_1_EP0) && (epNumber < USBFS_1_MAX_EP))
 1255              		.loc 1 1656 0
 1256 0010 3B68     		ldr	r3, [r7]
 1257 0012 002B     		cmp	r3, #0
 1258 0014 30D0     		beq	.L64
 1259              		.loc 1 1656 0 is_stmt 0 discriminator 1
 1260 0016 FB79     		ldrb	r3, [r7, #7]	@ zero_extendqisi2
 1261 0018 002B     		cmp	r3, #0
 1262 001a 2DD0     		beq	.L64
 1263              		.loc 1 1656 0 discriminator 2
 1264 001c FB79     		ldrb	r3, [r7, #7]	@ zero_extendqisi2
 1265 001e 082B     		cmp	r3, #8
 1266 0020 2AD8     		bhi	.L64
1657:Generated_Source\PSoC5/USBFS_1.c ****     {
1658:Generated_Source\PSoC5/USBFS_1.c ****     #if (!USBFS_1_EP_MANAGEMENT_DMA_AUTO)
1659:Generated_Source\PSoC5/USBFS_1.c ****         /* Adjust requested length to available data. */
1660:Generated_Source\PSoC5/USBFS_1.c ****         length = (length > USBFS_1_GetEPCount(epNumber)) ? USBFS_1_GetEPCount(epNumber) : length;
 1267              		.loc 1 1660 0 is_stmt 1
 1268 0022 FB79     		ldrb	r3, [r7, #7]	@ zero_extendqisi2
 1269 0024 1846     		mov	r0, r3
 1270 0026 FFF7FEFF 		bl	USBFS_1_GetEPCount
 1271 002a 0346     		mov	r3, r0
 1272 002c 1A46     		mov	r2, r3
 1273 002e BB88     		ldrh	r3, [r7, #4]
 1274 0030 9342     		cmp	r3, r2
 1275 0032 05D9     		bls	.L65
 1276              		.loc 1 1660 0 is_stmt 0 discriminator 1
 1277 0034 FB79     		ldrb	r3, [r7, #7]	@ zero_extendqisi2
 1278 0036 1846     		mov	r0, r3
 1279 0038 FFF7FEFF 		bl	USBFS_1_GetEPCount
 1280 003c 0346     		mov	r3, r0
 1281 003e 00E0     		b	.L66
 1282              	.L65:
 1283              		.loc 1 1660 0 discriminator 2
 1284 0040 BB88     		ldrh	r3, [r7, #4]
 1285              	.L66:
 1286              		.loc 1 1660 0 discriminator 4
 1287 0042 BB80     		strh	r3, [r7, #4]	@ movhi
 1288              	.LBB3:
1661:Generated_Source\PSoC5/USBFS_1.c ****     #endif /* (!USBFS_1_EP_MANAGEMENT_DMA_AUTO) */
1662:Generated_Source\PSoC5/USBFS_1.c **** 
1663:Generated_Source\PSoC5/USBFS_1.c ****     #if (USBFS_1_EP_MANAGEMENT_MANUAL)
1664:Generated_Source\PSoC5/USBFS_1.c ****         {
1665:Generated_Source\PSoC5/USBFS_1.c ****             /* Copy data using arbiter data register. */
1666:Generated_Source\PSoC5/USBFS_1.c ****             uint16 i;
1667:Generated_Source\PSoC5/USBFS_1.c ****             for (i = 0u; i < length; ++i)
 1289              		.loc 1 1667 0 is_stmt 1 discriminator 4
 1290 0044 0023     		movs	r3, #0
 1291 0046 FB81     		strh	r3, [r7, #14]	@ movhi
ARM GAS  C:\Users\oars0\AppData\Local\Temp\ccNqJowk.s 			page 53


 1292 0048 0DE0     		b	.L67
 1293              	.L68:
1668:Generated_Source\PSoC5/USBFS_1.c ****             {
1669:Generated_Source\PSoC5/USBFS_1.c ****                 pData[i] = (uint8) USBFS_1_ARB_EP_BASE.arbEp[epNumber].rwDr;
 1294              		.loc 1 1669 0 discriminator 3
 1295 004a FB89     		ldrh	r3, [r7, #14]
 1296 004c 3A68     		ldr	r2, [r7]
 1297 004e 1344     		add	r3, r3, r2
 1298 0050 0D49     		ldr	r1, .L71
 1299 0052 FA79     		ldrb	r2, [r7, #7]	@ zero_extendqisi2
 1300 0054 1201     		lsls	r2, r2, #4
 1301 0056 0A44     		add	r2, r2, r1
 1302 0058 0832     		adds	r2, r2, #8
 1303 005a 1278     		ldrb	r2, [r2]
 1304 005c D2B2     		uxtb	r2, r2
 1305 005e 1A70     		strb	r2, [r3]
1667:Generated_Source\PSoC5/USBFS_1.c ****             {
 1306              		.loc 1 1667 0 discriminator 3
 1307 0060 FB89     		ldrh	r3, [r7, #14]	@ movhi
 1308 0062 0133     		adds	r3, r3, #1
 1309 0064 FB81     		strh	r3, [r7, #14]	@ movhi
 1310              	.L67:
1667:Generated_Source\PSoC5/USBFS_1.c ****             {
 1311              		.loc 1 1667 0 is_stmt 0 discriminator 1
 1312 0066 FA89     		ldrh	r2, [r7, #14]
 1313 0068 BB88     		ldrh	r3, [r7, #4]
 1314 006a 9A42     		cmp	r2, r3
 1315 006c EDD3     		bcc	.L68
 1316              	.LBE3:
1670:Generated_Source\PSoC5/USBFS_1.c ****             }
1671:Generated_Source\PSoC5/USBFS_1.c ****         }
1672:Generated_Source\PSoC5/USBFS_1.c **** 
1673:Generated_Source\PSoC5/USBFS_1.c ****         /* Arm OUT endpoint after data has been copied from endpoint buffer. */
1674:Generated_Source\PSoC5/USBFS_1.c ****         USBFS_1_EnableOutEP(epNumber);
 1317              		.loc 1 1674 0 is_stmt 1
 1318 006e FB79     		ldrb	r3, [r7, #7]	@ zero_extendqisi2
 1319 0070 1846     		mov	r0, r3
 1320 0072 FFF7FEFF 		bl	USBFS_1_EnableOutEP
 1321 0076 01E0     		b	.L69
 1322              	.L64:
1675:Generated_Source\PSoC5/USBFS_1.c ****     #else
1676:Generated_Source\PSoC5/USBFS_1.c **** 
1677:Generated_Source\PSoC5/USBFS_1.c ****         #if (CY_PSOC3 || CY_PSOC5LP)
1678:Generated_Source\PSoC5/USBFS_1.c ****             /* Initialize DMA if it was not initialized. */
1679:Generated_Source\PSoC5/USBFS_1.c ****             if (DMA_INVALID_TD == USBFS_1_DmaTd[epNumber])
1680:Generated_Source\PSoC5/USBFS_1.c ****             {
1681:Generated_Source\PSoC5/USBFS_1.c ****                 USBFS_1_InitEP_DMA(epNumber, pData);
1682:Generated_Source\PSoC5/USBFS_1.c ****             }
1683:Generated_Source\PSoC5/USBFS_1.c ****         #endif /* (CY_PSOC3 || CY_PSOC5LP) */
1684:Generated_Source\PSoC5/USBFS_1.c **** 
1685:Generated_Source\PSoC5/USBFS_1.c ****         #if (USBFS_1_EP_MANAGEMENT_DMA_MANUAL)
1686:Generated_Source\PSoC5/USBFS_1.c ****         #if (CY_PSOC4)
1687:Generated_Source\PSoC5/USBFS_1.c ****         {
1688:Generated_Source\PSoC5/USBFS_1.c ****             uint32 channelNum = (uint32) USBFS_1_DmaChan[epNumber];
1689:Generated_Source\PSoC5/USBFS_1.c **** 
1690:Generated_Source\PSoC5/USBFS_1.c ****             /* Disable DMA channel: start configuration. */
1691:Generated_Source\PSoC5/USBFS_1.c ****             USBFS_1_CyDmaChDisable(channelNum);
ARM GAS  C:\Users\oars0\AppData\Local\Temp\ccNqJowk.s 			page 54


1692:Generated_Source\PSoC5/USBFS_1.c **** 
1693:Generated_Source\PSoC5/USBFS_1.c ****             /* Configure source and destination. */
1694:Generated_Source\PSoC5/USBFS_1.c ****             USBFS_1_CyDmaSetSrcAddress(channelNum, USBFS_1_DMA_DESCR0, (void*) &USBFS_1_ARB_EP_BASE
1695:Generated_Source\PSoC5/USBFS_1.c ****             USBFS_1_CyDmaSetDstAddress(channelNum, USBFS_1_DMA_DESCR0, (void*) pData);
1696:Generated_Source\PSoC5/USBFS_1.c **** 
1697:Generated_Source\PSoC5/USBFS_1.c ****             /* Configure DMA descriptor. */
1698:Generated_Source\PSoC5/USBFS_1.c ****             USBFS_1_CyDmaSetConfiguration(channelNum, USBFS_1_DMA_DESCR0, USBFS_1_DMA_COMMON_CFG | 
1699:Generated_Source\PSoC5/USBFS_1.c ****                                                     CYDMA_BYTE | CYDMA_WORD_ELEMENT | CYDMA_INC_DST
1700:Generated_Source\PSoC5/USBFS_1.c **** 
1701:Generated_Source\PSoC5/USBFS_1.c ****             /* Validate descriptor to execute on following DMA request. */
1702:Generated_Source\PSoC5/USBFS_1.c ****             USBFS_1_CyDmaValidateDescriptor(channelNum, USBFS_1_DMA_DESCR0);
1703:Generated_Source\PSoC5/USBFS_1.c **** 
1704:Generated_Source\PSoC5/USBFS_1.c ****             /* Enable DMA channel: configuration complete. */
1705:Generated_Source\PSoC5/USBFS_1.c ****             USBFS_1_CyDmaChEnable(channelNum);
1706:Generated_Source\PSoC5/USBFS_1.c ****         }
1707:Generated_Source\PSoC5/USBFS_1.c ****         #else
1708:Generated_Source\PSoC5/USBFS_1.c ****             /* Configure DMA to transfer data. */
1709:Generated_Source\PSoC5/USBFS_1.c ****             (void) CyDmaChDisable(USBFS_1_DmaChan[epNumber]);
1710:Generated_Source\PSoC5/USBFS_1.c ****             (void) CyDmaTdSetConfiguration(USBFS_1_DmaTd[epNumber], length, CY_DMA_DISABLE_TD, TD_T
1711:Generated_Source\PSoC5/USBFS_1.c ****             (void) CyDmaTdSetAddress(USBFS_1_DmaTd[epNumber], LO16((uint32) &USBFS_1_ARB_EP_BASE.ar
1712:Generated_Source\PSoC5/USBFS_1.c **** 
1713:Generated_Source\PSoC5/USBFS_1.c ****             /* Enable DMA channel. */
1714:Generated_Source\PSoC5/USBFS_1.c ****             (void) CyDmaChSetInitialTd(USBFS_1_DmaChan[epNumber], USBFS_1_DmaTd[epNumber]);
1715:Generated_Source\PSoC5/USBFS_1.c ****             (void) CyDmaChEnable(USBFS_1_DmaChan[epNumber], 1u);
1716:Generated_Source\PSoC5/USBFS_1.c ****         #endif /* (CY_PSOC4) */
1717:Generated_Source\PSoC5/USBFS_1.c **** 
1718:Generated_Source\PSoC5/USBFS_1.c ****             /* Generate DMA request. */
1719:Generated_Source\PSoC5/USBFS_1.c ****             USBFS_1_ARB_EP_BASE.arbEp[epNumber].epCfg |=  (uint8)  USBFS_1_ARB_EPX_CFG_DMA_REQ;
1720:Generated_Source\PSoC5/USBFS_1.c ****             USBFS_1_ARB_EP_BASE.arbEp[epNumber].epCfg &=  (uint8) ~USBFS_1_ARB_EPX_CFG_DMA_REQ;
1721:Generated_Source\PSoC5/USBFS_1.c **** 
1722:Generated_Source\PSoC5/USBFS_1.c ****             /* OUT endpoint has to be armed again by user when DMA transfers have been completed.
1723:Generated_Source\PSoC5/USBFS_1.c ****             * NO_EVENT_PENDING: notifies that data has been copied from endpoint buffer.
1724:Generated_Source\PSoC5/USBFS_1.c ****             */
1725:Generated_Source\PSoC5/USBFS_1.c **** 
1726:Generated_Source\PSoC5/USBFS_1.c ****         #endif /* (USBFS_1_EP_MANAGEMENT_DMA_MANUAL) */
1727:Generated_Source\PSoC5/USBFS_1.c **** 
1728:Generated_Source\PSoC5/USBFS_1.c ****         #if (USBFS_1_EP_MANAGEMENT_DMA_AUTO)
1729:Generated_Source\PSoC5/USBFS_1.c ****         #if (CY_PSOC4)
1730:Generated_Source\PSoC5/USBFS_1.c ****         {
1731:Generated_Source\PSoC5/USBFS_1.c ****             uint32 channelNum = (uint32) USBFS_1_DmaChan[epNumber];
1732:Generated_Source\PSoC5/USBFS_1.c ****             uint32 lengthDescr0, lengthDescr1;
1733:Generated_Source\PSoC5/USBFS_1.c **** 
1734:Generated_Source\PSoC5/USBFS_1.c ****             /* Get number of full bursts. */
1735:Generated_Source\PSoC5/USBFS_1.c ****             USBFS_1_DmaEpBurstCnt[epNumber] = (uint8) (length / USBFS_1_DMA_BYTES_PER_BURST);
1736:Generated_Source\PSoC5/USBFS_1.c **** 
1737:Generated_Source\PSoC5/USBFS_1.c ****             /* Get number of elements in the last burst. */
1738:Generated_Source\PSoC5/USBFS_1.c ****             USBFS_1_DmaEpLastBurstEl[epNumber] = (uint8) (length % USBFS_1_DMA_BYTES_PER_BURST);
1739:Generated_Source\PSoC5/USBFS_1.c **** 
1740:Generated_Source\PSoC5/USBFS_1.c ****             /* Get total number of bursts. */
1741:Generated_Source\PSoC5/USBFS_1.c ****             USBFS_1_DmaEpBurstCnt[epNumber] += (0u != USBFS_1_DmaEpLastBurstEl[epNumber]) ? 1u : 0u
1742:Generated_Source\PSoC5/USBFS_1.c **** 
1743:Generated_Source\PSoC5/USBFS_1.c ****             /* Adjust number of the data elements transfered in last burst. */
1744:Generated_Source\PSoC5/USBFS_1.c ****             USBFS_1_DmaEpLastBurstEl[epNumber] = (0u != USBFS_1_DmaEpLastBurstEl[epNumber]) ?
1745:Generated_Source\PSoC5/USBFS_1.c ****                                                                   (USBFS_1_DmaEpLastBurstEl[epNumbe
1746:Generated_Source\PSoC5/USBFS_1.c ****                                                                   (USBFS_1_DMA_BYTES_PER_BURST - 1u
1747:Generated_Source\PSoC5/USBFS_1.c **** 
1748:Generated_Source\PSoC5/USBFS_1.c ****             /* Get number of data elements to transfer for descriptor 0 and 1. */
ARM GAS  C:\Users\oars0\AppData\Local\Temp\ccNqJowk.s 			page 55


1749:Generated_Source\PSoC5/USBFS_1.c ****             lengthDescr0 = (1u == USBFS_1_DmaEpBurstCnt[epNumber]) ? USBFS_1_DmaEpLastBurstEl[epNum
1750:Generated_Source\PSoC5/USBFS_1.c ****             lengthDescr1 = (2u == USBFS_1_DmaEpBurstCnt[epNumber]) ? USBFS_1_DmaEpLastBurstEl[epNum
1751:Generated_Source\PSoC5/USBFS_1.c **** 
1752:Generated_Source\PSoC5/USBFS_1.c ****             /* Mark if revert number of data elements in descriptor after transfer completion. */
1753:Generated_Source\PSoC5/USBFS_1.c ****             USBFS_1_DmaEpLastBurstEl[epNumber] |= (USBFS_1_DmaEpBurstCnt[epNumber] > 2u) ? USBFS_1_
1754:Generated_Source\PSoC5/USBFS_1.c **** 
1755:Generated_Source\PSoC5/USBFS_1.c ****             /* Mark last descriptor to be executed. */
1756:Generated_Source\PSoC5/USBFS_1.c ****             USBFS_1_DmaEpLastBurstEl[epNumber] |= (0u != (USBFS_1_DmaEpBurstCnt[epNumber] & 0x1u)) 
1757:Generated_Source\PSoC5/USBFS_1.c ****                                                                     USBFS_1_DMA_DESCR0_MASK : USBFS
1758:Generated_Source\PSoC5/USBFS_1.c **** 
1759:Generated_Source\PSoC5/USBFS_1.c ****             /* Store address of buffer and burst counter for endpoint. */
1760:Generated_Source\PSoC5/USBFS_1.c ****             USBFS_1_DmaEpBufferAddrBackup[epNumber] = (uint32) pData;
1761:Generated_Source\PSoC5/USBFS_1.c ****             USBFS_1_DmaEpBurstCntBackup[epNumber]   = USBFS_1_DmaEpBurstCnt[epNumber];
1762:Generated_Source\PSoC5/USBFS_1.c **** 
1763:Generated_Source\PSoC5/USBFS_1.c ****             /* Adjust burst counter taking to account: 2 valid descriptors and interrupt trigger af
1764:Generated_Source\PSoC5/USBFS_1.c ****             USBFS_1_DmaEpBurstCnt[epNumber] = USBFS_1_DMA_GET_BURST_CNT(USBFS_1_DmaEpBurstCnt[epNum
1765:Generated_Source\PSoC5/USBFS_1.c **** 
1766:Generated_Source\PSoC5/USBFS_1.c ****             /* Disable DMA channel: start configuration. */
1767:Generated_Source\PSoC5/USBFS_1.c ****             USBFS_1_CyDmaChDisable(channelNum);
1768:Generated_Source\PSoC5/USBFS_1.c **** 
1769:Generated_Source\PSoC5/USBFS_1.c ****             /* Set destination address. */
1770:Generated_Source\PSoC5/USBFS_1.c ****             USBFS_1_CyDmaSetSrcAddress(channelNum, USBFS_1_DMA_DESCR0, (void*) &USBFS_1_ARB_EP_BASE
1771:Generated_Source\PSoC5/USBFS_1.c ****             USBFS_1_CyDmaSetSrcAddress(channelNum, USBFS_1_DMA_DESCR1, (void*) &USBFS_1_ARB_EP_BASE
1772:Generated_Source\PSoC5/USBFS_1.c **** 
1773:Generated_Source\PSoC5/USBFS_1.c ****             USBFS_1_CyDmaSetDstAddress(channelNum, USBFS_1_DMA_DESCR0, (void*) ((uint32) pData));
1774:Generated_Source\PSoC5/USBFS_1.c ****             USBFS_1_CyDmaSetDstAddress(channelNum, USBFS_1_DMA_DESCR1, (void*) ((uint32) pData + US
1775:Generated_Source\PSoC5/USBFS_1.c **** 
1776:Generated_Source\PSoC5/USBFS_1.c ****             /* Configure DMA descriptor. */
1777:Generated_Source\PSoC5/USBFS_1.c ****             USBFS_1_CyDmaSetConfiguration(channelNum, USBFS_1_DMA_DESCR0, USBFS_1_DMA_COMMON_CFG  |
1778:Generated_Source\PSoC5/USBFS_1.c ****                                                     CYDMA_BYTE | CYDMA_WORD_ELEMENT | CYDMA_INC_DST
1779:Generated_Source\PSoC5/USBFS_1.c **** 
1780:Generated_Source\PSoC5/USBFS_1.c ****             /* Configure DMA descriptor. */
1781:Generated_Source\PSoC5/USBFS_1.c ****             USBFS_1_CyDmaSetConfiguration(channelNum, USBFS_1_DMA_DESCR1, USBFS_1_DMA_COMMON_CFG  |
1782:Generated_Source\PSoC5/USBFS_1.c ****                                                     CYDMA_BYTE | CYDMA_WORD_ELEMENT | CYDMA_INC_DST
1783:Generated_Source\PSoC5/USBFS_1.c **** 
1784:Generated_Source\PSoC5/USBFS_1.c ****             /* Enable interrupt from DMA channel. */
1785:Generated_Source\PSoC5/USBFS_1.c ****             USBFS_1_CyDmaSetInterruptMask(channelNum);
1786:Generated_Source\PSoC5/USBFS_1.c **** 
1787:Generated_Source\PSoC5/USBFS_1.c ****             /* Validate DMA descriptor 0 and 1. */
1788:Generated_Source\PSoC5/USBFS_1.c ****             USBFS_1_CyDmaValidateDescriptor(channelNum, USBFS_1_DMA_DESCR0);
1789:Generated_Source\PSoC5/USBFS_1.c **** 
1790:Generated_Source\PSoC5/USBFS_1.c ****             if (USBFS_1_DmaEpBurstCntBackup[epNumber] > 1u)
1791:Generated_Source\PSoC5/USBFS_1.c ****             {
1792:Generated_Source\PSoC5/USBFS_1.c ****                 USBFS_1_CyDmaValidateDescriptor(channelNum, USBFS_1_DMA_DESCR1);
1793:Generated_Source\PSoC5/USBFS_1.c ****             }
1794:Generated_Source\PSoC5/USBFS_1.c **** 
1795:Generated_Source\PSoC5/USBFS_1.c ****             /* Enable DMA channel: configuration complete. */
1796:Generated_Source\PSoC5/USBFS_1.c ****             USBFS_1_CyDmaChEnable(channelNum);
1797:Generated_Source\PSoC5/USBFS_1.c ****         }
1798:Generated_Source\PSoC5/USBFS_1.c ****         #else
1799:Generated_Source\PSoC5/USBFS_1.c ****             (void) CyDmaChDisable(USBFS_1_DmaChan[epNumber]);
1800:Generated_Source\PSoC5/USBFS_1.c ****             (void) CyDmaTdSetConfiguration(USBFS_1_DmaTd[epNumber], length,  USBFS_1_DmaTd[epNumber
1801:Generated_Source\PSoC5/USBFS_1.c ****             (void) CyDmaTdSetAddress(USBFS_1_DmaTd[epNumber], LO16((uint32) &USBFS_1_ARB_EP_BASE.ar
1802:Generated_Source\PSoC5/USBFS_1.c **** 
1803:Generated_Source\PSoC5/USBFS_1.c ****             /* Clear Any potential pending DMA requests before starting DMA channel to transfer dat
1804:Generated_Source\PSoC5/USBFS_1.c ****             (void) CyDmaClearPendingDrq(USBFS_1_DmaChan[epNumber]);
1805:Generated_Source\PSoC5/USBFS_1.c **** 
ARM GAS  C:\Users\oars0\AppData\Local\Temp\ccNqJowk.s 			page 56


1806:Generated_Source\PSoC5/USBFS_1.c ****             /* Enable DMA channel. */
1807:Generated_Source\PSoC5/USBFS_1.c ****             (void) CyDmaChSetInitialTd(USBFS_1_DmaChan[epNumber], USBFS_1_DmaTd[epNumber]);
1808:Generated_Source\PSoC5/USBFS_1.c ****             (void) CyDmaChEnable(USBFS_1_DmaChan[epNumber], 1u);
1809:Generated_Source\PSoC5/USBFS_1.c ****         #endif /* (CY_PSOC4) */
1810:Generated_Source\PSoC5/USBFS_1.c **** 
1811:Generated_Source\PSoC5/USBFS_1.c ****             /* OUT endpoint has to be armed again by user when DMA transfers have been completed.
1812:Generated_Source\PSoC5/USBFS_1.c ****             * NO_EVENT_PENDING: notifies that data has been copied from endpoint buffer.
1813:Generated_Source\PSoC5/USBFS_1.c ****             */
1814:Generated_Source\PSoC5/USBFS_1.c **** 
1815:Generated_Source\PSoC5/USBFS_1.c ****         #endif /* (USBFS_1_EP_MANAGEMENT_DMA_AUTO) */
1816:Generated_Source\PSoC5/USBFS_1.c ****     #endif /* (USBFS_1_EP_MANAGEMENT_MANUAL) */
1817:Generated_Source\PSoC5/USBFS_1.c ****     }
1818:Generated_Source\PSoC5/USBFS_1.c ****     else
1819:Generated_Source\PSoC5/USBFS_1.c ****     {
1820:Generated_Source\PSoC5/USBFS_1.c ****         length = 0u;
 1323              		.loc 1 1820 0
 1324 0078 0023     		movs	r3, #0
 1325 007a BB80     		strh	r3, [r7, #4]	@ movhi
 1326              	.L69:
1821:Generated_Source\PSoC5/USBFS_1.c ****     }
1822:Generated_Source\PSoC5/USBFS_1.c **** 
1823:Generated_Source\PSoC5/USBFS_1.c ****     return (length);
 1327              		.loc 1 1823 0
 1328 007c BB88     		ldrh	r3, [r7, #4]
1824:Generated_Source\PSoC5/USBFS_1.c **** }
 1329              		.loc 1 1824 0
 1330 007e 1846     		mov	r0, r3
 1331 0080 1037     		adds	r7, r7, #16
 1332              		.cfi_def_cfa_offset 8
 1333 0082 BD46     		mov	sp, r7
 1334              		.cfi_def_cfa_register 13
 1335              		@ sp needed
 1336 0084 80BD     		pop	{r7, pc}
 1337              	.L72:
 1338 0086 00BF     		.align	2
 1339              	.L71:
 1340 0088 70600040 		.word	1073766512
 1341              		.cfi_endproc
 1342              	.LFE12:
 1343              		.size	USBFS_1_ReadOutEP, .-USBFS_1_ReadOutEP
 1344              		.section	.text.USBFS_1_EnableOutEP,"ax",%progbits
 1345              		.align	2
 1346              		.global	USBFS_1_EnableOutEP
 1347              		.thumb
 1348              		.thumb_func
 1349              		.type	USBFS_1_EnableOutEP, %function
 1350              	USBFS_1_EnableOutEP:
 1351              	.LFB13:
1825:Generated_Source\PSoC5/USBFS_1.c **** 
1826:Generated_Source\PSoC5/USBFS_1.c **** 
1827:Generated_Source\PSoC5/USBFS_1.c **** #if (USBFS_1_16BITS_EP_ACCESS_ENABLE)
1828:Generated_Source\PSoC5/USBFS_1.c **** /*******************************************************************************
1829:Generated_Source\PSoC5/USBFS_1.c **** * Function Name: USBFS_1_LoadInEP16
1830:Generated_Source\PSoC5/USBFS_1.c **** ****************************************************************************//**
1831:Generated_Source\PSoC5/USBFS_1.c **** *
1832:Generated_Source\PSoC5/USBFS_1.c **** *  This function performs different functionality depending on the Component’s
1833:Generated_Source\PSoC5/USBFS_1.c **** *  configured Endpoint Buffer Management. This parameter is defined in
ARM GAS  C:\Users\oars0\AppData\Local\Temp\ccNqJowk.s 			page 57


1834:Generated_Source\PSoC5/USBFS_1.c **** *  the Descriptor Root in Component Configure window.
1835:Generated_Source\PSoC5/USBFS_1.c **** *
1836:Generated_Source\PSoC5/USBFS_1.c **** *  *Manual (Static/Dynamic Allocation):*
1837:Generated_Source\PSoC5/USBFS_1.c **** *  This function loads and enables the specified USB data endpoint for an IN
1838:Generated_Source\PSoC5/USBFS_1.c **** *  data transfer.
1839:Generated_Source\PSoC5/USBFS_1.c **** *
1840:Generated_Source\PSoC5/USBFS_1.c **** *  *DMA with Manual Buffer Management:*
1841:Generated_Source\PSoC5/USBFS_1.c **** *  Configures DMA for a data transfer from system RAM to endpoint buffer.
1842:Generated_Source\PSoC5/USBFS_1.c **** *  Generates request for a transfer.
1843:Generated_Source\PSoC5/USBFS_1.c **** *
1844:Generated_Source\PSoC5/USBFS_1.c **** *  *DMA with Automatic Buffer Management:*
1845:Generated_Source\PSoC5/USBFS_1.c **** *  Configures DMA. This is required only once, so it is done only when parameter
1846:Generated_Source\PSoC5/USBFS_1.c **** *  pData is not NULL. When the pData pointer is NULL, the function skips this
1847:Generated_Source\PSoC5/USBFS_1.c **** *  task. Sets Data ready status: This generates the first DMA transfer and
1848:Generated_Source\PSoC5/USBFS_1.c **** *  prepares data in endpoint buffer.
1849:Generated_Source\PSoC5/USBFS_1.c **** *
1850:Generated_Source\PSoC5/USBFS_1.c **** *  \param epNumber Contains the data endpoint number.
1851:Generated_Source\PSoC5/USBFS_1.c **** *        Valid values are between 1 and 8.
1852:Generated_Source\PSoC5/USBFS_1.c **** *  \param *pData A pointer to a data array from which the data for the endpoint
1853:Generated_Source\PSoC5/USBFS_1.c **** *        space is loaded. It shall be ensured that this pointer address is even
1854:Generated_Source\PSoC5/USBFS_1.c **** *        to ensure the 16-bit transfer is aligned to even address. Else, a hard
1855:Generated_Source\PSoC5/USBFS_1.c **** *        fault condition can occur.
1856:Generated_Source\PSoC5/USBFS_1.c **** *  \param length The number of bytes to transfer from the array and then send as
1857:Generated_Source\PSoC5/USBFS_1.c **** *        a result of an IN request. Valid values are between 0 and 512 (1023 for
1858:Generated_Source\PSoC5/USBFS_1.c **** *        DMA with Automatic Buffer Management mode). The value 512 is applicable
1859:Generated_Source\PSoC5/USBFS_1.c **** *        if only one endpoint is used.
1860:Generated_Source\PSoC5/USBFS_1.c **** *
1861:Generated_Source\PSoC5/USBFS_1.c **** * \reentrant
1862:Generated_Source\PSoC5/USBFS_1.c **** *  No.
1863:Generated_Source\PSoC5/USBFS_1.c **** *
1864:Generated_Source\PSoC5/USBFS_1.c **** *******************************************************************************/
1865:Generated_Source\PSoC5/USBFS_1.c **** void USBFS_1_LoadInEP16(uint8 epNumber, const uint8 pData[], uint16 length)
1866:Generated_Source\PSoC5/USBFS_1.c **** {
1867:Generated_Source\PSoC5/USBFS_1.c ****     /* Check array alignment on half-word boundary. */
1868:Generated_Source\PSoC5/USBFS_1.c ****     CYASSERT(0u == (((uint32) pData) & 0x01u));
1869:Generated_Source\PSoC5/USBFS_1.c **** 
1870:Generated_Source\PSoC5/USBFS_1.c ****     if ((epNumber > USBFS_1_EP0) && (epNumber < USBFS_1_MAX_EP))
1871:Generated_Source\PSoC5/USBFS_1.c ****     {
1872:Generated_Source\PSoC5/USBFS_1.c ****     #if (!USBFS_1_EP_MANAGEMENT_DMA_AUTO)
1873:Generated_Source\PSoC5/USBFS_1.c ****         /* Limit length to available buffer USB IP buffer size. */
1874:Generated_Source\PSoC5/USBFS_1.c ****         if (length > (USBFS_1_EPX_DATA_BUF_MAX - USBFS_1_EP[epNumber].buffOffset))
1875:Generated_Source\PSoC5/USBFS_1.c ****         {
1876:Generated_Source\PSoC5/USBFS_1.c ****             length = USBFS_1_EPX_DATA_BUF_MAX - USBFS_1_EP[epNumber].buffOffset;
1877:Generated_Source\PSoC5/USBFS_1.c ****         }
1878:Generated_Source\PSoC5/USBFS_1.c ****     #endif /* (!USBFS_1_EP_MANAGEMENT_DMA_AUTO) */
1879:Generated_Source\PSoC5/USBFS_1.c **** 
1880:Generated_Source\PSoC5/USBFS_1.c ****         /* Set count and data toggle. */
1881:Generated_Source\PSoC5/USBFS_1.c ****         USBFS_1_SIE_EP_BASE.sieEp[epNumber].epCnt0 = (uint32) HI8(length) | USBFS_1_EP[epNumber].ep
1882:Generated_Source\PSoC5/USBFS_1.c ****         USBFS_1_SIE_EP_BASE.sieEp[epNumber].epCnt1 = (uint32) LO8(length);
1883:Generated_Source\PSoC5/USBFS_1.c **** 
1884:Generated_Source\PSoC5/USBFS_1.c ****         /* Adjust requested length: 2 bytes are handled at one data register access. */
1885:Generated_Source\PSoC5/USBFS_1.c ****         length += (length & 0x01u);
1886:Generated_Source\PSoC5/USBFS_1.c **** 
1887:Generated_Source\PSoC5/USBFS_1.c ****     #if (USBFS_1_EP_MANAGEMENT_MANUAL)
1888:Generated_Source\PSoC5/USBFS_1.c ****         if (NULL != pData)
1889:Generated_Source\PSoC5/USBFS_1.c ****         {
1890:Generated_Source\PSoC5/USBFS_1.c ****             /* Convert uint8 array to uint16. */
ARM GAS  C:\Users\oars0\AppData\Local\Temp\ccNqJowk.s 			page 58


1891:Generated_Source\PSoC5/USBFS_1.c ****             const uint16 *dataBuf = (uint16 *) pData;
1892:Generated_Source\PSoC5/USBFS_1.c **** 
1893:Generated_Source\PSoC5/USBFS_1.c ****             /* Copy data using 16-bits arbiter data register. */
1894:Generated_Source\PSoC5/USBFS_1.c ****             uint16 i;
1895:Generated_Source\PSoC5/USBFS_1.c ****             for (i = 0u; i < (length >> 1u); ++i)
1896:Generated_Source\PSoC5/USBFS_1.c ****             {
1897:Generated_Source\PSoC5/USBFS_1.c ****                 USBFS_1_ARB_EP16_BASE.arbEp[epNumber].rwDr16 = dataBuf[i];
1898:Generated_Source\PSoC5/USBFS_1.c ****             }
1899:Generated_Source\PSoC5/USBFS_1.c ****         }
1900:Generated_Source\PSoC5/USBFS_1.c **** 
1901:Generated_Source\PSoC5/USBFS_1.c ****         /* IN endpoint buffer is full - read to be read. */
1902:Generated_Source\PSoC5/USBFS_1.c ****         USBFS_1_EP[epNumber].apiEpState = USBFS_1_NO_EVENT_PENDING;
1903:Generated_Source\PSoC5/USBFS_1.c **** 
1904:Generated_Source\PSoC5/USBFS_1.c ****         /* Arm IN endpoint. */
1905:Generated_Source\PSoC5/USBFS_1.c ****         USBFS_1_SIE_EP_BASE.sieEp[epNumber].epCr0 = USBFS_1_EP[epNumber].epMode;
1906:Generated_Source\PSoC5/USBFS_1.c **** 
1907:Generated_Source\PSoC5/USBFS_1.c ****     #else
1908:Generated_Source\PSoC5/USBFS_1.c **** 
1909:Generated_Source\PSoC5/USBFS_1.c ****         #if (USBFS_1_EP_MANAGEMENT_DMA_MANUAL)
1910:Generated_Source\PSoC5/USBFS_1.c ****             /* IN endpoint buffer will be fully loaded by DMA shortly. */
1911:Generated_Source\PSoC5/USBFS_1.c ****             USBFS_1_EP[epNumber].apiEpState = USBFS_1_NO_EVENT_PENDING;
1912:Generated_Source\PSoC5/USBFS_1.c **** 
1913:Generated_Source\PSoC5/USBFS_1.c ****             if ((pData != NULL) && (length > 0u))
1914:Generated_Source\PSoC5/USBFS_1.c ****             {
1915:Generated_Source\PSoC5/USBFS_1.c ****                 uint32 channelNum = (uint32) USBFS_1_DmaChan[epNumber];
1916:Generated_Source\PSoC5/USBFS_1.c **** 
1917:Generated_Source\PSoC5/USBFS_1.c ****                 /* Disable DMA channel: start configuration. */
1918:Generated_Source\PSoC5/USBFS_1.c ****                 USBFS_1_CyDmaChDisable(channelNum);
1919:Generated_Source\PSoC5/USBFS_1.c **** 
1920:Generated_Source\PSoC5/USBFS_1.c ****                 /* Configure source and destination. */
1921:Generated_Source\PSoC5/USBFS_1.c ****                 USBFS_1_CyDmaSetSrcAddress(channelNum, USBFS_1_DMA_DESCR0, (void*) pData);
1922:Generated_Source\PSoC5/USBFS_1.c ****                 USBFS_1_CyDmaSetDstAddress(channelNum, USBFS_1_DMA_DESCR0, (void*) &USBFS_1_ARB_EP1
1923:Generated_Source\PSoC5/USBFS_1.c **** 
1924:Generated_Source\PSoC5/USBFS_1.c ****                 /* Configure DMA descriptor. */
1925:Generated_Source\PSoC5/USBFS_1.c ****                 length = (length >> 1u) - 1u;
1926:Generated_Source\PSoC5/USBFS_1.c ****                 USBFS_1_CyDmaSetConfiguration(channelNum, USBFS_1_DMA_DESCR0, USBFS_1_DMA_COMMON_CF
1927:Generated_Source\PSoC5/USBFS_1.c ****                                                         CYDMA_HALFWORD | CYDMA_ELEMENT_WORD | CYDMA
1928:Generated_Source\PSoC5/USBFS_1.c **** 
1929:Generated_Source\PSoC5/USBFS_1.c ****                 /* Validate descriptor to execute on following DMA request. */
1930:Generated_Source\PSoC5/USBFS_1.c ****                 USBFS_1_CyDmaValidateDescriptor(channelNum, USBFS_1_DMA_DESCR0);
1931:Generated_Source\PSoC5/USBFS_1.c **** 
1932:Generated_Source\PSoC5/USBFS_1.c ****                 /* Enable DMA channel: configuration complete. */
1933:Generated_Source\PSoC5/USBFS_1.c ****                 USBFS_1_CyDmaChEnable(channelNum);
1934:Generated_Source\PSoC5/USBFS_1.c **** 
1935:Generated_Source\PSoC5/USBFS_1.c ****                 /* Generate DMA request. */
1936:Generated_Source\PSoC5/USBFS_1.c ****                 USBFS_1_ARB_EP_BASE.arbEp[epNumber].epCfg |=  (uint32)  USBFS_1_ARB_EPX_CFG_DMA_REQ
1937:Generated_Source\PSoC5/USBFS_1.c ****                 USBFS_1_ARB_EP_BASE.arbEp[epNumber].epCfg &=  (uint32) ~USBFS_1_ARB_EPX_CFG_DMA_REQ
1938:Generated_Source\PSoC5/USBFS_1.c **** 
1939:Generated_Source\PSoC5/USBFS_1.c ****                 /* IN endpoint will be armed in ARB_ISR(source: IN_BUF_FULL) after first DMA transf
1940:Generated_Source\PSoC5/USBFS_1.c ****             }
1941:Generated_Source\PSoC5/USBFS_1.c ****             else
1942:Generated_Source\PSoC5/USBFS_1.c ****             {
1943:Generated_Source\PSoC5/USBFS_1.c ****                 /* When zero-length packet: arm IN endpoint directly. */
1944:Generated_Source\PSoC5/USBFS_1.c ****                 USBFS_1_SIE_EP_BASE.sieEp[epNumber].epCr0 = USBFS_1_EP[epNumber].epMode;
1945:Generated_Source\PSoC5/USBFS_1.c ****             }
1946:Generated_Source\PSoC5/USBFS_1.c ****         #endif /* (USBFS_1_EP_MANAGEMENT_DMA_MANUAL) */
1947:Generated_Source\PSoC5/USBFS_1.c **** 
ARM GAS  C:\Users\oars0\AppData\Local\Temp\ccNqJowk.s 			page 59


1948:Generated_Source\PSoC5/USBFS_1.c ****         #if (USBFS_1_EP_MANAGEMENT_DMA_AUTO)
1949:Generated_Source\PSoC5/USBFS_1.c ****             if (pData != NULL)
1950:Generated_Source\PSoC5/USBFS_1.c ****             {
1951:Generated_Source\PSoC5/USBFS_1.c ****                 uint32 channelNum = (uint32) USBFS_1_DmaChan[epNumber];
1952:Generated_Source\PSoC5/USBFS_1.c **** 
1953:Generated_Source\PSoC5/USBFS_1.c ****                 /* Store address of buffer. */
1954:Generated_Source\PSoC5/USBFS_1.c ****                 USBFS_1_DmaEpBufferAddrBackup[epNumber] = (uint32) pData;
1955:Generated_Source\PSoC5/USBFS_1.c **** 
1956:Generated_Source\PSoC5/USBFS_1.c ****                 /* Disable DMA channel: start configuration. */
1957:Generated_Source\PSoC5/USBFS_1.c ****                 USBFS_1_CyDmaChDisable(channelNum);
1958:Generated_Source\PSoC5/USBFS_1.c **** 
1959:Generated_Source\PSoC5/USBFS_1.c ****                 /* Set destination address. */
1960:Generated_Source\PSoC5/USBFS_1.c ****                 USBFS_1_CyDmaSetDstAddress(channelNum, USBFS_1_DMA_DESCR0, (void*) &USBFS_1_ARB_EP1
1961:Generated_Source\PSoC5/USBFS_1.c ****                 USBFS_1_CyDmaSetDstAddress(channelNum, USBFS_1_DMA_DESCR1, (void*) &USBFS_1_ARB_EP1
1962:Generated_Source\PSoC5/USBFS_1.c **** 
1963:Generated_Source\PSoC5/USBFS_1.c ****                 /* Configure DMA descriptor. */
1964:Generated_Source\PSoC5/USBFS_1.c ****                 USBFS_1_CyDmaSetConfiguration(channelNum, USBFS_1_DMA_DESCR0, USBFS_1_DMA_COMMON_CF
1965:Generated_Source\PSoC5/USBFS_1.c ****                                                         CYDMA_HALFWORD | CYDMA_ELEMENT_WORD | CYDMA
1966:Generated_Source\PSoC5/USBFS_1.c **** 
1967:Generated_Source\PSoC5/USBFS_1.c ****                 /* Configure DMA descriptor. */
1968:Generated_Source\PSoC5/USBFS_1.c ****                 USBFS_1_CyDmaSetConfiguration(channelNum, USBFS_1_DMA_DESCR1, USBFS_1_DMA_COMMON_CF
1969:Generated_Source\PSoC5/USBFS_1.c ****                                                         CYDMA_HALFWORD | CYDMA_ELEMENT_WORD | CYDMA
1970:Generated_Source\PSoC5/USBFS_1.c **** 
1971:Generated_Source\PSoC5/USBFS_1.c ****                 /* Enable interrupt from DMA channel. */
1972:Generated_Source\PSoC5/USBFS_1.c ****                 USBFS_1_CyDmaSetInterruptMask(channelNum);
1973:Generated_Source\PSoC5/USBFS_1.c **** 
1974:Generated_Source\PSoC5/USBFS_1.c ****                 /* Enable DMA channel: configuration complete. */
1975:Generated_Source\PSoC5/USBFS_1.c ****                 USBFS_1_CyDmaChEnable(channelNum);
1976:Generated_Source\PSoC5/USBFS_1.c ****             }
1977:Generated_Source\PSoC5/USBFS_1.c ****             else
1978:Generated_Source\PSoC5/USBFS_1.c ****             {
1979:Generated_Source\PSoC5/USBFS_1.c ****                 /* IN endpoint buffer (32 bytes) will shortly be preloaded by DMA. */
1980:Generated_Source\PSoC5/USBFS_1.c ****                 USBFS_1_EP[epNumber].apiEpState = USBFS_1_NO_EVENT_PENDING;
1981:Generated_Source\PSoC5/USBFS_1.c **** 
1982:Generated_Source\PSoC5/USBFS_1.c ****                 if (length > 0u)
1983:Generated_Source\PSoC5/USBFS_1.c ****                 {
1984:Generated_Source\PSoC5/USBFS_1.c ****                     uint32 lengthDescr0, lengthDescr1;
1985:Generated_Source\PSoC5/USBFS_1.c ****                     uint32 channelNum = (uint32) USBFS_1_DmaChan[epNumber];
1986:Generated_Source\PSoC5/USBFS_1.c **** 
1987:Generated_Source\PSoC5/USBFS_1.c ****                     /* Get number of full bursts. */
1988:Generated_Source\PSoC5/USBFS_1.c ****                     USBFS_1_DmaEpBurstCnt[epNumber] = (uint8) (length / USBFS_1_DMA_BYTES_PER_BURST
1989:Generated_Source\PSoC5/USBFS_1.c **** 
1990:Generated_Source\PSoC5/USBFS_1.c ****                     /* Get number of elements in the last burst. */
1991:Generated_Source\PSoC5/USBFS_1.c ****                     USBFS_1_DmaEpLastBurstEl[epNumber] = (uint8) (length % USBFS_1_DMA_BYTES_PER_BU
1992:Generated_Source\PSoC5/USBFS_1.c **** 
1993:Generated_Source\PSoC5/USBFS_1.c ****                     /* Get total number of bursts. */
1994:Generated_Source\PSoC5/USBFS_1.c ****                     USBFS_1_DmaEpBurstCnt[epNumber] += (0u != USBFS_1_DmaEpLastBurstEl[epNumber]) ?
1995:Generated_Source\PSoC5/USBFS_1.c **** 
1996:Generated_Source\PSoC5/USBFS_1.c ****                     /* Adjust number of data elements transferred in last burst. */
1997:Generated_Source\PSoC5/USBFS_1.c ****                     USBFS_1_DmaEpLastBurstEl[epNumber] = (0u != USBFS_1_DmaEpLastBurstEl[epNumber])
1998:Generated_Source\PSoC5/USBFS_1.c ****                                                                           ((USBFS_1_DmaEpLastBurstE
1999:Generated_Source\PSoC5/USBFS_1.c ****                                                                            (USBFS_1_DMA_HALFWORDS_P
2000:Generated_Source\PSoC5/USBFS_1.c **** 
2001:Generated_Source\PSoC5/USBFS_1.c ****                     /* Get number of data elements to transfer for descriptor 0 and 1. */
2002:Generated_Source\PSoC5/USBFS_1.c ****                     lengthDescr0 = (1u == USBFS_1_DmaEpBurstCnt[epNumber]) ? USBFS_1_DmaEpLastBurst
2003:Generated_Source\PSoC5/USBFS_1.c ****                     lengthDescr1 = (2u == USBFS_1_DmaEpBurstCnt[epNumber]) ? USBFS_1_DmaEpLastBurst
2004:Generated_Source\PSoC5/USBFS_1.c **** 
ARM GAS  C:\Users\oars0\AppData\Local\Temp\ccNqJowk.s 			page 60


2005:Generated_Source\PSoC5/USBFS_1.c ****                     /* Mark which descriptor is last one to execute. */
2006:Generated_Source\PSoC5/USBFS_1.c ****                     USBFS_1_DmaEpLastBurstEl[epNumber] |= (0u != (USBFS_1_DmaEpBurstCnt[epNumber] &
2007:Generated_Source\PSoC5/USBFS_1.c ****                                                                             USBFS_1_DMA_DESCR0_MASK
2008:Generated_Source\PSoC5/USBFS_1.c **** 
2009:Generated_Source\PSoC5/USBFS_1.c ****                     /* Restore DMA settings for current transfer. */
2010:Generated_Source\PSoC5/USBFS_1.c ****                     USBFS_1_CyDmaChDisable(channelNum);
2011:Generated_Source\PSoC5/USBFS_1.c **** 
2012:Generated_Source\PSoC5/USBFS_1.c ****                     /* Restore destination address for input endpoint. */
2013:Generated_Source\PSoC5/USBFS_1.c ****                     USBFS_1_CyDmaSetSrcAddress(channelNum, USBFS_1_DMA_DESCR0, (void*) ((uint32) US
2014:Generated_Source\PSoC5/USBFS_1.c ****                     USBFS_1_CyDmaSetSrcAddress(channelNum, USBFS_1_DMA_DESCR1, (void*) ((uint32) US
2015:Generated_Source\PSoC5/USBFS_1.c ****                                                                                                    
2016:Generated_Source\PSoC5/USBFS_1.c **** 
2017:Generated_Source\PSoC5/USBFS_1.c ****                     /* Set number of elements to transfer. */
2018:Generated_Source\PSoC5/USBFS_1.c ****                     USBFS_1_CyDmaSetNumDataElements(channelNum, USBFS_1_DMA_DESCR0, lengthDescr0);
2019:Generated_Source\PSoC5/USBFS_1.c ****                     USBFS_1_CyDmaSetNumDataElements(channelNum, USBFS_1_DMA_DESCR1, lengthDescr1);
2020:Generated_Source\PSoC5/USBFS_1.c **** 
2021:Generated_Source\PSoC5/USBFS_1.c ****                     /* Validate descriptor 0 and command to start with it. */
2022:Generated_Source\PSoC5/USBFS_1.c ****                     USBFS_1_CyDmaValidateDescriptor(channelNum, USBFS_1_DMA_DESCR0);
2023:Generated_Source\PSoC5/USBFS_1.c ****                     USBFS_1_CyDmaSetDescriptor0Next(channelNum);
2024:Generated_Source\PSoC5/USBFS_1.c **** 
2025:Generated_Source\PSoC5/USBFS_1.c ****                     /* Validate descriptor 1. */
2026:Generated_Source\PSoC5/USBFS_1.c ****                     if (USBFS_1_DmaEpBurstCnt[epNumber] > 1u)
2027:Generated_Source\PSoC5/USBFS_1.c ****                     {
2028:Generated_Source\PSoC5/USBFS_1.c ****                         USBFS_1_CyDmaValidateDescriptor(channelNum, USBFS_1_DMA_DESCR1);
2029:Generated_Source\PSoC5/USBFS_1.c ****                     }
2030:Generated_Source\PSoC5/USBFS_1.c **** 
2031:Generated_Source\PSoC5/USBFS_1.c ****                     /* Adjust burst counter taking to account: 2 valid descriptors and interrupt tr
2032:Generated_Source\PSoC5/USBFS_1.c ****                     USBFS_1_DmaEpBurstCnt[epNumber] = USBFS_1_DMA_GET_BURST_CNT(USBFS_1_DmaEpBurstC
2033:Generated_Source\PSoC5/USBFS_1.c **** 
2034:Generated_Source\PSoC5/USBFS_1.c ****                     /* Enable DMA channel: configuration complete. */
2035:Generated_Source\PSoC5/USBFS_1.c ****                     USBFS_1_CyDmaChEnable(channelNum);
2036:Generated_Source\PSoC5/USBFS_1.c **** 
2037:Generated_Source\PSoC5/USBFS_1.c ****                 #if !defined (USBFS_1_MANUAL_IN_EP_ARM)
2038:Generated_Source\PSoC5/USBFS_1.c ****                     /* Set IN data ready to generate DMA request to load data into endpoint buffer.
2039:Generated_Source\PSoC5/USBFS_1.c ****                     USBFS_1_ARB_EP_BASE.arbEp[epNumber].epCfg |= USBFS_1_ARB_EPX_CFG_IN_DATA_RDY;
2040:Generated_Source\PSoC5/USBFS_1.c ****                 #endif  /* (USBFS_1_MANUAL_IN_EP_ARM) */
2041:Generated_Source\PSoC5/USBFS_1.c **** 
2042:Generated_Source\PSoC5/USBFS_1.c ****                     /* IN endpoint will be armed in ARB_ISR(source: IN_BUF_FULL) after first DMA tr
2043:Generated_Source\PSoC5/USBFS_1.c ****                 }
2044:Generated_Source\PSoC5/USBFS_1.c ****                 else
2045:Generated_Source\PSoC5/USBFS_1.c ****                 {
2046:Generated_Source\PSoC5/USBFS_1.c ****                     /* When zero-length packet: arm IN endpoint directly. */
2047:Generated_Source\PSoC5/USBFS_1.c ****                     USBFS_1_SIE_EP_BASE.sieEp[epNumber].epCr0 = USBFS_1_EP[epNumber].epMode;
2048:Generated_Source\PSoC5/USBFS_1.c ****                 }
2049:Generated_Source\PSoC5/USBFS_1.c ****             }
2050:Generated_Source\PSoC5/USBFS_1.c ****         #endif /* (USBFS_1_EP_MANAGEMENT_DMA_AUTO) */
2051:Generated_Source\PSoC5/USBFS_1.c ****     #endif /* (USBFS_1_EP_MANAGEMENT_MANUAL) */
2052:Generated_Source\PSoC5/USBFS_1.c ****     }
2053:Generated_Source\PSoC5/USBFS_1.c **** }
2054:Generated_Source\PSoC5/USBFS_1.c **** 
2055:Generated_Source\PSoC5/USBFS_1.c **** 
2056:Generated_Source\PSoC5/USBFS_1.c **** /*******************************************************************************
2057:Generated_Source\PSoC5/USBFS_1.c **** * Function Name: USBFS_1_ReadOutEP16
2058:Generated_Source\PSoC5/USBFS_1.c **** ****************************************************************************//**
2059:Generated_Source\PSoC5/USBFS_1.c **** *
2060:Generated_Source\PSoC5/USBFS_1.c **** *   This function performs different functionality depending on the Component’s
2061:Generated_Source\PSoC5/USBFS_1.c **** *   configured Endpoint Buffer Management. This parameter is defined in the
ARM GAS  C:\Users\oars0\AppData\Local\Temp\ccNqJowk.s 			page 61


2062:Generated_Source\PSoC5/USBFS_1.c **** *   Descriptor Root in Component Configure window.
2063:Generated_Source\PSoC5/USBFS_1.c **** *
2064:Generated_Source\PSoC5/USBFS_1.c **** *   *Manual (Static/Dynamic Allocation):*
2065:Generated_Source\PSoC5/USBFS_1.c **** *   This function moves the specified number of bytes from endpoint buffer to
2066:Generated_Source\PSoC5/USBFS_1.c **** *   system RAM. The number of bytes actually transferred from endpoint buffer to
2067:Generated_Source\PSoC5/USBFS_1.c **** *   system RAM is the lesser of the actual number of bytes sent by the host or
2068:Generated_Source\PSoC5/USBFS_1.c **** *   the number of bytes requested by the length parameter.
2069:Generated_Source\PSoC5/USBFS_1.c **** *
2070:Generated_Source\PSoC5/USBFS_1.c **** *   *DMA with Manual Buffer Management:*
2071:Generated_Source\PSoC5/USBFS_1.c **** *   Configure DMA to transfer data from endpoint buffer to system RAM. Generate
2072:Generated_Source\PSoC5/USBFS_1.c **** *   a DMA request. The firmware must wait until the DMA completes the data
2073:Generated_Source\PSoC5/USBFS_1.c **** *   transfer after calling the USBFS_1_ReadOutEP() API. For example,
2074:Generated_Source\PSoC5/USBFS_1.c **** *   by checking EPstate:
2075:Generated_Source\PSoC5/USBFS_1.c **** *
2076:Generated_Source\PSoC5/USBFS_1.c **** *   \snippet /USBFS_sut_02.cydsn/main.c checking EPstatey
2077:Generated_Source\PSoC5/USBFS_1.c **** *
2078:Generated_Source\PSoC5/USBFS_1.c **** *   The USBFS_EnableOutEP() has to be called to allow host to write data into
2079:Generated_Source\PSoC5/USBFS_1.c **** *   the endpoint buffer after DMA has completed transfer data from OUT endpoint
2080:Generated_Source\PSoC5/USBFS_1.c **** *   buffer to SRAM.
2081:Generated_Source\PSoC5/USBFS_1.c **** *
2082:Generated_Source\PSoC5/USBFS_1.c **** *   *DMA with Automatic Buffer Management:*
2083:Generated_Source\PSoC5/USBFS_1.c **** *   Configure DMA. This is required only once and automatically generates DMA
2084:Generated_Source\PSoC5/USBFS_1.c **** *   requests as data arrives
2085:Generated_Source\PSoC5/USBFS_1.c **** *
2086:Generated_Source\PSoC5/USBFS_1.c **** *  \param epNumber: Contains the data endpoint number.
2087:Generated_Source\PSoC5/USBFS_1.c **** *         Valid values are between 1 and 8.
2088:Generated_Source\PSoC5/USBFS_1.c **** *  \param pData: A pointer to a data array into which the data for the endpoint
2089:Generated_Source\PSoC5/USBFS_1.c **** *         space is copied. It shall be ensured that this pointer address is
2090:Generated_Source\PSoC5/USBFS_1.c **** *         even to ensure the 16-bit transfer is aligned to even address. Else,
2091:Generated_Source\PSoC5/USBFS_1.c **** *         a hard fault condition can occur.
2092:Generated_Source\PSoC5/USBFS_1.c **** *  \param length: The number of bytes to transfer from the USB Out endpoint and
2093:Generated_Source\PSoC5/USBFS_1.c **** *         loads it into data array. Valid values are between 0 and 1023. The
2094:Generated_Source\PSoC5/USBFS_1.c **** *         function moves fewer than the requested number of bytes if the host
2095:Generated_Source\PSoC5/USBFS_1.c **** *         sends fewer bytes than requested.
2096:Generated_Source\PSoC5/USBFS_1.c **** *
2097:Generated_Source\PSoC5/USBFS_1.c **** * \return
2098:Generated_Source\PSoC5/USBFS_1.c **** *  Number of bytes received, 0 for an invalid endpoint.
2099:Generated_Source\PSoC5/USBFS_1.c **** *
2100:Generated_Source\PSoC5/USBFS_1.c **** * \reentrant
2101:Generated_Source\PSoC5/USBFS_1.c **** *  No.
2102:Generated_Source\PSoC5/USBFS_1.c **** *
2103:Generated_Source\PSoC5/USBFS_1.c **** *******************************************************************************/
2104:Generated_Source\PSoC5/USBFS_1.c **** uint16 USBFS_1_ReadOutEP16(uint8 epNumber, uint8 pData[], uint16 length)
2105:Generated_Source\PSoC5/USBFS_1.c **** {
2106:Generated_Source\PSoC5/USBFS_1.c ****     uint32 adjLength;
2107:Generated_Source\PSoC5/USBFS_1.c **** 
2108:Generated_Source\PSoC5/USBFS_1.c ****     /* Check array alignment on half-word boundary */
2109:Generated_Source\PSoC5/USBFS_1.c ****     CYASSERT(0u == (((uint32) pData) & 0x01u));
2110:Generated_Source\PSoC5/USBFS_1.c **** 
2111:Generated_Source\PSoC5/USBFS_1.c ****     if ((pData != NULL) && (epNumber > USBFS_1_EP0) && (epNumber < USBFS_1_MAX_EP))
2112:Generated_Source\PSoC5/USBFS_1.c ****     {
2113:Generated_Source\PSoC5/USBFS_1.c ****     #if (!USBFS_1_EP_MANAGEMENT_DMA_AUTO)
2114:Generated_Source\PSoC5/USBFS_1.c ****         /* Adjust requested length to available data. */
2115:Generated_Source\PSoC5/USBFS_1.c ****         length = (length > USBFS_1_GetEPCount(epNumber)) ? USBFS_1_GetEPCount(epNumber) : length;
2116:Generated_Source\PSoC5/USBFS_1.c ****     #endif /* (!USBFS_1_EP_MANAGEMENT_DMA_AUTO) */
2117:Generated_Source\PSoC5/USBFS_1.c **** 
2118:Generated_Source\PSoC5/USBFS_1.c ****     /* Adjust requested length: 2 bytes are handled at one data register access. */
ARM GAS  C:\Users\oars0\AppData\Local\Temp\ccNqJowk.s 			page 62


2119:Generated_Source\PSoC5/USBFS_1.c ****     adjLength =  length + ((uint32)length & 1u);
2120:Generated_Source\PSoC5/USBFS_1.c **** 
2121:Generated_Source\PSoC5/USBFS_1.c ****     #if (USBFS_1_EP_MANAGEMENT_MANUAL)
2122:Generated_Source\PSoC5/USBFS_1.c ****         {
2123:Generated_Source\PSoC5/USBFS_1.c ****             /* Convert uint8 array to uint16. */
2124:Generated_Source\PSoC5/USBFS_1.c ****             uint16 *dataBuf = (uint16 *) pData;
2125:Generated_Source\PSoC5/USBFS_1.c **** 
2126:Generated_Source\PSoC5/USBFS_1.c ****             /* Copy data using 16-bits arbiter data register. */
2127:Generated_Source\PSoC5/USBFS_1.c ****             uint16 i;
2128:Generated_Source\PSoC5/USBFS_1.c ****             for (i = 0u; i < (adjLength >> 1u); ++i)
2129:Generated_Source\PSoC5/USBFS_1.c ****             {
2130:Generated_Source\PSoC5/USBFS_1.c ****                 dataBuf[i] = (uint16) USBFS_1_ARB_EP16_BASE.arbEp[epNumber].rwDr16;
2131:Generated_Source\PSoC5/USBFS_1.c ****             }
2132:Generated_Source\PSoC5/USBFS_1.c ****         }
2133:Generated_Source\PSoC5/USBFS_1.c **** 
2134:Generated_Source\PSoC5/USBFS_1.c ****         /* Arm OUT endpoint after data has been read from endpoint buffer. */
2135:Generated_Source\PSoC5/USBFS_1.c ****         USBFS_1_EnableOutEP(epNumber);
2136:Generated_Source\PSoC5/USBFS_1.c ****     #else
2137:Generated_Source\PSoC5/USBFS_1.c **** 
2138:Generated_Source\PSoC5/USBFS_1.c ****         #if (USBFS_1_EP_MANAGEMENT_DMA_MANUAL)
2139:Generated_Source\PSoC5/USBFS_1.c ****         {
2140:Generated_Source\PSoC5/USBFS_1.c ****             uint32 channelNum = (uint32) USBFS_1_DmaChan[epNumber];
2141:Generated_Source\PSoC5/USBFS_1.c **** 
2142:Generated_Source\PSoC5/USBFS_1.c ****             /* Disable DMA channel: start configuration. */
2143:Generated_Source\PSoC5/USBFS_1.c ****             USBFS_1_CyDmaChDisable(channelNum);
2144:Generated_Source\PSoC5/USBFS_1.c **** 
2145:Generated_Source\PSoC5/USBFS_1.c ****             /* Configure source and destination. */
2146:Generated_Source\PSoC5/USBFS_1.c ****             USBFS_1_CyDmaSetSrcAddress(channelNum, USBFS_1_DMA_DESCR0, (void*) &USBFS_1_ARB_EP16_BA
2147:Generated_Source\PSoC5/USBFS_1.c ****             USBFS_1_CyDmaSetDstAddress(channelNum, USBFS_1_DMA_DESCR0, (void*) pData);
2148:Generated_Source\PSoC5/USBFS_1.c **** 
2149:Generated_Source\PSoC5/USBFS_1.c ****             /* Configure DMA descriptor. */
2150:Generated_Source\PSoC5/USBFS_1.c ****             USBFS_1_CyDmaSetConfiguration(channelNum, USBFS_1_DMA_DESCR0, USBFS_1_DMA_COMMON_CFG | 
2151:Generated_Source\PSoC5/USBFS_1.c ****                                                     CYDMA_HALFWORD | CYDMA_WORD_ELEMENT | CYDMA_INC
2152:Generated_Source\PSoC5/USBFS_1.c **** 
2153:Generated_Source\PSoC5/USBFS_1.c ****             /* Validate descriptor to execute on following DMA request. */
2154:Generated_Source\PSoC5/USBFS_1.c ****             USBFS_1_CyDmaValidateDescriptor(channelNum, USBFS_1_DMA_DESCR0);
2155:Generated_Source\PSoC5/USBFS_1.c **** 
2156:Generated_Source\PSoC5/USBFS_1.c ****             /* Enable DMA channel: configuration complete. */
2157:Generated_Source\PSoC5/USBFS_1.c ****             USBFS_1_CyDmaChEnable(channelNum);
2158:Generated_Source\PSoC5/USBFS_1.c **** 
2159:Generated_Source\PSoC5/USBFS_1.c ****             /* Generate DMA request. */
2160:Generated_Source\PSoC5/USBFS_1.c ****             USBFS_1_ARB_EP_BASE.arbEp[epNumber].epCfg |=  (uint32)  USBFS_1_ARB_EPX_CFG_DMA_REQ;
2161:Generated_Source\PSoC5/USBFS_1.c ****             USBFS_1_ARB_EP_BASE.arbEp[epNumber].epCfg &=  (uint32) ~USBFS_1_ARB_EPX_CFG_DMA_REQ;
2162:Generated_Source\PSoC5/USBFS_1.c **** 
2163:Generated_Source\PSoC5/USBFS_1.c ****             /* OUT endpoint has to be armed again by user when DMA transfers have been completed.
2164:Generated_Source\PSoC5/USBFS_1.c ****             * NO_EVENT_PENDING: notifies that data has been copied from endpoint buffer.
2165:Generated_Source\PSoC5/USBFS_1.c ****             */
2166:Generated_Source\PSoC5/USBFS_1.c ****         }
2167:Generated_Source\PSoC5/USBFS_1.c ****         #endif /* (USBFS_1_EP_MANAGEMENT_DMA_MANUAL) */
2168:Generated_Source\PSoC5/USBFS_1.c **** 
2169:Generated_Source\PSoC5/USBFS_1.c ****         #if (USBFS_1_EP_MANAGEMENT_DMA_AUTO)
2170:Generated_Source\PSoC5/USBFS_1.c ****         {
2171:Generated_Source\PSoC5/USBFS_1.c ****             uint32 lengthDescr0, lengthDescr1;
2172:Generated_Source\PSoC5/USBFS_1.c ****             uint32 channelNum = (uint32) USBFS_1_DmaChan[epNumber];
2173:Generated_Source\PSoC5/USBFS_1.c **** 
2174:Generated_Source\PSoC5/USBFS_1.c ****             /* Get number of full bursts. */
2175:Generated_Source\PSoC5/USBFS_1.c ****             USBFS_1_DmaEpBurstCnt[epNumber] = (uint8) (adjLength / USBFS_1_DMA_BYTES_PER_BURST);
ARM GAS  C:\Users\oars0\AppData\Local\Temp\ccNqJowk.s 			page 63


2176:Generated_Source\PSoC5/USBFS_1.c **** 
2177:Generated_Source\PSoC5/USBFS_1.c ****             /* Get number of elements in last burst. */
2178:Generated_Source\PSoC5/USBFS_1.c ****             USBFS_1_DmaEpLastBurstEl[epNumber] = (uint8) (adjLength % USBFS_1_DMA_BYTES_PER_BURST);
2179:Generated_Source\PSoC5/USBFS_1.c **** 
2180:Generated_Source\PSoC5/USBFS_1.c ****             /* Get total number of bursts. */
2181:Generated_Source\PSoC5/USBFS_1.c ****             USBFS_1_DmaEpBurstCnt[epNumber] += (0u != USBFS_1_DmaEpLastBurstEl[epNumber]) ? 1u : 0u
2182:Generated_Source\PSoC5/USBFS_1.c **** 
2183:Generated_Source\PSoC5/USBFS_1.c ****             /* Adjust number of data elements transferred in last burst. */
2184:Generated_Source\PSoC5/USBFS_1.c ****             USBFS_1_DmaEpLastBurstEl[epNumber] = (0u != USBFS_1_DmaEpLastBurstEl[epNumber]) ?
2185:Generated_Source\PSoC5/USBFS_1.c ****                                                                   ((USBFS_1_DmaEpLastBurstEl[epNumb
2186:Generated_Source\PSoC5/USBFS_1.c ****                                                                    (USBFS_1_DMA_HALFWORDS_PER_BURST
2187:Generated_Source\PSoC5/USBFS_1.c **** 
2188:Generated_Source\PSoC5/USBFS_1.c ****             /* Get number of data elements to transfer for descriptor 0 and 1. */
2189:Generated_Source\PSoC5/USBFS_1.c ****             lengthDescr0 = (1u == USBFS_1_DmaEpBurstCnt[epNumber]) ? USBFS_1_DmaEpLastBurstEl[epNum
2190:Generated_Source\PSoC5/USBFS_1.c ****             lengthDescr1 = (2u == USBFS_1_DmaEpBurstCnt[epNumber]) ? USBFS_1_DmaEpLastBurstEl[epNum
2191:Generated_Source\PSoC5/USBFS_1.c **** 
2192:Generated_Source\PSoC5/USBFS_1.c ****             /* Mark last descriptor to be executed. */
2193:Generated_Source\PSoC5/USBFS_1.c ****             USBFS_1_DmaEpLastBurstEl[epNumber] |= (0u != (USBFS_1_DmaEpBurstCnt[epNumber] & 0x1u)) 
2194:Generated_Source\PSoC5/USBFS_1.c ****                                                                     USBFS_1_DMA_DESCR0_MASK : USBFS
2195:Generated_Source\PSoC5/USBFS_1.c **** 
2196:Generated_Source\PSoC5/USBFS_1.c ****             /* Mark if revert number of data elements in descriptor after transfer completion. */
2197:Generated_Source\PSoC5/USBFS_1.c ****             USBFS_1_DmaEpLastBurstEl[epNumber] |= (USBFS_1_DmaEpBurstCnt[epNumber] > 2u) ? USBFS_1_
2198:Generated_Source\PSoC5/USBFS_1.c **** 
2199:Generated_Source\PSoC5/USBFS_1.c ****             /* Mark that 16-bits access to data register is performed. */
2200:Generated_Source\PSoC5/USBFS_1.c ****             USBFS_1_DmaEpLastBurstEl[epNumber] |= USBFS_1_DMA_DESCR_16BITS;
2201:Generated_Source\PSoC5/USBFS_1.c **** 
2202:Generated_Source\PSoC5/USBFS_1.c ****             /* Store address of buffer and burst counter for endpoint. */
2203:Generated_Source\PSoC5/USBFS_1.c ****             USBFS_1_DmaEpBufferAddrBackup[epNumber] = (uint32) pData;
2204:Generated_Source\PSoC5/USBFS_1.c ****             USBFS_1_DmaEpBurstCntBackup[epNumber]   = USBFS_1_DmaEpBurstCnt[epNumber];
2205:Generated_Source\PSoC5/USBFS_1.c **** 
2206:Generated_Source\PSoC5/USBFS_1.c ****             /* Adjust burst counter taking to account: 2 valid descriptors and interrupt trigger af
2207:Generated_Source\PSoC5/USBFS_1.c ****             USBFS_1_DmaEpBurstCnt[epNumber] = USBFS_1_DMA_GET_BURST_CNT(USBFS_1_DmaEpBurstCnt[epNum
2208:Generated_Source\PSoC5/USBFS_1.c **** 
2209:Generated_Source\PSoC5/USBFS_1.c ****             /* Disable DMA channel: start configuration. */
2210:Generated_Source\PSoC5/USBFS_1.c ****             USBFS_1_CyDmaChDisable(channelNum);
2211:Generated_Source\PSoC5/USBFS_1.c **** 
2212:Generated_Source\PSoC5/USBFS_1.c ****             /* Set destination address. */
2213:Generated_Source\PSoC5/USBFS_1.c ****             USBFS_1_CyDmaSetSrcAddress(channelNum, USBFS_1_DMA_DESCR0, (void*) &USBFS_1_ARB_EP16_BA
2214:Generated_Source\PSoC5/USBFS_1.c ****             USBFS_1_CyDmaSetSrcAddress(channelNum, USBFS_1_DMA_DESCR1, (void*) &USBFS_1_ARB_EP16_BA
2215:Generated_Source\PSoC5/USBFS_1.c **** 
2216:Generated_Source\PSoC5/USBFS_1.c ****             USBFS_1_CyDmaSetDstAddress(channelNum, USBFS_1_DMA_DESCR0, (void*) ((uint32) pData));
2217:Generated_Source\PSoC5/USBFS_1.c ****             USBFS_1_CyDmaSetDstAddress(channelNum, USBFS_1_DMA_DESCR1, (void*) ((uint32) pData + US
2218:Generated_Source\PSoC5/USBFS_1.c **** 
2219:Generated_Source\PSoC5/USBFS_1.c ****             /* Configure DMA descriptor 0. */
2220:Generated_Source\PSoC5/USBFS_1.c ****             USBFS_1_CyDmaSetConfiguration(channelNum, USBFS_1_DMA_DESCR0, USBFS_1_DMA_COMMON_CFG  |
2221:Generated_Source\PSoC5/USBFS_1.c ****                                                     CYDMA_HALFWORD | CYDMA_WORD_ELEMENT | CYDMA_INC
2222:Generated_Source\PSoC5/USBFS_1.c **** 
2223:Generated_Source\PSoC5/USBFS_1.c ****             /* Configure DMA descriptor 1. */
2224:Generated_Source\PSoC5/USBFS_1.c ****             USBFS_1_CyDmaSetConfiguration(channelNum, USBFS_1_DMA_DESCR1, USBFS_1_DMA_COMMON_CFG  |
2225:Generated_Source\PSoC5/USBFS_1.c ****                                                     CYDMA_HALFWORD | CYDMA_WORD_ELEMENT | CYDMA_INC
2226:Generated_Source\PSoC5/USBFS_1.c **** 
2227:Generated_Source\PSoC5/USBFS_1.c ****             /* Enable interrupt from DMA channel. */
2228:Generated_Source\PSoC5/USBFS_1.c ****             USBFS_1_CyDmaSetInterruptMask(channelNum);
2229:Generated_Source\PSoC5/USBFS_1.c **** 
2230:Generated_Source\PSoC5/USBFS_1.c ****             /* Validate DMA descriptor 0 and 1. */
2231:Generated_Source\PSoC5/USBFS_1.c ****             USBFS_1_CyDmaValidateDescriptor(channelNum, USBFS_1_DMA_DESCR0);
2232:Generated_Source\PSoC5/USBFS_1.c ****             
ARM GAS  C:\Users\oars0\AppData\Local\Temp\ccNqJowk.s 			page 64


2233:Generated_Source\PSoC5/USBFS_1.c ****             if (USBFS_1_DmaEpBurstCntBackup[epNumber] > 1u)
2234:Generated_Source\PSoC5/USBFS_1.c ****             {
2235:Generated_Source\PSoC5/USBFS_1.c ****                 USBFS_1_CyDmaValidateDescriptor(channelNum, USBFS_1_DMA_DESCR1);
2236:Generated_Source\PSoC5/USBFS_1.c ****             }
2237:Generated_Source\PSoC5/USBFS_1.c **** 
2238:Generated_Source\PSoC5/USBFS_1.c ****             /* Enable DMA channel: configuration complete. */
2239:Generated_Source\PSoC5/USBFS_1.c ****             USBFS_1_CyDmaChEnable(channelNum);
2240:Generated_Source\PSoC5/USBFS_1.c **** 
2241:Generated_Source\PSoC5/USBFS_1.c ****             /* OUT endpoint has to be armed again by user when DMA transfers have been completed.
2242:Generated_Source\PSoC5/USBFS_1.c ****             * NO_EVENT_PENDING: notifies that data has been copied from endpoint buffer.
2243:Generated_Source\PSoC5/USBFS_1.c ****             */
2244:Generated_Source\PSoC5/USBFS_1.c ****         }
2245:Generated_Source\PSoC5/USBFS_1.c ****         #endif /* (USBFS_1_EP_MANAGEMENT_DMA_AUTO) */
2246:Generated_Source\PSoC5/USBFS_1.c ****     #endif /* (USBFS_1_EP_MANAGEMENT_MANUAL) */
2247:Generated_Source\PSoC5/USBFS_1.c ****     }
2248:Generated_Source\PSoC5/USBFS_1.c ****     else
2249:Generated_Source\PSoC5/USBFS_1.c ****     {
2250:Generated_Source\PSoC5/USBFS_1.c ****         length = 0u;
2251:Generated_Source\PSoC5/USBFS_1.c ****     }
2252:Generated_Source\PSoC5/USBFS_1.c **** 
2253:Generated_Source\PSoC5/USBFS_1.c ****     return (length);
2254:Generated_Source\PSoC5/USBFS_1.c **** }
2255:Generated_Source\PSoC5/USBFS_1.c **** #endif /* (USBFS_1_16BITS_EP_ACCESS_ENABLE) */
2256:Generated_Source\PSoC5/USBFS_1.c **** 
2257:Generated_Source\PSoC5/USBFS_1.c **** 
2258:Generated_Source\PSoC5/USBFS_1.c **** /*******************************************************************************
2259:Generated_Source\PSoC5/USBFS_1.c **** * Function Name: USBFS_1_EnableOutEP
2260:Generated_Source\PSoC5/USBFS_1.c **** ****************************************************************************//**
2261:Generated_Source\PSoC5/USBFS_1.c **** *
2262:Generated_Source\PSoC5/USBFS_1.c **** *  This function enables the specified endpoint for OUT transfers. Do not call
2263:Generated_Source\PSoC5/USBFS_1.c **** *  this function for IN endpoints.
2264:Generated_Source\PSoC5/USBFS_1.c **** *
2265:Generated_Source\PSoC5/USBFS_1.c **** *  \param epNumber: Contains the data endpoint number. Valid values are between
2266:Generated_Source\PSoC5/USBFS_1.c **** *  1 and 8.
2267:Generated_Source\PSoC5/USBFS_1.c **** *
2268:Generated_Source\PSoC5/USBFS_1.c **** * \globalvars
2269:Generated_Source\PSoC5/USBFS_1.c **** *
2270:Generated_Source\PSoC5/USBFS_1.c **** *  \ref USBFS_1_EP[epNumber].apiEpState - set to NO_EVENT_PENDING
2271:Generated_Source\PSoC5/USBFS_1.c **** *
2272:Generated_Source\PSoC5/USBFS_1.c **** * \reentrant
2273:Generated_Source\PSoC5/USBFS_1.c **** *  No.
2274:Generated_Source\PSoC5/USBFS_1.c **** *
2275:Generated_Source\PSoC5/USBFS_1.c **** *******************************************************************************/
2276:Generated_Source\PSoC5/USBFS_1.c **** void USBFS_1_EnableOutEP(uint8 epNumber) 
2277:Generated_Source\PSoC5/USBFS_1.c **** {
 1352              		.loc 1 2277 0
 1353              		.cfi_startproc
 1354              		@ args = 0, pretend = 0, frame = 8
 1355              		@ frame_needed = 1, uses_anonymous_args = 0
 1356              		@ link register save eliminated.
 1357 0000 90B4     		push	{r4, r7}
 1358              		.cfi_def_cfa_offset 8
 1359              		.cfi_offset 4, -8
 1360              		.cfi_offset 7, -4
 1361 0002 82B0     		sub	sp, sp, #8
 1362              		.cfi_def_cfa_offset 16
 1363 0004 00AF     		add	r7, sp, #0
ARM GAS  C:\Users\oars0\AppData\Local\Temp\ccNqJowk.s 			page 65


 1364              		.cfi_def_cfa_register 7
