ARM GAS  C:\Users\oars0\AppData\Local\Temp\ccNqJowk.s 			page 1


   1              		.syntax unified
   2              		.cpu cortex-m3
   3              		.fpu softvfp
   4              		.eabi_attribute 20, 1
   5              		.eabi_attribute 21, 1
   6              		.eabi_attribute 23, 3
   7              		.eabi_attribute 24, 1
   8              		.eabi_attribute 25, 1
   9              		.eabi_attribute 26, 1
  10              		.eabi_attribute 30, 6
  11              		.eabi_attribute 34, 1
  12              		.eabi_attribute 18, 4
  13              		.thumb
  14              		.syntax unified
  15              		.file	"USBFS_1.c"
  16              		.text
  17              	.Ltext0:
  18              		.cfi_sections	.debug_frame
  19              		.global	USBFS_1_initVar
  20              		.bss
  21              		.type	USBFS_1_initVar, %object
  22              		.size	USBFS_1_initVar, 1
  23              	USBFS_1_initVar:
  24 0000 00       		.space	1
  25              		.section	.text.USBFS_1_Start,"ax",%progbits
  26              		.align	2
  27              		.global	USBFS_1_Start
  28              		.thumb
  29              		.thumb_func
  30              		.type	USBFS_1_Start, %function
  31              	USBFS_1_Start:
  32              	.LFB0:
  33              		.file 1 "Generated_Source\\PSoC5\\USBFS_1.c"
   1:Generated_Source\PSoC5/USBFS_1.c **** /***************************************************************************//**
   2:Generated_Source\PSoC5/USBFS_1.c **** * \file USBFS_1.c
   3:Generated_Source\PSoC5/USBFS_1.c **** * \version 3.20
   4:Generated_Source\PSoC5/USBFS_1.c **** *
   5:Generated_Source\PSoC5/USBFS_1.c **** * \brief
   6:Generated_Source\PSoC5/USBFS_1.c **** *  This file contains the global USBFS API functions.
   7:Generated_Source\PSoC5/USBFS_1.c **** *
   8:Generated_Source\PSoC5/USBFS_1.c **** * Note:
   9:Generated_Source\PSoC5/USBFS_1.c **** *  Many of the functions use an endpoint number. SRAM arrays are sized with 9
  10:Generated_Source\PSoC5/USBFS_1.c **** *  elements, so they are indexed directly by epNumber.  The SIE and ARB
  11:Generated_Source\PSoC5/USBFS_1.c **** *  registers are indexed by variations of epNumber - 1.
  12:Generated_Source\PSoC5/USBFS_1.c **** *
  13:Generated_Source\PSoC5/USBFS_1.c **** ********************************************************************************
  14:Generated_Source\PSoC5/USBFS_1.c **** * \copyright
  15:Generated_Source\PSoC5/USBFS_1.c **** * Copyright 2008-2016, Cypress Semiconductor Corporation.  All rights reserved.
  16:Generated_Source\PSoC5/USBFS_1.c **** * You may use this file only in accordance with the license, terms, conditions,
  17:Generated_Source\PSoC5/USBFS_1.c **** * disclaimers, and limitations in the end user license agreement accompanying
  18:Generated_Source\PSoC5/USBFS_1.c **** * the software package with which this file was provided.
  19:Generated_Source\PSoC5/USBFS_1.c **** *******************************************************************************/
  20:Generated_Source\PSoC5/USBFS_1.c **** 
  21:Generated_Source\PSoC5/USBFS_1.c **** #include "USBFS_1_pvt.h"
  22:Generated_Source\PSoC5/USBFS_1.c **** #include "USBFS_1_cydmac.h"
  23:Generated_Source\PSoC5/USBFS_1.c **** #include "USBFS_1_hid.h"
  24:Generated_Source\PSoC5/USBFS_1.c **** #include "USBFS_1_Dp.h"
ARM GAS  C:\Users\oars0\AppData\Local\Temp\ccNqJowk.s 			page 2


  25:Generated_Source\PSoC5/USBFS_1.c **** 
  26:Generated_Source\PSoC5/USBFS_1.c **** 
  27:Generated_Source\PSoC5/USBFS_1.c **** /***************************************
  28:Generated_Source\PSoC5/USBFS_1.c **** * Global data allocation
  29:Generated_Source\PSoC5/USBFS_1.c **** ***************************************/
  30:Generated_Source\PSoC5/USBFS_1.c **** 
  31:Generated_Source\PSoC5/USBFS_1.c **** /** Indicates whether the USBFS has been initialized. The variable is
  32:Generated_Source\PSoC5/USBFS_1.c **** * initialized to 0 after device reset and set to 1 the first time USBFS_Start()
  33:Generated_Source\PSoC5/USBFS_1.c **** * is called. This allows the Component to restart without reinitialization after
  34:Generated_Source\PSoC5/USBFS_1.c **** * the first call to the USBFS_Start() routine.
  35:Generated_Source\PSoC5/USBFS_1.c **** * If re-initialization of the Component is required, the variable should be set
  36:Generated_Source\PSoC5/USBFS_1.c **** * to 0 before the USBFS_Start() routine is called. Alternatively, the USBFS can
  37:Generated_Source\PSoC5/USBFS_1.c **** * be reinitialized by calling both USBFS_Init() and USBFS_InitComponent()
  38:Generated_Source\PSoC5/USBFS_1.c **** * functions.
  39:Generated_Source\PSoC5/USBFS_1.c **** */
  40:Generated_Source\PSoC5/USBFS_1.c **** uint8 USBFS_1_initVar = 0u;
  41:Generated_Source\PSoC5/USBFS_1.c **** 
  42:Generated_Source\PSoC5/USBFS_1.c **** #if (USBFS_1_EP_MANAGEMENT_DMA)
  43:Generated_Source\PSoC5/USBFS_1.c ****     #if (CY_PSOC4)
  44:Generated_Source\PSoC5/USBFS_1.c ****         static void USBFS_1_InitEpDma(void);
  45:Generated_Source\PSoC5/USBFS_1.c **** 
  46:Generated_Source\PSoC5/USBFS_1.c ****         /* DMA chanels assigend for endpoints. */
  47:Generated_Source\PSoC5/USBFS_1.c ****         const uint8 USBFS_1_DmaChan[USBFS_1_MAX_EP] =
  48:Generated_Source\PSoC5/USBFS_1.c ****         {
  49:Generated_Source\PSoC5/USBFS_1.c ****             0u,
  50:Generated_Source\PSoC5/USBFS_1.c ****             0u,
  51:Generated_Source\PSoC5/USBFS_1.c ****             0u,
  52:Generated_Source\PSoC5/USBFS_1.c ****             0u,
  53:Generated_Source\PSoC5/USBFS_1.c ****             0u,
  54:Generated_Source\PSoC5/USBFS_1.c ****             0u,
  55:Generated_Source\PSoC5/USBFS_1.c ****             0u,
  56:Generated_Source\PSoC5/USBFS_1.c ****             0u,
  57:Generated_Source\PSoC5/USBFS_1.c ****             0u,
  58:Generated_Source\PSoC5/USBFS_1.c ****         };        
  59:Generated_Source\PSoC5/USBFS_1.c ****     #else
  60:Generated_Source\PSoC5/USBFS_1.c ****         /* DMA chanels assigend for endpoints. */
  61:Generated_Source\PSoC5/USBFS_1.c ****         uint8 USBFS_1_DmaChan[USBFS_1_MAX_EP];
  62:Generated_Source\PSoC5/USBFS_1.c ****         
  63:Generated_Source\PSoC5/USBFS_1.c ****         /* DMA TDs require for PSoC 3/5LP operation. */
  64:Generated_Source\PSoC5/USBFS_1.c ****         uint8 USBFS_1_DmaTd[USBFS_1_MAX_EP];
  65:Generated_Source\PSoC5/USBFS_1.c ****     #endif /* (CY_PSOC4) */
  66:Generated_Source\PSoC5/USBFS_1.c **** #endif /* (USBFS_1_EP_MANAGEMENT_DMA) */
  67:Generated_Source\PSoC5/USBFS_1.c **** 
  68:Generated_Source\PSoC5/USBFS_1.c **** #if (USBFS_1_EP_MANAGEMENT_DMA_AUTO)
  69:Generated_Source\PSoC5/USBFS_1.c **** #if (CY_PSOC4)
  70:Generated_Source\PSoC5/USBFS_1.c ****     /* Number of DMA bursts. */
  71:Generated_Source\PSoC5/USBFS_1.c ****     uint8  USBFS_1_DmaEpBurstCnt   [USBFS_1_MAX_EP];
  72:Generated_Source\PSoC5/USBFS_1.c ****     
  73:Generated_Source\PSoC5/USBFS_1.c ****     /* Number of bytes to transfer in last DMA burst. */
  74:Generated_Source\PSoC5/USBFS_1.c ****     uint8  USBFS_1_DmaEpLastBurstEl[USBFS_1_MAX_EP];
  75:Generated_Source\PSoC5/USBFS_1.c **** 
  76:Generated_Source\PSoC5/USBFS_1.c ****     /* Storage for arrays above. */
  77:Generated_Source\PSoC5/USBFS_1.c ****     uint8  USBFS_1_DmaEpBurstCntBackup  [USBFS_1_MAX_EP];
  78:Generated_Source\PSoC5/USBFS_1.c ****     uint32 USBFS_1_DmaEpBufferAddrBackup[USBFS_1_MAX_EP];
  79:Generated_Source\PSoC5/USBFS_1.c ****      
  80:Generated_Source\PSoC5/USBFS_1.c ****     /* DMA trigger mux output for usb.dma_req[0-7]. */
  81:Generated_Source\PSoC5/USBFS_1.c ****     const uint8 USBFS_1_DmaReqOut[USBFS_1_MAX_EP] =
ARM GAS  C:\Users\oars0\AppData\Local\Temp\ccNqJowk.s 			page 3


  82:Generated_Source\PSoC5/USBFS_1.c ****     {
  83:Generated_Source\PSoC5/USBFS_1.c ****         0u,
  84:Generated_Source\PSoC5/USBFS_1.c ****         USBFS_1_ep1_dma__TR_OUTPUT,
  85:Generated_Source\PSoC5/USBFS_1.c ****         0u,
  86:Generated_Source\PSoC5/USBFS_1.c ****         0u,
  87:Generated_Source\PSoC5/USBFS_1.c ****         0u,
  88:Generated_Source\PSoC5/USBFS_1.c ****         0u,
  89:Generated_Source\PSoC5/USBFS_1.c ****         0u,
  90:Generated_Source\PSoC5/USBFS_1.c ****         0u,
  91:Generated_Source\PSoC5/USBFS_1.c ****         0u,
  92:Generated_Source\PSoC5/USBFS_1.c ****     };
  93:Generated_Source\PSoC5/USBFS_1.c **** 
  94:Generated_Source\PSoC5/USBFS_1.c ****     /* DMA trigger mux output for usb.dma_burstend[0-7]. */
  95:Generated_Source\PSoC5/USBFS_1.c ****     const uint8 USBFS_1_DmaBurstEndOut[USBFS_1_MAX_EP] =
  96:Generated_Source\PSoC5/USBFS_1.c ****     {
  97:Generated_Source\PSoC5/USBFS_1.c ****         0u,
  98:Generated_Source\PSoC5/USBFS_1.c ****         USBFS_1_BURSTEND_0_TR_OUTPUT,
  99:Generated_Source\PSoC5/USBFS_1.c ****         USBFS_1_BURSTEND_1_TR_OUTPUT,
 100:Generated_Source\PSoC5/USBFS_1.c ****         USBFS_1_BURSTEND_2_TR_OUTPUT,
 101:Generated_Source\PSoC5/USBFS_1.c ****         USBFS_1_BURSTEND_3_TR_OUTPUT,
 102:Generated_Source\PSoC5/USBFS_1.c ****         USBFS_1_BURSTEND_4_TR_OUTPUT,
 103:Generated_Source\PSoC5/USBFS_1.c ****         USBFS_1_BURSTEND_5_TR_OUTPUT,
 104:Generated_Source\PSoC5/USBFS_1.c ****         USBFS_1_BURSTEND_6_TR_OUTPUT,
 105:Generated_Source\PSoC5/USBFS_1.c ****         USBFS_1_BURSTEND_7_TR_OUTPUT
 106:Generated_Source\PSoC5/USBFS_1.c ****     };
 107:Generated_Source\PSoC5/USBFS_1.c ****     
 108:Generated_Source\PSoC5/USBFS_1.c **** #else
 109:Generated_Source\PSoC5/USBFS_1.c ****     #if (USBFS_1_EP_DMA_AUTO_OPT == 0u)
 110:Generated_Source\PSoC5/USBFS_1.c ****         static uint8 clearInDataRdyStatus = USBFS_1_ARB_EPX_CFG_DEFAULT;
 111:Generated_Source\PSoC5/USBFS_1.c ****         uint8 USBFS_1_DmaNextTd[USBFS_1_MAX_EP];
 112:Generated_Source\PSoC5/USBFS_1.c ****         const uint8 USBFS_1_epX_TD_TERMOUT_EN[USBFS_1_MAX_EP] =
 113:Generated_Source\PSoC5/USBFS_1.c ****         {
 114:Generated_Source\PSoC5/USBFS_1.c ****             0u,
 115:Generated_Source\PSoC5/USBFS_1.c ****             0u,
 116:Generated_Source\PSoC5/USBFS_1.c ****             0u,
 117:Generated_Source\PSoC5/USBFS_1.c ****             0u,
 118:Generated_Source\PSoC5/USBFS_1.c ****             0u,
 119:Generated_Source\PSoC5/USBFS_1.c ****             0u,
 120:Generated_Source\PSoC5/USBFS_1.c ****             0u,
 121:Generated_Source\PSoC5/USBFS_1.c ****             0u,
 122:Generated_Source\PSoC5/USBFS_1.c ****             0u,
 123:Generated_Source\PSoC5/USBFS_1.c ****         };
 124:Generated_Source\PSoC5/USBFS_1.c **** 
 125:Generated_Source\PSoC5/USBFS_1.c ****         volatile uint16 USBFS_1_inLength[USBFS_1_MAX_EP];
 126:Generated_Source\PSoC5/USBFS_1.c ****         const uint8 *USBFS_1_inDataPointer[USBFS_1_MAX_EP];
 127:Generated_Source\PSoC5/USBFS_1.c ****         volatile uint8 USBFS_1_inBufFull[USBFS_1_MAX_EP];
 128:Generated_Source\PSoC5/USBFS_1.c ****     #endif /* (USBFS_1_EP_DMA_AUTO_OPT == 0u) */
 129:Generated_Source\PSoC5/USBFS_1.c **** #endif /* (CY_PSOC4) */
 130:Generated_Source\PSoC5/USBFS_1.c **** #endif /* (USBFS_1_EP_MANAGEMENT_DMA_AUTO) */
 131:Generated_Source\PSoC5/USBFS_1.c **** 
 132:Generated_Source\PSoC5/USBFS_1.c **** 
 133:Generated_Source\PSoC5/USBFS_1.c **** /*******************************************************************************
 134:Generated_Source\PSoC5/USBFS_1.c **** * Function Name: USBFS_1_Start
 135:Generated_Source\PSoC5/USBFS_1.c **** ****************************************************************************//**
 136:Generated_Source\PSoC5/USBFS_1.c **** *
 137:Generated_Source\PSoC5/USBFS_1.c **** *   This function performs all required initialization for the USBFS component.
 138:Generated_Source\PSoC5/USBFS_1.c **** *   After this function call, the USB device initiates communication with the
ARM GAS  C:\Users\oars0\AppData\Local\Temp\ccNqJowk.s 			page 4


 139:Generated_Source\PSoC5/USBFS_1.c **** *   host by pull-up D+ line. This is the preferred method to begin component
 140:Generated_Source\PSoC5/USBFS_1.c **** *   operation.
 141:Generated_Source\PSoC5/USBFS_1.c **** *
 142:Generated_Source\PSoC5/USBFS_1.c **** *   Note that global interrupts have to be enabled because interrupts are
 143:Generated_Source\PSoC5/USBFS_1.c **** *   required for USBFS component operation.
 144:Generated_Source\PSoC5/USBFS_1.c **** *
 145:Generated_Source\PSoC5/USBFS_1.c **** *   PSoC 4200L devices: when USBFS component configured to DMA with Automatic
 146:Generated_Source\PSoC5/USBFS_1.c **** *   Buffer Management, the DMA interrupt priority is changed to the highest
 147:Generated_Source\PSoC5/USBFS_1.c **** *   (priority 0) inside this function.
 148:Generated_Source\PSoC5/USBFS_1.c **** *
 149:Generated_Source\PSoC5/USBFS_1.c **** *   PSoC 3/PSoC 5LP devices: when USBFS component configured to DMA with
 150:Generated_Source\PSoC5/USBFS_1.c **** *   Automatic Buffer Management, the Arbiter interrupt priority is changed to
 151:Generated_Source\PSoC5/USBFS_1.c **** *   the highest (priority 0) inside this function.
 152:Generated_Source\PSoC5/USBFS_1.c **** *
 153:Generated_Source\PSoC5/USBFS_1.c **** *  \param device
 154:Generated_Source\PSoC5/USBFS_1.c **** *          Contains the device number of the desired device descriptor.
 155:Generated_Source\PSoC5/USBFS_1.c **** *          The device number can be found in the Device Descriptor Tab of
 156:Generated_Source\PSoC5/USBFS_1.c **** *          "Configure" dialog, under the settings of desired Device Descriptor,
 157:Generated_Source\PSoC5/USBFS_1.c **** *          in the "Device Number" field.
 158:Generated_Source\PSoC5/USBFS_1.c **** *  \param mode:
 159:Generated_Source\PSoC5/USBFS_1.c **** *   The operating voltage. This determines whether the voltage regulator
 160:Generated_Source\PSoC5/USBFS_1.c **** *   is enabled for 5V operation or if pass through mode is used for 3.3V
 161:Generated_Source\PSoC5/USBFS_1.c **** *   operation. Symbolic names and their associated values are given in the
 162:Generated_Source\PSoC5/USBFS_1.c **** *   following list.
 163:Generated_Source\PSoC5/USBFS_1.c **** *
 164:Generated_Source\PSoC5/USBFS_1.c **** *       *USBFS_1_3V_OPERATION* - Disable voltage regulator and pass-
 165:Generated_Source\PSoC5/USBFS_1.c **** *                                      through Vcc for pull-up
 166:Generated_Source\PSoC5/USBFS_1.c **** *
 167:Generated_Source\PSoC5/USBFS_1.c **** *       *USBFS_1_5V_OPERATION* - Enable voltage regulator and use
 168:Generated_Source\PSoC5/USBFS_1.c **** *                                      regulator for pull-up
 169:Generated_Source\PSoC5/USBFS_1.c **** *
 170:Generated_Source\PSoC5/USBFS_1.c **** *       *USBFS_1_DWR_POWER_OPERATION* - Enable or disable the voltage
 171:Generated_Source\PSoC5/USBFS_1.c **** *                                      regulator depending on the power supply
 172:Generated_Source\PSoC5/USBFS_1.c **** *                                      voltage configuration in the DWR tab.
 173:Generated_Source\PSoC5/USBFS_1.c **** *                                      For PSoC 3/5LP devices, the VDDD supply
 174:Generated_Source\PSoC5/USBFS_1.c **** *                                      voltage is considered and for PSoC 4A-L,
 175:Generated_Source\PSoC5/USBFS_1.c **** *                                      the VBUS supply voltage is considered.*
 176:Generated_Source\PSoC5/USBFS_1.c **** * \globalvars
 177:Generated_Source\PSoC5/USBFS_1.c **** *  \ref USBFS_1_initVar
 178:Generated_Source\PSoC5/USBFS_1.c **** *
 179:Generated_Source\PSoC5/USBFS_1.c **** * \sideeffect
 180:Generated_Source\PSoC5/USBFS_1.c **** *   This function will reset all communication states to default.
 181:Generated_Source\PSoC5/USBFS_1.c **** *
 182:Generated_Source\PSoC5/USBFS_1.c **** * \reentrant
 183:Generated_Source\PSoC5/USBFS_1.c **** *  No.
 184:Generated_Source\PSoC5/USBFS_1.c **** *
 185:Generated_Source\PSoC5/USBFS_1.c **** *******************************************************************************/
 186:Generated_Source\PSoC5/USBFS_1.c **** void USBFS_1_Start(uint8 device, uint8 mode) 
 187:Generated_Source\PSoC5/USBFS_1.c **** {
  34              		.loc 1 187 0
  35              		.cfi_startproc
  36              		@ args = 0, pretend = 0, frame = 8
  37              		@ frame_needed = 1, uses_anonymous_args = 0
  38 0000 80B5     		push	{r7, lr}
  39              		.cfi_def_cfa_offset 8
  40              		.cfi_offset 7, -8
  41              		.cfi_offset 14, -4
ARM GAS  C:\Users\oars0\AppData\Local\Temp\ccNqJowk.s 			page 5


  42 0002 82B0     		sub	sp, sp, #8
  43              		.cfi_def_cfa_offset 16
  44 0004 00AF     		add	r7, sp, #0
  45              		.cfi_def_cfa_register 7
  46 0006 0346     		mov	r3, r0
  47 0008 0A46     		mov	r2, r1
  48 000a FB71     		strb	r3, [r7, #7]
  49 000c 1346     		mov	r3, r2
  50 000e BB71     		strb	r3, [r7, #6]
 188:Generated_Source\PSoC5/USBFS_1.c ****     if (0u == USBFS_1_initVar)
  51              		.loc 1 188 0
  52 0010 094B     		ldr	r3, .L3
  53 0012 1B78     		ldrb	r3, [r3]	@ zero_extendqisi2
  54 0014 002B     		cmp	r3, #0
  55 0016 04D1     		bne	.L2
 189:Generated_Source\PSoC5/USBFS_1.c ****     {
 190:Generated_Source\PSoC5/USBFS_1.c ****         USBFS_1_Init();
  56              		.loc 1 190 0
  57 0018 FFF7FEFF 		bl	USBFS_1_Init
 191:Generated_Source\PSoC5/USBFS_1.c ****         USBFS_1_initVar = 1u;
  58              		.loc 1 191 0
  59 001c 064B     		ldr	r3, .L3
  60 001e 0122     		movs	r2, #1
  61 0020 1A70     		strb	r2, [r3]
  62              	.L2:
 192:Generated_Source\PSoC5/USBFS_1.c ****     }
 193:Generated_Source\PSoC5/USBFS_1.c **** 
 194:Generated_Source\PSoC5/USBFS_1.c ****     USBFS_1_InitComponent(device, mode);
  63              		.loc 1 194 0
  64 0022 BA79     		ldrb	r2, [r7, #6]	@ zero_extendqisi2
  65 0024 FB79     		ldrb	r3, [r7, #7]	@ zero_extendqisi2
  66 0026 1146     		mov	r1, r2
  67 0028 1846     		mov	r0, r3
  68 002a FFF7FEFF 		bl	USBFS_1_InitComponent
 195:Generated_Source\PSoC5/USBFS_1.c **** }
  69              		.loc 1 195 0
  70 002e 00BF     		nop
  71 0030 0837     		adds	r7, r7, #8
  72              		.cfi_def_cfa_offset 8
  73 0032 BD46     		mov	sp, r7
  74              		.cfi_def_cfa_register 13
  75              		@ sp needed
  76 0034 80BD     		pop	{r7, pc}
  77              	.L4:
  78 0036 00BF     		.align	2
  79              	.L3:
  80 0038 00000000 		.word	USBFS_1_initVar
  81              		.cfi_endproc
  82              	.LFE0:
  83              		.size	USBFS_1_Start, .-USBFS_1_Start
  84              		.section	.text.USBFS_1_Init,"ax",%progbits
  85              		.align	2
  86              		.global	USBFS_1_Init
  87              		.thumb
  88              		.thumb_func
  89              		.type	USBFS_1_Init, %function
  90              	USBFS_1_Init:
ARM GAS  C:\Users\oars0\AppData\Local\Temp\ccNqJowk.s 			page 6


  91              	.LFB1:
 196:Generated_Source\PSoC5/USBFS_1.c **** 
 197:Generated_Source\PSoC5/USBFS_1.c **** 
 198:Generated_Source\PSoC5/USBFS_1.c **** /*******************************************************************************
 199:Generated_Source\PSoC5/USBFS_1.c **** * Function Name: USBFS_1_Init
 200:Generated_Source\PSoC5/USBFS_1.c **** ****************************************************************************//**
 201:Generated_Source\PSoC5/USBFS_1.c **** *
 202:Generated_Source\PSoC5/USBFS_1.c **** * This function initializes or restores the component according to the
 203:Generated_Source\PSoC5/USBFS_1.c **** * customizer Configure dialog settings. It is not necessary to call
 204:Generated_Source\PSoC5/USBFS_1.c **** * USBFS_1_Init() because the USBFS_1_Start() routine calls
 205:Generated_Source\PSoC5/USBFS_1.c **** * this function and is the preferred method to begin component operation.
 206:Generated_Source\PSoC5/USBFS_1.c **** *
 207:Generated_Source\PSoC5/USBFS_1.c **** * \reentrant
 208:Generated_Source\PSoC5/USBFS_1.c **** *  No.
 209:Generated_Source\PSoC5/USBFS_1.c **** *
 210:Generated_Source\PSoC5/USBFS_1.c **** *******************************************************************************/
 211:Generated_Source\PSoC5/USBFS_1.c **** void USBFS_1_Init(void) 
 212:Generated_Source\PSoC5/USBFS_1.c **** {
  92              		.loc 1 212 0
  93              		.cfi_startproc
  94              		@ args = 0, pretend = 0, frame = 8
  95              		@ frame_needed = 1, uses_anonymous_args = 0
  96 0000 80B5     		push	{r7, lr}
  97              		.cfi_def_cfa_offset 8
  98              		.cfi_offset 7, -8
  99              		.cfi_offset 14, -4
 100 0002 82B0     		sub	sp, sp, #8
 101              		.cfi_def_cfa_offset 16
 102 0004 00AF     		add	r7, sp, #0
 103              		.cfi_def_cfa_register 7
 213:Generated_Source\PSoC5/USBFS_1.c **** #if (CY_PSOC4)
 214:Generated_Source\PSoC5/USBFS_1.c ****     /* Enable clock to USB IP. */
 215:Generated_Source\PSoC5/USBFS_1.c ****     USBFS_1_USB_CLK_EN_REG = USBFS_1_USB_CLK_CSR_CLK_EN;
 216:Generated_Source\PSoC5/USBFS_1.c **** 
 217:Generated_Source\PSoC5/USBFS_1.c ****     /* The internal regulator (CR1.REG_ENABLE) is enabled in
 218:Generated_Source\PSoC5/USBFS_1.c ****     * USBFS_1_InitComponent() if it is required.
 219:Generated_Source\PSoC5/USBFS_1.c ****     */
 220:Generated_Source\PSoC5/USBFS_1.c **** 
 221:Generated_Source\PSoC5/USBFS_1.c ****     /* Enable USBIO control on drive mode of D+ and D- pins. */
 222:Generated_Source\PSoC5/USBFS_1.c ****     USBFS_1_USBIO_CR1_REG &= ~ (uint32) USBFS_1_USBIO_CR1_IOMODE;
 223:Generated_Source\PSoC5/USBFS_1.c **** 
 224:Generated_Source\PSoC5/USBFS_1.c ****     /* Set number of LF CLK to detect UBS bus reset. */
 225:Generated_Source\PSoC5/USBFS_1.c ****     USBFS_1_BUS_RST_CNT_REG = USBFS_1_DEFUALT_BUS_RST_CNT;
 226:Generated_Source\PSoC5/USBFS_1.c **** 
 227:Generated_Source\PSoC5/USBFS_1.c ****     /* Select VBUS detection source and clear PHY isolate. The application level
 228:Generated_Source\PSoC5/USBFS_1.c ****     * must ensure that VBUS is valid. There is no need to wait 2us before VBUS is valid.
 229:Generated_Source\PSoC5/USBFS_1.c ****     */
 230:Generated_Source\PSoC5/USBFS_1.c ****     USBFS_1_POWER_CTRL_REG = USBFS_1_DEFAULT_POWER_CTRL_VBUS;
 231:Generated_Source\PSoC5/USBFS_1.c **** 
 232:Generated_Source\PSoC5/USBFS_1.c ****     /* Enable PHY detector and single-ended and differential receivers. */
 233:Generated_Source\PSoC5/USBFS_1.c ****     USBFS_1_POWER_CTRL_REG |= USBFS_1_DEFAULT_POWER_CTRL_PHY;
 234:Generated_Source\PSoC5/USBFS_1.c **** 
 235:Generated_Source\PSoC5/USBFS_1.c ****     /* Suspend clear sequence. */
 236:Generated_Source\PSoC5/USBFS_1.c ****     USBFS_1_POWER_CTRL_REG &= (uint32) ~USBFS_1_POWER_CTRL_SUSPEND;
 237:Generated_Source\PSoC5/USBFS_1.c ****     CyDelayUs(USBFS_1_WAIT_SUSPEND_DEL_DISABLE);
 238:Generated_Source\PSoC5/USBFS_1.c ****     USBFS_1_POWER_CTRL_REG &= (uint32) ~USBFS_1_POWER_CTRL_SUSPEND_DEL;
 239:Generated_Source\PSoC5/USBFS_1.c **** 
ARM GAS  C:\Users\oars0\AppData\Local\Temp\ccNqJowk.s 			page 7


 240:Generated_Source\PSoC5/USBFS_1.c ****     /* Sets IMO lock options and clear all other bits. */
 241:Generated_Source\PSoC5/USBFS_1.c ****     USBFS_1_CR1_REG = USBFS_1_DEFUALT_CR1;
 242:Generated_Source\PSoC5/USBFS_1.c **** 
 243:Generated_Source\PSoC5/USBFS_1.c ****     /* Configure level (hi, lo, med) for each interrupt source. */
 244:Generated_Source\PSoC5/USBFS_1.c ****     USBFS_1_INTR_LVL_SEL_REG = USBFS_1_DEFAULT_INTR_LVL_SEL;
 245:Generated_Source\PSoC5/USBFS_1.c **** 
 246:Generated_Source\PSoC5/USBFS_1.c ****     /* Configure interrupt sources from: SOF, Bus Reset and EP0. */
 247:Generated_Source\PSoC5/USBFS_1.c ****     USBFS_1_INTR_SIE_MASK_REG = USBFS_1_DEFAULT_INTR_SIE_MASK;
 248:Generated_Source\PSoC5/USBFS_1.c **** 
 249:Generated_Source\PSoC5/USBFS_1.c **** #else
 250:Generated_Source\PSoC5/USBFS_1.c ****     uint8 enableInterrupts = CyEnterCriticalSection();
 104              		.loc 1 250 0
 105 0006 FFF7FEFF 		bl	CyEnterCriticalSection
 106 000a 0346     		mov	r3, r0
 107 000c FB71     		strb	r3, [r7, #7]
 251:Generated_Source\PSoC5/USBFS_1.c **** 
 252:Generated_Source\PSoC5/USBFS_1.c **** #if (USBFS_1_EP_MANAGEMENT_DMA)
 253:Generated_Source\PSoC5/USBFS_1.c ****     uint16 i;
 254:Generated_Source\PSoC5/USBFS_1.c **** #endif /* (USBFS_1_EP_MANAGEMENT_DMA) */
 255:Generated_Source\PSoC5/USBFS_1.c **** 
 256:Generated_Source\PSoC5/USBFS_1.c ****     /* Enable USB block. */
 257:Generated_Source\PSoC5/USBFS_1.c ****     USBFS_1_PM_ACT_CFG_REG |= USBFS_1_PM_ACT_EN_FSUSB;
 108              		.loc 1 257 0
 109 000e 4C4A     		ldr	r2, .L6
 110 0010 4B4B     		ldr	r3, .L6
 111 0012 1B78     		ldrb	r3, [r3]
 112 0014 DBB2     		uxtb	r3, r3
 113 0016 43F00103 		orr	r3, r3, #1
 114 001a DBB2     		uxtb	r3, r3
 115 001c 1370     		strb	r3, [r2]
 258:Generated_Source\PSoC5/USBFS_1.c ****     /* Enable USB block for Standby Power Mode. */
 259:Generated_Source\PSoC5/USBFS_1.c ****     USBFS_1_PM_STBY_CFG_REG |= USBFS_1_PM_STBY_EN_FSUSB;
 116              		.loc 1 259 0
 117 001e 494A     		ldr	r2, .L6+4
 118 0020 484B     		ldr	r3, .L6+4
 119 0022 1B78     		ldrb	r3, [r3]
 120 0024 DBB2     		uxtb	r3, r3
 121 0026 43F00103 		orr	r3, r3, #1
 122 002a DBB2     		uxtb	r3, r3
 123 002c 1370     		strb	r3, [r2]
 260:Generated_Source\PSoC5/USBFS_1.c **** 
 261:Generated_Source\PSoC5/USBFS_1.c ****     /* Enable core clock. */
 262:Generated_Source\PSoC5/USBFS_1.c ****     USBFS_1_USB_CLK_EN_REG = USBFS_1_USB_CLK_ENABLE;
 124              		.loc 1 262 0
 125 002e 464B     		ldr	r3, .L6+8
 126 0030 0122     		movs	r2, #1
 127 0032 1A70     		strb	r2, [r3]
 263:Generated_Source\PSoC5/USBFS_1.c **** 
 264:Generated_Source\PSoC5/USBFS_1.c ****     USBFS_1_CR1_REG = USBFS_1_CR1_ENABLE_LOCK;
 128              		.loc 1 264 0
 129 0034 454B     		ldr	r3, .L6+12
 130 0036 0222     		movs	r2, #2
 131 0038 1A70     		strb	r2, [r3]
 265:Generated_Source\PSoC5/USBFS_1.c **** 
 266:Generated_Source\PSoC5/USBFS_1.c ****     /* ENABLING USBIO PADS IN USB MODE FROM I/O MODE. */
 267:Generated_Source\PSoC5/USBFS_1.c ****     /* Ensure USB transmit enable is low (USB_USBIO_CR0.ten). - Manual Transmission - Disabled. */
 268:Generated_Source\PSoC5/USBFS_1.c ****     USBFS_1_USBIO_CR0_REG &= (uint8) ~USBFS_1_USBIO_CR0_TEN;
ARM GAS  C:\Users\oars0\AppData\Local\Temp\ccNqJowk.s 			page 8


 132              		.loc 1 268 0
 133 003a 454A     		ldr	r2, .L6+16
 134 003c 444B     		ldr	r3, .L6+16
 135 003e 1B78     		ldrb	r3, [r3]
 136 0040 DBB2     		uxtb	r3, r3
 137 0042 03F07F03 		and	r3, r3, #127
 138 0046 DBB2     		uxtb	r3, r3
 139 0048 1370     		strb	r3, [r2]
 269:Generated_Source\PSoC5/USBFS_1.c ****     CyDelayUs(USBFS_1_WAIT_REG_STABILITY_50NS);  /* ~50ns delay. */
 140              		.loc 1 269 0
 141 004a 0020     		movs	r0, #0
 142 004c FFF7FEFF 		bl	CyDelayUs
 270:Generated_Source\PSoC5/USBFS_1.c ****     /* Disable USBIO by asserting PM.USB_CR0.fsusbio_pd_n(Inverted.
 271:Generated_Source\PSoC5/USBFS_1.c ****     *  high. These bits will be set low by the power manager out-of-reset.
 272:Generated_Source\PSoC5/USBFS_1.c ****     *  Also confirm USBIO pull-up is disabled.
 273:Generated_Source\PSoC5/USBFS_1.c ****     */
 274:Generated_Source\PSoC5/USBFS_1.c ****     USBFS_1_PM_USB_CR0_REG &= (uint8) ~(USBFS_1_PM_USB_CR0_PD_N |
 143              		.loc 1 274 0
 144 0050 404A     		ldr	r2, .L6+20
 145 0052 404B     		ldr	r3, .L6+20
 146 0054 1B78     		ldrb	r3, [r3]
 147 0056 DBB2     		uxtb	r3, r3
 148 0058 23F00603 		bic	r3, r3, #6
 149 005c DBB2     		uxtb	r3, r3
 150 005e 1370     		strb	r3, [r2]
 275:Generated_Source\PSoC5/USBFS_1.c ****                                                  USBFS_1_PM_USB_CR0_PD_PULLUP_N);
 276:Generated_Source\PSoC5/USBFS_1.c **** 
 277:Generated_Source\PSoC5/USBFS_1.c ****     /* Select IOMODE to USB mode. */
 278:Generated_Source\PSoC5/USBFS_1.c ****     USBFS_1_USBIO_CR1_REG &= (uint8) ~USBFS_1_USBIO_CR1_IOMODE;
 151              		.loc 1 278 0
 152 0060 3D4A     		ldr	r2, .L6+24
 153 0062 3D4B     		ldr	r3, .L6+24
 154 0064 1B78     		ldrb	r3, [r3]
 155 0066 DBB2     		uxtb	r3, r3
 156 0068 23F02003 		bic	r3, r3, #32
 157 006c DBB2     		uxtb	r3, r3
 158 006e 1370     		strb	r3, [r2]
 279:Generated_Source\PSoC5/USBFS_1.c **** 
 280:Generated_Source\PSoC5/USBFS_1.c ****     /* Enable USBIO reference by setting PM.USB_CR0.fsusbio_ref_en. */
 281:Generated_Source\PSoC5/USBFS_1.c ****     USBFS_1_PM_USB_CR0_REG |= USBFS_1_PM_USB_CR0_REF_EN;
 159              		.loc 1 281 0
 160 0070 384A     		ldr	r2, .L6+20
 161 0072 384B     		ldr	r3, .L6+20
 162 0074 1B78     		ldrb	r3, [r3]
 163 0076 DBB2     		uxtb	r3, r3
 164 0078 43F00103 		orr	r3, r3, #1
 165 007c DBB2     		uxtb	r3, r3
 166 007e 1370     		strb	r3, [r2]
 282:Generated_Source\PSoC5/USBFS_1.c ****     /* Reference is available for 1us after regulator is enabled. */
 283:Generated_Source\PSoC5/USBFS_1.c ****     CyDelayUs(USBFS_1_WAIT_REG_STABILITY_1US);
 167              		.loc 1 283 0
 168 0080 0120     		movs	r0, #1
 169 0082 FFF7FEFF 		bl	CyDelayUs
 284:Generated_Source\PSoC5/USBFS_1.c ****     /* OR 40us after power is restored. */
 285:Generated_Source\PSoC5/USBFS_1.c ****     CyDelayUs(USBFS_1_WAIT_VREF_RESTORE);
 170              		.loc 1 285 0
 171 0086 2820     		movs	r0, #40
ARM GAS  C:\Users\oars0\AppData\Local\Temp\ccNqJowk.s 			page 9


 172 0088 FFF7FEFF 		bl	CyDelayUs
 286:Generated_Source\PSoC5/USBFS_1.c ****     /* Ensure single-ended disable bits are low (PRT15.INP_DIS[7:6])(input receiver enabled). */
 287:Generated_Source\PSoC5/USBFS_1.c ****     USBFS_1_DM_INP_DIS_REG &= (uint8) ~USBFS_1_DM_MASK;
 173              		.loc 1 287 0
 174 008c 334A     		ldr	r2, .L6+28
 175 008e 334B     		ldr	r3, .L6+28
 176 0090 1B78     		ldrb	r3, [r3]
 177 0092 DBB2     		uxtb	r3, r3
 178 0094 03F07F03 		and	r3, r3, #127
 179 0098 DBB2     		uxtb	r3, r3
 180 009a 1370     		strb	r3, [r2]
 288:Generated_Source\PSoC5/USBFS_1.c ****     USBFS_1_DP_INP_DIS_REG &= (uint8) ~USBFS_1_DP_MASK;
 181              		.loc 1 288 0
 182 009c 2F4A     		ldr	r2, .L6+28
 183 009e 2F4B     		ldr	r3, .L6+28
 184 00a0 1B78     		ldrb	r3, [r3]
 185 00a2 DBB2     		uxtb	r3, r3
 186 00a4 23F04003 		bic	r3, r3, #64
 187 00a8 DBB2     		uxtb	r3, r3
 188 00aa 1370     		strb	r3, [r2]
 289:Generated_Source\PSoC5/USBFS_1.c **** 
 290:Generated_Source\PSoC5/USBFS_1.c ****     /* Enable USBIO. */
 291:Generated_Source\PSoC5/USBFS_1.c ****     USBFS_1_PM_USB_CR0_REG |= USBFS_1_PM_USB_CR0_PD_N;
 189              		.loc 1 291 0
 190 00ac 294A     		ldr	r2, .L6+20
 191 00ae 294B     		ldr	r3, .L6+20
 192 00b0 1B78     		ldrb	r3, [r3]
 193 00b2 DBB2     		uxtb	r3, r3
 194 00b4 43F00203 		orr	r3, r3, #2
 195 00b8 DBB2     		uxtb	r3, r3
 196 00ba 1370     		strb	r3, [r2]
 292:Generated_Source\PSoC5/USBFS_1.c ****     CyDelayUs(USBFS_1_WAIT_PD_PULLUP_N_ENABLE);
 197              		.loc 1 292 0
 198 00bc 0220     		movs	r0, #2
 199 00be FFF7FEFF 		bl	CyDelayUs
 293:Generated_Source\PSoC5/USBFS_1.c ****     /* Set USBIO pull-up enable. */
 294:Generated_Source\PSoC5/USBFS_1.c ****     USBFS_1_PM_USB_CR0_REG |= USBFS_1_PM_USB_CR0_PD_PULLUP_N;
 200              		.loc 1 294 0
 201 00c2 244A     		ldr	r2, .L6+20
 202 00c4 234B     		ldr	r3, .L6+20
 203 00c6 1B78     		ldrb	r3, [r3]
 204 00c8 DBB2     		uxtb	r3, r3
 205 00ca 43F00403 		orr	r3, r3, #4
 206 00ce DBB2     		uxtb	r3, r3
 207 00d0 1370     		strb	r3, [r2]
 295:Generated_Source\PSoC5/USBFS_1.c **** 
 296:Generated_Source\PSoC5/USBFS_1.c ****     /* Reset Arbiter Write Address register for endpoint 1. */
 297:Generated_Source\PSoC5/USBFS_1.c ****     CY_SET_REG8(USBFS_1_ARB_RW1_WA_PTR,     0u);
 208              		.loc 1 297 0
 209 00d2 234B     		ldr	r3, .L6+32
 210 00d4 0022     		movs	r2, #0
 211 00d6 1A70     		strb	r2, [r3]
 298:Generated_Source\PSoC5/USBFS_1.c ****     CY_SET_REG8(USBFS_1_ARB_RW1_WA_MSB_PTR, 0u);
 212              		.loc 1 298 0
 213 00d8 224B     		ldr	r3, .L6+36
 214 00da 0022     		movs	r2, #0
 215 00dc 1A70     		strb	r2, [r3]
ARM GAS  C:\Users\oars0\AppData\Local\Temp\ccNqJowk.s 			page 10


 299:Generated_Source\PSoC5/USBFS_1.c **** 
 300:Generated_Source\PSoC5/USBFS_1.c **** #if (USBFS_1_EP_MANAGEMENT_DMA)
 301:Generated_Source\PSoC5/USBFS_1.c ****     /* Initialize transfer descriptor. This will be used to detect DMA state - initialized or not. 
 302:Generated_Source\PSoC5/USBFS_1.c ****     for (i = 0u; i < USBFS_1_MAX_EP; ++i)
 303:Generated_Source\PSoC5/USBFS_1.c ****     {
 304:Generated_Source\PSoC5/USBFS_1.c ****         USBFS_1_DmaTd[i] = DMA_INVALID_TD;
 305:Generated_Source\PSoC5/USBFS_1.c **** 
 306:Generated_Source\PSoC5/USBFS_1.c ****     #if (USBFS_1_EP_MANAGEMENT_DMA_AUTO && (USBFS_1_EP_DMA_AUTO_OPT == 0u))
 307:Generated_Source\PSoC5/USBFS_1.c ****         USBFS_1_DmaNextTd[i] = DMA_INVALID_TD;
 308:Generated_Source\PSoC5/USBFS_1.c ****     #endif /* (USBFS_1_EP_MANAGEMENT_DMA_AUTO && (USBFS_1_EP_DMA_AUTO_OPT == 0u)) */
 309:Generated_Source\PSoC5/USBFS_1.c ****     }
 310:Generated_Source\PSoC5/USBFS_1.c **** #endif /* (USBFS_1_EP_MANAGEMENT_DMA) */
 311:Generated_Source\PSoC5/USBFS_1.c **** 
 312:Generated_Source\PSoC5/USBFS_1.c ****     CyExitCriticalSection(enableInterrupts);
 216              		.loc 1 312 0
 217 00de FB79     		ldrb	r3, [r7, #7]	@ zero_extendqisi2
 218 00e0 1846     		mov	r0, r3
 219 00e2 FFF7FEFF 		bl	CyExitCriticalSection
 313:Generated_Source\PSoC5/USBFS_1.c **** #endif /* (CY_PSOC4) */
 314:Generated_Source\PSoC5/USBFS_1.c **** 
 315:Generated_Source\PSoC5/USBFS_1.c ****     /* Configure interrupts from USB block. */
 316:Generated_Source\PSoC5/USBFS_1.c **** #if (CY_PSOC4)
 317:Generated_Source\PSoC5/USBFS_1.c ****     /* Configure hi_int: set handler and priority. */
 318:Generated_Source\PSoC5/USBFS_1.c ****     CyIntSetPriority     (USBFS_1_INTR_HI_VECT_NUM,  USBFS_1_INTR_HI_PRIORITY);
 319:Generated_Source\PSoC5/USBFS_1.c ****     (void) CyIntSetVector(USBFS_1_INTR_HI_VECT_NUM, &USBFS_1_INTR_HI_ISR);
 320:Generated_Source\PSoC5/USBFS_1.c **** 
 321:Generated_Source\PSoC5/USBFS_1.c ****     /* Configure lo_int: set handler and priority. */
 322:Generated_Source\PSoC5/USBFS_1.c ****     CyIntSetPriority     (USBFS_1_INTR_LO_VECT_NUM,  USBFS_1_INTR_LO_PRIORITY);
 323:Generated_Source\PSoC5/USBFS_1.c ****     (void) CyIntSetVector(USBFS_1_INTR_LO_VECT_NUM, &USBFS_1_INTR_LO_ISR);
 324:Generated_Source\PSoC5/USBFS_1.c **** 
 325:Generated_Source\PSoC5/USBFS_1.c ****     /* Configure med_int: set handler and priority (routed through DSI). */
 326:Generated_Source\PSoC5/USBFS_1.c ****     CyIntSetPriority     (USBFS_1_INTR_MED_VECT_NUM,  USBFS_1_INTR_MED_PRIORITY);
 327:Generated_Source\PSoC5/USBFS_1.c ****     (void) CyIntSetVector(USBFS_1_INTR_MED_VECT_NUM, &USBFS_1_INTR_MED_ISR);
 328:Generated_Source\PSoC5/USBFS_1.c **** 
 329:Generated_Source\PSoC5/USBFS_1.c **** #else
 330:Generated_Source\PSoC5/USBFS_1.c ****     /* Set bus reset interrupt. */
 331:Generated_Source\PSoC5/USBFS_1.c ****     CyIntSetPriority(USBFS_1_BUS_RESET_VECT_NUM, USBFS_1_BUS_RESET_PRIOR);
 220              		.loc 1 331 0
 221 00e6 0721     		movs	r1, #7
 222 00e8 1720     		movs	r0, #23
 223 00ea FFF7FEFF 		bl	CyIntSetPriority
 332:Generated_Source\PSoC5/USBFS_1.c ****     (void) CyIntSetVector(USBFS_1_BUS_RESET_VECT_NUM,   &USBFS_1_BUS_RESET_ISR);
 224              		.loc 1 332 0
 225 00ee 1E49     		ldr	r1, .L6+40
 226 00f0 1720     		movs	r0, #23
 227 00f2 FFF7FEFF 		bl	CyIntSetVector
 333:Generated_Source\PSoC5/USBFS_1.c **** 
 334:Generated_Source\PSoC5/USBFS_1.c ****     /* Set Control Endpoint Interrupt. */
 335:Generated_Source\PSoC5/USBFS_1.c ****     CyIntSetPriority(USBFS_1_EP_0_VECT_NUM, USBFS_1_EP_0_PRIOR);
 228              		.loc 1 335 0
 229 00f6 0721     		movs	r1, #7
 230 00f8 1820     		movs	r0, #24
 231 00fa FFF7FEFF 		bl	CyIntSetPriority
 336:Generated_Source\PSoC5/USBFS_1.c ****     (void) CyIntSetVector(USBFS_1_EP_0_VECT_NUM,   &USBFS_1_EP_0_ISR);
 232              		.loc 1 336 0
 233 00fe 1B49     		ldr	r1, .L6+44
 234 0100 1820     		movs	r0, #24
ARM GAS  C:\Users\oars0\AppData\Local\Temp\ccNqJowk.s 			page 11


 235 0102 FFF7FEFF 		bl	CyIntSetVector
 337:Generated_Source\PSoC5/USBFS_1.c **** 
 338:Generated_Source\PSoC5/USBFS_1.c ****     /* Set SOF interrupt. */
 339:Generated_Source\PSoC5/USBFS_1.c ****     #if (USBFS_1_SOF_ISR_ACTIVE)
 340:Generated_Source\PSoC5/USBFS_1.c ****         CyIntSetPriority     (USBFS_1_SOF_VECT_NUM,  USBFS_1_SOF_PRIOR);
 236              		.loc 1 340 0
 237 0106 0721     		movs	r1, #7
 238 0108 1520     		movs	r0, #21
 239 010a FFF7FEFF 		bl	CyIntSetPriority
 341:Generated_Source\PSoC5/USBFS_1.c ****         (void) CyIntSetVector(USBFS_1_SOF_VECT_NUM, &USBFS_1_SOF_ISR);
 240              		.loc 1 341 0
 241 010e 1849     		ldr	r1, .L6+48
 242 0110 1520     		movs	r0, #21
 243 0112 FFF7FEFF 		bl	CyIntSetVector
 342:Generated_Source\PSoC5/USBFS_1.c ****     #endif /* (USBFS_1_SOF_ISR_ACTIVE) */
 343:Generated_Source\PSoC5/USBFS_1.c **** 
 344:Generated_Source\PSoC5/USBFS_1.c ****     /* Set Data Endpoint 1 Interrupt. */
 345:Generated_Source\PSoC5/USBFS_1.c ****     #if (USBFS_1_EP1_ISR_ACTIVE)
 346:Generated_Source\PSoC5/USBFS_1.c ****         CyIntSetPriority     (USBFS_1_EP_1_VECT_NUM,  USBFS_1_EP_1_PRIOR);
 244              		.loc 1 346 0
 245 0116 0721     		movs	r1, #7
 246 0118 0120     		movs	r0, #1
 247 011a FFF7FEFF 		bl	CyIntSetPriority
 347:Generated_Source\PSoC5/USBFS_1.c ****         (void) CyIntSetVector(USBFS_1_EP_1_VECT_NUM,  &USBFS_1_EP_1_ISR);
 248              		.loc 1 347 0
 249 011e 1549     		ldr	r1, .L6+52
 250 0120 0120     		movs	r0, #1
 251 0122 FFF7FEFF 		bl	CyIntSetVector
 348:Generated_Source\PSoC5/USBFS_1.c ****     #endif /* (USBFS_1_EP1_ISR_ACTIVE) */
 349:Generated_Source\PSoC5/USBFS_1.c **** 
 350:Generated_Source\PSoC5/USBFS_1.c ****     /* Set Data Endpoint 2 Interrupt. */
 351:Generated_Source\PSoC5/USBFS_1.c ****     #if (USBFS_1_EP2_ISR_ACTIVE)
 352:Generated_Source\PSoC5/USBFS_1.c ****         CyIntSetPriority     (USBFS_1_EP_2_VECT_NUM,  USBFS_1_EP_2_PRIOR);
 353:Generated_Source\PSoC5/USBFS_1.c ****         (void) CyIntSetVector(USBFS_1_EP_2_VECT_NUM, &USBFS_1_EP_2_ISR);
 354:Generated_Source\PSoC5/USBFS_1.c ****     #endif /* (USBFS_1_EP2_ISR_ACTIVE) */
 355:Generated_Source\PSoC5/USBFS_1.c **** 
 356:Generated_Source\PSoC5/USBFS_1.c ****     /* Set Data Endpoint 3 Interrupt. */
 357:Generated_Source\PSoC5/USBFS_1.c ****     #if (USBFS_1_EP3_ISR_ACTIVE)
 358:Generated_Source\PSoC5/USBFS_1.c ****         CyIntSetPriority     (USBFS_1_EP_3_VECT_NUM,  USBFS_1_EP_3_PRIOR);
 359:Generated_Source\PSoC5/USBFS_1.c ****         (void) CyIntSetVector(USBFS_1_EP_3_VECT_NUM, &USBFS_1_EP_3_ISR);
 360:Generated_Source\PSoC5/USBFS_1.c ****     #endif /* (USBFS_1_EP3_ISR_ACTIVE) */
 361:Generated_Source\PSoC5/USBFS_1.c **** 
 362:Generated_Source\PSoC5/USBFS_1.c ****     /* Set Data Endpoint 4 Interrupt. */
 363:Generated_Source\PSoC5/USBFS_1.c ****     #if (USBFS_1_EP4_ISR_ACTIVE)
 364:Generated_Source\PSoC5/USBFS_1.c ****         CyIntSetPriority     (USBFS_1_EP_4_VECT_NUM,  USBFS_1_EP_4_PRIOR);
 365:Generated_Source\PSoC5/USBFS_1.c ****         (void) CyIntSetVector(USBFS_1_EP_4_VECT_NUM, &USBFS_1_EP_4_ISR);
 366:Generated_Source\PSoC5/USBFS_1.c ****     #endif /* (USBFS_1_EP4_ISR_ACTIVE) */
 367:Generated_Source\PSoC5/USBFS_1.c **** 
 368:Generated_Source\PSoC5/USBFS_1.c ****     /* Set Data Endpoint 5 Interrupt. */
 369:Generated_Source\PSoC5/USBFS_1.c ****     #if (USBFS_1_EP5_ISR_ACTIVE)
 370:Generated_Source\PSoC5/USBFS_1.c ****         CyIntSetPriority     (USBFS_1_EP_5_VECT_NUM,  USBFS_1_EP_5_PRIOR);
 371:Generated_Source\PSoC5/USBFS_1.c ****         (void) CyIntSetVector(USBFS_1_EP_5_VECT_NUM, &USBFS_1_EP_5_ISR);
 372:Generated_Source\PSoC5/USBFS_1.c ****     #endif /* (USBFS_1_EP5_ISR_ACTIVE) */
 373:Generated_Source\PSoC5/USBFS_1.c **** 
 374:Generated_Source\PSoC5/USBFS_1.c ****     /* Set Data Endpoint 6 Interrupt. */
 375:Generated_Source\PSoC5/USBFS_1.c ****     #if (USBFS_1_EP6_ISR_ACTIVE)
 376:Generated_Source\PSoC5/USBFS_1.c ****         CyIntSetPriority     (USBFS_1_EP_6_VECT_NUM,  USBFS_1_EP_6_PRIOR);
ARM GAS  C:\Users\oars0\AppData\Local\Temp\ccNqJowk.s 			page 12


 377:Generated_Source\PSoC5/USBFS_1.c ****         (void) CyIntSetVector(USBFS_1_EP_6_VECT_NUM, &USBFS_1_EP_6_ISR);
 378:Generated_Source\PSoC5/USBFS_1.c ****     #endif /* (USBFS_1_EP6_ISR_ACTIVE) */
 379:Generated_Source\PSoC5/USBFS_1.c **** 
 380:Generated_Source\PSoC5/USBFS_1.c ****      /* Set Data Endpoint 7 Interrupt. */
 381:Generated_Source\PSoC5/USBFS_1.c ****     #if (USBFS_1_EP7_ISR_ACTIVE)
 382:Generated_Source\PSoC5/USBFS_1.c ****         CyIntSetPriority     (USBFS_1_EP_7_VECT_NUM,  USBFS_1_EP_7_PRIOR);
 383:Generated_Source\PSoC5/USBFS_1.c ****         (void) CyIntSetVector(USBFS_1_EP_7_VECT_NUM, &USBFS_1_EP_7_ISR);
 384:Generated_Source\PSoC5/USBFS_1.c ****     #endif /* (USBFS_1_EP7_ISR_ACTIVE) */
 385:Generated_Source\PSoC5/USBFS_1.c **** 
 386:Generated_Source\PSoC5/USBFS_1.c ****     /* Set Data Endpoint 8 Interrupt. */
 387:Generated_Source\PSoC5/USBFS_1.c ****     #if (USBFS_1_EP8_ISR_ACTIVE)
 388:Generated_Source\PSoC5/USBFS_1.c ****         CyIntSetPriority     (USBFS_1_EP_8_VECT_NUM,  USBFS_1_EP_8_PRIOR);
 389:Generated_Source\PSoC5/USBFS_1.c ****         (void) CyIntSetVector(USBFS_1_EP_8_VECT_NUM, &USBFS_1_EP_8_ISR);
 390:Generated_Source\PSoC5/USBFS_1.c ****     #endif /* (USBFS_1_EP8_ISR_ACTIVE) */
 391:Generated_Source\PSoC5/USBFS_1.c **** 
 392:Generated_Source\PSoC5/USBFS_1.c ****     /* Set ARB Interrupt. */
 393:Generated_Source\PSoC5/USBFS_1.c ****     #if (USBFS_1_EP_MANAGEMENT_DMA && USBFS_1_ARB_ISR_ACTIVE)
 394:Generated_Source\PSoC5/USBFS_1.c ****         CyIntSetPriority     (USBFS_1_ARB_VECT_NUM,  USBFS_1_ARB_PRIOR);
 395:Generated_Source\PSoC5/USBFS_1.c ****         (void) CyIntSetVector(USBFS_1_ARB_VECT_NUM, &USBFS_1_ARB_ISR);
 396:Generated_Source\PSoC5/USBFS_1.c ****     #endif /* (USBFS_1_EP_MANAGEMENT_DMA && USBFS_1_ARB_ISR_ACTIVE) */
 397:Generated_Source\PSoC5/USBFS_1.c **** #endif /* (CY_PSOC4) */
 398:Generated_Source\PSoC5/USBFS_1.c **** 
 399:Generated_Source\PSoC5/USBFS_1.c ****     /* Common: Configure GPIO interrupt for wakeup. */
 400:Generated_Source\PSoC5/USBFS_1.c **** #if (USBFS_1_DP_ISR_ACTIVE)
 401:Generated_Source\PSoC5/USBFS_1.c ****     CyIntSetPriority     (USBFS_1_DP_INTC_VECT_NUM,  USBFS_1_DP_INTC_PRIORITY);
 252              		.loc 1 401 0
 253 0126 0721     		movs	r1, #7
 254 0128 0C20     		movs	r0, #12
 255 012a FFF7FEFF 		bl	CyIntSetPriority
 402:Generated_Source\PSoC5/USBFS_1.c ****     (void) CyIntSetVector(USBFS_1_DP_INTC_VECT_NUM, &USBFS_1_DP_ISR);
 256              		.loc 1 402 0
 257 012e 1249     		ldr	r1, .L6+56
 258 0130 0C20     		movs	r0, #12
 259 0132 FFF7FEFF 		bl	CyIntSetVector
 403:Generated_Source\PSoC5/USBFS_1.c **** #endif /* (USBFS_1_DP_ISR_ACTIVE) */
 404:Generated_Source\PSoC5/USBFS_1.c **** 
 405:Generated_Source\PSoC5/USBFS_1.c **** #if (USBFS_1_EP_MANAGEMENT_DMA && CY_PSOC4)
 406:Generated_Source\PSoC5/USBFS_1.c ****     /* Initialize DMA channels. */
 407:Generated_Source\PSoC5/USBFS_1.c ****     USBFS_1_InitEpDma();
 408:Generated_Source\PSoC5/USBFS_1.c **** #endif /* (USBFS_1_EP_MANAGEMENT_DMA && CY_PSOC4) */
 409:Generated_Source\PSoC5/USBFS_1.c **** }
 260              		.loc 1 409 0
 261 0136 00BF     		nop
 262 0138 0837     		adds	r7, r7, #8
 263              		.cfi_def_cfa_offset 8
 264 013a BD46     		mov	sp, r7
 265              		.cfi_def_cfa_register 13
 266              		@ sp needed
 267 013c 80BD     		pop	{r7, pc}
 268              	.L7:
 269 013e 00BF     		.align	2
 270              	.L6:
 271 0140 A5430040 		.word	1073759141
 272 0144 B5430040 		.word	1073759157
 273 0148 9D600040 		.word	1073766557
 274 014c 09600040 		.word	1073766409
 275 0150 10600040 		.word	1073766416
ARM GAS  C:\Users\oars0\AppData\Local\Temp\ccNqJowk.s 			page 13


 276 0154 94430040 		.word	1073759124
 277 0158 12600040 		.word	1073766418
 278 015c F8510040 		.word	1073762808
 279 0160 84600040 		.word	1073766532
 280 0164 85600040 		.word	1073766533
 281 0168 00000000 		.word	USBFS_1_BUS_RESET_ISR
 282 016c 00000000 		.word	USBFS_1_EP_0_ISR
 283 0170 00000000 		.word	USBFS_1_SOF_ISR
 284 0174 00000000 		.word	USBFS_1_EP_1_ISR
 285 0178 00000000 		.word	USBFS_1_DP_ISR
 286              		.cfi_endproc
 287              	.LFE1:
 288              		.size	USBFS_1_Init, .-USBFS_1_Init
 289              		.section	.text.USBFS_1_InitComponent,"ax",%progbits
 290              		.align	2
 291              		.global	USBFS_1_InitComponent
 292              		.thumb
 293              		.thumb_func
 294              		.type	USBFS_1_InitComponent, %function
 295              	USBFS_1_InitComponent:
 296              	.LFB2:
 410:Generated_Source\PSoC5/USBFS_1.c **** 
 411:Generated_Source\PSoC5/USBFS_1.c **** 
 412:Generated_Source\PSoC5/USBFS_1.c **** /*******************************************************************************
 413:Generated_Source\PSoC5/USBFS_1.c **** * Function Name: USBFS_1_InitComponent
 414:Generated_Source\PSoC5/USBFS_1.c **** ****************************************************************************//**
 415:Generated_Source\PSoC5/USBFS_1.c **** *
 416:Generated_Source\PSoC5/USBFS_1.c **** *   This function initializes the component’s global variables and initiates
 417:Generated_Source\PSoC5/USBFS_1.c **** *   communication with the host by pull-up D+ line.
 418:Generated_Source\PSoC5/USBFS_1.c **** *
 419:Generated_Source\PSoC5/USBFS_1.c **** * \param device:
 420:Generated_Source\PSoC5/USBFS_1.c **** *   Contains the device number of the desired device descriptor. The device
 421:Generated_Source\PSoC5/USBFS_1.c **** *   number can be found in the Device Descriptor Tab of "Configure" dialog,
 422:Generated_Source\PSoC5/USBFS_1.c **** *   under the settings of desired Device Descriptor, in the *Device Number*
 423:Generated_Source\PSoC5/USBFS_1.c **** *   field.
 424:Generated_Source\PSoC5/USBFS_1.c **** *  \param mode:
 425:Generated_Source\PSoC5/USBFS_1.c **** *   The operating voltage. This determines whether the voltage regulator
 426:Generated_Source\PSoC5/USBFS_1.c **** *   is enabled for 5V operation or if pass through mode is used for 3.3V
 427:Generated_Source\PSoC5/USBFS_1.c **** *   operation. Symbolic names and their associated values are given in the
 428:Generated_Source\PSoC5/USBFS_1.c **** *   following list.
 429:Generated_Source\PSoC5/USBFS_1.c **** *
 430:Generated_Source\PSoC5/USBFS_1.c **** *       *USBFS_1_3V_OPERATION* - Disable voltage regulator and pass-
 431:Generated_Source\PSoC5/USBFS_1.c **** *                                      through Vcc for pull-up
 432:Generated_Source\PSoC5/USBFS_1.c **** *
 433:Generated_Source\PSoC5/USBFS_1.c **** *       *USBFS_1_5V_OPERATION* - Enable voltage regulator and use
 434:Generated_Source\PSoC5/USBFS_1.c **** *                                      regulator for pull-up
 435:Generated_Source\PSoC5/USBFS_1.c **** *
 436:Generated_Source\PSoC5/USBFS_1.c **** *       *USBFS_1_DWR_POWER_OPERATION* - Enable or disable the voltage
 437:Generated_Source\PSoC5/USBFS_1.c **** *                                      regulator depending on the power supply
 438:Generated_Source\PSoC5/USBFS_1.c **** *                                      voltage configuration in the DWR tab.
 439:Generated_Source\PSoC5/USBFS_1.c **** *                                      For PSoC 3/5LP devices, the VDDD supply
 440:Generated_Source\PSoC5/USBFS_1.c **** *                                      voltage is considered and for PSoC 4A-L,
 441:Generated_Source\PSoC5/USBFS_1.c **** *                                      the VBUS supply voltage is considered.
 442:Generated_Source\PSoC5/USBFS_1.c **** *
 443:Generated_Source\PSoC5/USBFS_1.c **** * \globalvars
 444:Generated_Source\PSoC5/USBFS_1.c **** *   \ref USBFS_1_device
 445:Generated_Source\PSoC5/USBFS_1.c **** *   \ref USBFS_1_transferState
ARM GAS  C:\Users\oars0\AppData\Local\Temp\ccNqJowk.s 			page 14


 446:Generated_Source\PSoC5/USBFS_1.c **** *   \ref USBFS_1_configuration
 447:Generated_Source\PSoC5/USBFS_1.c **** *   \ref USBFS_1_deviceStatus
 448:Generated_Source\PSoC5/USBFS_1.c **** *
 449:Generated_Source\PSoC5/USBFS_1.c **** *   \ref USBFS_1_deviceAddress - Contains the current device address. This
 450:Generated_Source\PSoC5/USBFS_1.c **** *       variable is initialized to zero in this API. The Host starts to communicate
 451:Generated_Source\PSoC5/USBFS_1.c **** *      to the device with address 0 and then sets it to a whatever value using a
 452:Generated_Source\PSoC5/USBFS_1.c **** *      SET_ADDRESS request.
 453:Generated_Source\PSoC5/USBFS_1.c **** *
 454:Generated_Source\PSoC5/USBFS_1.c **** *   \ref USBFS_1_lastPacketSize - Initialized to 0;
 455:Generated_Source\PSoC5/USBFS_1.c **** *
 456:Generated_Source\PSoC5/USBFS_1.c **** * \reentrant
 457:Generated_Source\PSoC5/USBFS_1.c **** *  No.
 458:Generated_Source\PSoC5/USBFS_1.c **** *
 459:Generated_Source\PSoC5/USBFS_1.c **** *******************************************************************************/
 460:Generated_Source\PSoC5/USBFS_1.c **** void USBFS_1_InitComponent(uint8 device, uint8 mode) 
 461:Generated_Source\PSoC5/USBFS_1.c **** {
 297              		.loc 1 461 0
 298              		.cfi_startproc
 299              		@ args = 0, pretend = 0, frame = 16
 300              		@ frame_needed = 1, uses_anonymous_args = 0
 301 0000 80B5     		push	{r7, lr}
 302              		.cfi_def_cfa_offset 8
 303              		.cfi_offset 7, -8
 304              		.cfi_offset 14, -4
 305 0002 84B0     		sub	sp, sp, #16
 306              		.cfi_def_cfa_offset 24
 307 0004 00AF     		add	r7, sp, #0
 308              		.cfi_def_cfa_register 7
 309 0006 0346     		mov	r3, r0
 310 0008 0A46     		mov	r2, r1
 311 000a FB71     		strb	r3, [r7, #7]
 312 000c 1346     		mov	r3, r2
 313 000e BB71     		strb	r3, [r7, #6]
 462:Generated_Source\PSoC5/USBFS_1.c ****     /* Initialize _hidProtocol variable to comply with
 463:Generated_Source\PSoC5/USBFS_1.c ****     *  HID 7.2.6 Set_Protocol Request:
 464:Generated_Source\PSoC5/USBFS_1.c ****     *  "When initialized, all devices default to report protocol."
 465:Generated_Source\PSoC5/USBFS_1.c ****     */
 466:Generated_Source\PSoC5/USBFS_1.c **** #if defined(USBFS_1_ENABLE_HID_CLASS)
 467:Generated_Source\PSoC5/USBFS_1.c ****     uint8 i;
 468:Generated_Source\PSoC5/USBFS_1.c **** 
 469:Generated_Source\PSoC5/USBFS_1.c ****     for (i = 0u; i < USBFS_1_MAX_INTERFACES_NUMBER; i++)
 314              		.loc 1 469 0
 315 0010 0023     		movs	r3, #0
 316 0012 FB73     		strb	r3, [r7, #15]
 317 0014 06E0     		b	.L9
 318              	.L10:
 470:Generated_Source\PSoC5/USBFS_1.c ****     {
 471:Generated_Source\PSoC5/USBFS_1.c ****         USBFS_1_hidProtocol[i] = USBFS_1_PROTOCOL_REPORT;
 319              		.loc 1 471 0 discriminator 3
 320 0016 FB7B     		ldrb	r3, [r7, #15]	@ zero_extendqisi2
 321 0018 304A     		ldr	r2, .L16
 322 001a 0121     		movs	r1, #1
 323 001c D154     		strb	r1, [r2, r3]
 469:Generated_Source\PSoC5/USBFS_1.c ****     {
 324              		.loc 1 469 0 discriminator 3
 325 001e FB7B     		ldrb	r3, [r7, #15]	@ zero_extendqisi2
 326 0020 0133     		adds	r3, r3, #1
ARM GAS  C:\Users\oars0\AppData\Local\Temp\ccNqJowk.s 			page 15


 327 0022 FB73     		strb	r3, [r7, #15]
 328              	.L9:
 469:Generated_Source\PSoC5/USBFS_1.c ****     {
 329              		.loc 1 469 0 is_stmt 0 discriminator 1
 330 0024 FB7B     		ldrb	r3, [r7, #15]	@ zero_extendqisi2
 331 0026 002B     		cmp	r3, #0
 332 0028 F5D0     		beq	.L10
 472:Generated_Source\PSoC5/USBFS_1.c ****     }
 473:Generated_Source\PSoC5/USBFS_1.c **** #endif /* USBFS_1_ENABLE_HID_CLASS */
 474:Generated_Source\PSoC5/USBFS_1.c **** 
 475:Generated_Source\PSoC5/USBFS_1.c ****     /* Store device number to access descriptor. */
 476:Generated_Source\PSoC5/USBFS_1.c ****     USBFS_1_device = device;
 333              		.loc 1 476 0 is_stmt 1
 334 002a 2D4A     		ldr	r2, .L16+4
 335 002c FB79     		ldrb	r3, [r7, #7]
 336 002e 1370     		strb	r3, [r2]
 477:Generated_Source\PSoC5/USBFS_1.c **** 
 478:Generated_Source\PSoC5/USBFS_1.c ****     /* Reset component internal variables. */
 479:Generated_Source\PSoC5/USBFS_1.c ****     USBFS_1_transferState   = USBFS_1_TRANS_STATE_IDLE;
 337              		.loc 1 479 0
 338 0030 2C4B     		ldr	r3, .L16+8
 339 0032 0022     		movs	r2, #0
 340 0034 1A70     		strb	r2, [r3]
 480:Generated_Source\PSoC5/USBFS_1.c ****     USBFS_1_configurationChanged = 0u;
 341              		.loc 1 480 0
 342 0036 2C4B     		ldr	r3, .L16+12
 343 0038 0022     		movs	r2, #0
 344 003a 1A70     		strb	r2, [r3]
 481:Generated_Source\PSoC5/USBFS_1.c ****     USBFS_1_configuration   = 0u;
 345              		.loc 1 481 0
 346 003c 2B4B     		ldr	r3, .L16+16
 347 003e 0022     		movs	r2, #0
 348 0040 1A70     		strb	r2, [r3]
 482:Generated_Source\PSoC5/USBFS_1.c ****     USBFS_1_interfaceNumber = 0u;
 349              		.loc 1 482 0
 350 0042 2B4B     		ldr	r3, .L16+20
 351 0044 0022     		movs	r2, #0
 352 0046 1A70     		strb	r2, [r3]
 483:Generated_Source\PSoC5/USBFS_1.c ****     USBFS_1_deviceAddress   = 0u;
 353              		.loc 1 483 0
 354 0048 2A4B     		ldr	r3, .L16+24
 355 004a 0022     		movs	r2, #0
 356 004c 1A70     		strb	r2, [r3]
 484:Generated_Source\PSoC5/USBFS_1.c ****     USBFS_1_deviceStatus    = 0u;
 357              		.loc 1 484 0
 358 004e 2A4B     		ldr	r3, .L16+28
 359 0050 0022     		movs	r2, #0
 360 0052 1A70     		strb	r2, [r3]
 485:Generated_Source\PSoC5/USBFS_1.c ****     USBFS_1_lastPacketSize  = 0u;
 361              		.loc 1 485 0
 362 0054 294B     		ldr	r3, .L16+32
 363 0056 0022     		movs	r2, #0
 364 0058 1A70     		strb	r2, [r3]
 486:Generated_Source\PSoC5/USBFS_1.c **** 
 487:Generated_Source\PSoC5/USBFS_1.c ****     /* Enable component interrupts. */
 488:Generated_Source\PSoC5/USBFS_1.c **** #if (CY_PSOC4)
 489:Generated_Source\PSoC5/USBFS_1.c ****     CyIntEnable(USBFS_1_INTR_HI_VECT_NUM);
ARM GAS  C:\Users\oars0\AppData\Local\Temp\ccNqJowk.s 			page 16


 490:Generated_Source\PSoC5/USBFS_1.c ****     CyIntEnable(USBFS_1_INTR_MED_VECT_NUM);
 491:Generated_Source\PSoC5/USBFS_1.c ****     CyIntEnable(USBFS_1_INTR_LO_VECT_NUM);
 492:Generated_Source\PSoC5/USBFS_1.c **** #else
 493:Generated_Source\PSoC5/USBFS_1.c ****     CyIntEnable(USBFS_1_BUS_RESET_VECT_NUM);
 365              		.loc 1 493 0
 366 005a 294B     		ldr	r3, .L16+36
 367 005c 4FF40002 		mov	r2, #8388608
 368 0060 1A60     		str	r2, [r3]
 494:Generated_Source\PSoC5/USBFS_1.c ****     CyIntEnable(USBFS_1_EP_0_VECT_NUM);
 369              		.loc 1 494 0
 370 0062 274B     		ldr	r3, .L16+36
 371 0064 4FF08072 		mov	r2, #16777216
 372 0068 1A60     		str	r2, [r3]
 495:Generated_Source\PSoC5/USBFS_1.c **** 
 496:Generated_Source\PSoC5/USBFS_1.c ****     #if (USBFS_1_SOF_ISR_ACTIVE)
 497:Generated_Source\PSoC5/USBFS_1.c ****         CyIntEnable(USBFS_1_SOF_VECT_NUM);
 373              		.loc 1 497 0
 374 006a 254B     		ldr	r3, .L16+36
 375 006c 4FF40012 		mov	r2, #2097152
 376 0070 1A60     		str	r2, [r3]
 498:Generated_Source\PSoC5/USBFS_1.c ****     #endif /* (USBFS_1_SOF_ISR_ACTIVE) */
 499:Generated_Source\PSoC5/USBFS_1.c **** 
 500:Generated_Source\PSoC5/USBFS_1.c ****     #if (USBFS_1_EP1_ISR_ACTIVE)
 501:Generated_Source\PSoC5/USBFS_1.c ****         CyIntEnable(USBFS_1_EP_1_VECT_NUM);
 377              		.loc 1 501 0
 378 0072 234B     		ldr	r3, .L16+36
 379 0074 0222     		movs	r2, #2
 380 0076 1A60     		str	r2, [r3]
 502:Generated_Source\PSoC5/USBFS_1.c ****     #endif /* (USBFS_1_EP1_ISR_ACTIVE) */
 503:Generated_Source\PSoC5/USBFS_1.c **** 
 504:Generated_Source\PSoC5/USBFS_1.c ****     #if (USBFS_1_EP2_ISR_ACTIVE)
 505:Generated_Source\PSoC5/USBFS_1.c ****         CyIntEnable(USBFS_1_EP_2_VECT_NUM);
 506:Generated_Source\PSoC5/USBFS_1.c ****     #endif /* (USBFS_1_EP5_ISR_ACTIVE) */
 507:Generated_Source\PSoC5/USBFS_1.c **** 
 508:Generated_Source\PSoC5/USBFS_1.c ****     #if (USBFS_1_EP3_ISR_ACTIVE)
 509:Generated_Source\PSoC5/USBFS_1.c ****         CyIntEnable(USBFS_1_EP_3_VECT_NUM);
 510:Generated_Source\PSoC5/USBFS_1.c ****     #endif /* (USBFS_1_EP5_ISR_ACTIVE) */
 511:Generated_Source\PSoC5/USBFS_1.c **** 
 512:Generated_Source\PSoC5/USBFS_1.c ****     #if (USBFS_1_EP4_ISR_ACTIVE)
 513:Generated_Source\PSoC5/USBFS_1.c ****         CyIntEnable(USBFS_1_EP_4_VECT_NUM);
 514:Generated_Source\PSoC5/USBFS_1.c ****     #endif /* (USBFS_1_EP5_ISR_ACTIVE) */
 515:Generated_Source\PSoC5/USBFS_1.c **** 
 516:Generated_Source\PSoC5/USBFS_1.c ****     #if (USBFS_1_EP5_ISR_ACTIVE)
 517:Generated_Source\PSoC5/USBFS_1.c ****         CyIntEnable(USBFS_1_EP_5_VECT_NUM);
 518:Generated_Source\PSoC5/USBFS_1.c ****     #endif /* (USBFS_1_EP5_ISR_ACTIVE) */
 519:Generated_Source\PSoC5/USBFS_1.c **** 
 520:Generated_Source\PSoC5/USBFS_1.c ****     #if (USBFS_1_EP6_ISR_ACTIVE)
 521:Generated_Source\PSoC5/USBFS_1.c ****         CyIntEnable(USBFS_1_EP_6_VECT_NUM);
 522:Generated_Source\PSoC5/USBFS_1.c ****     #endif /* USBFS_1_EP6_ISR_REMOVE */
 523:Generated_Source\PSoC5/USBFS_1.c **** 
 524:Generated_Source\PSoC5/USBFS_1.c ****     #if (USBFS_1_EP7_ISR_ACTIVE)
 525:Generated_Source\PSoC5/USBFS_1.c ****         CyIntEnable(USBFS_1_EP_7_VECT_NUM);
 526:Generated_Source\PSoC5/USBFS_1.c ****     #endif /* (USBFS_1_EP7_ISR_ACTIVE) */
 527:Generated_Source\PSoC5/USBFS_1.c **** 
 528:Generated_Source\PSoC5/USBFS_1.c ****     #if (USBFS_1_EP8_ISR_ACTIVE)
 529:Generated_Source\PSoC5/USBFS_1.c ****         CyIntEnable(USBFS_1_EP_8_VECT_NUM);
 530:Generated_Source\PSoC5/USBFS_1.c ****     #endif /* (USBFS_1_EP8_ISR_ACTIVE) */
ARM GAS  C:\Users\oars0\AppData\Local\Temp\ccNqJowk.s 			page 17


 531:Generated_Source\PSoC5/USBFS_1.c **** #endif /* (CY_PSOC4) */
 532:Generated_Source\PSoC5/USBFS_1.c **** 
 533:Generated_Source\PSoC5/USBFS_1.c **** #if (USBFS_1_EP_MANAGEMENT_DMA && USBFS_1_ARB_ISR_ACTIVE)
 534:Generated_Source\PSoC5/USBFS_1.c ****     /* Enable ARB EP interrupt sources. */
 535:Generated_Source\PSoC5/USBFS_1.c ****     USBFS_1_ARB_INT_EN_REG = USBFS_1_DEFAULT_ARB_INT_EN;
 536:Generated_Source\PSoC5/USBFS_1.c **** 
 537:Generated_Source\PSoC5/USBFS_1.c ****     #if (CY_PSOC3 || CY_PSOC5)
 538:Generated_Source\PSoC5/USBFS_1.c ****         CyIntEnable(USBFS_1_ARB_VECT_NUM);
 539:Generated_Source\PSoC5/USBFS_1.c ****     #endif /* (CY_PSOC3 || CY_PSOC5) */
 540:Generated_Source\PSoC5/USBFS_1.c **** #endif   /* (USBFS_1_EP_MANAGEMENT_DMA && USBFS_1_ARB_ISR_ACTIVE) */
 541:Generated_Source\PSoC5/USBFS_1.c **** 
 542:Generated_Source\PSoC5/USBFS_1.c **** /* Arbiter configuration for DMA transfers. */
 543:Generated_Source\PSoC5/USBFS_1.c **** #if (USBFS_1_EP_MANAGEMENT_DMA)
 544:Generated_Source\PSoC5/USBFS_1.c ****     /* Configure Arbiter for Manual or Auto DMA operation and clear configuration completion. */
 545:Generated_Source\PSoC5/USBFS_1.c ****     USBFS_1_ARB_CFG_REG = USBFS_1_DEFAULT_ARB_CFG;
 546:Generated_Source\PSoC5/USBFS_1.c **** 
 547:Generated_Source\PSoC5/USBFS_1.c ****     #if (CY_PSOC4)
 548:Generated_Source\PSoC5/USBFS_1.c ****         /* Enable DMA operation. */
 549:Generated_Source\PSoC5/USBFS_1.c ****         CyDmaEnable();
 550:Generated_Source\PSoC5/USBFS_1.c **** 
 551:Generated_Source\PSoC5/USBFS_1.c ****         #if (USBFS_1_EP_MANAGEMENT_DMA_AUTO)
 552:Generated_Source\PSoC5/USBFS_1.c ****             /* Change DMA priority to be highest. */
 553:Generated_Source\PSoC5/USBFS_1.c ****              CyIntSetPriority(CYDMA_INTR_NUMBER, USBFS_1_DMA_AUTO_INTR_PRIO);
 554:Generated_Source\PSoC5/USBFS_1.c ****         #endif /* (USBFS_1_EP_MANAGEMENT_DMA_AUTO) */
 555:Generated_Source\PSoC5/USBFS_1.c ****     #endif /* (CY_PSOC4) */
 556:Generated_Source\PSoC5/USBFS_1.c **** 
 557:Generated_Source\PSoC5/USBFS_1.c ****     #if (USBFS_1_EP_MANAGEMENT_DMA_AUTO)
 558:Generated_Source\PSoC5/USBFS_1.c ****         #if (CY_PSOC4)
 559:Generated_Source\PSoC5/USBFS_1.c ****             /* Enable DMA interrupt to handle DMA management. */
 560:Generated_Source\PSoC5/USBFS_1.c ****             CyIntEnable(CYDMA_INTR_NUMBER);
 561:Generated_Source\PSoC5/USBFS_1.c ****         #else
 562:Generated_Source\PSoC5/USBFS_1.c ****             #if (USBFS_1_EP_DMA_AUTO_OPT == 0u)
 563:Generated_Source\PSoC5/USBFS_1.c ****                 /* Initialize interrupts which handle verification of successful DMA transaction. *
 564:Generated_Source\PSoC5/USBFS_1.c ****                 USBFS_1_EP_DMA_Done_isr_StartEx(&USBFS_1_EP_DMA_DONE_ISR);
 565:Generated_Source\PSoC5/USBFS_1.c ****                 USBFS_1_EP17_DMA_Done_SR_InterruptEnable();
 566:Generated_Source\PSoC5/USBFS_1.c ****                 USBFS_1_EP8_DMA_Done_SR_InterruptEnable();
 567:Generated_Source\PSoC5/USBFS_1.c ****             #endif /* (USBFS_1_EP_DMA_AUTO_OPT == 0u) */
 568:Generated_Source\PSoC5/USBFS_1.c ****         #endif /* (CY_PSOC4) */
 569:Generated_Source\PSoC5/USBFS_1.c ****     #endif /* (USBFS_1_EP_MANAGEMENT_DMA_AUTO) */
 570:Generated_Source\PSoC5/USBFS_1.c **** #endif /* (USBFS_1_EP_MANAGEMENT_DMA) */
 571:Generated_Source\PSoC5/USBFS_1.c **** 
 572:Generated_Source\PSoC5/USBFS_1.c ****     /* Enable USB regulator depends on operation voltage. IMO Locking is enabled in Init(). */
 573:Generated_Source\PSoC5/USBFS_1.c ****     switch(mode)
 381              		.loc 1 573 0
 382 0078 BB79     		ldrb	r3, [r7, #6]	@ zero_extendqisi2
 383 007a 002B     		cmp	r3, #0
 384 007c 02D0     		beq	.L12
 385 007e 012B     		cmp	r3, #1
 386 0080 09D0     		beq	.L13
 387 0082 11E0     		b	.L15
 388              	.L12:
 574:Generated_Source\PSoC5/USBFS_1.c ****     {
 575:Generated_Source\PSoC5/USBFS_1.c ****     case USBFS_1_3V_OPERATION:
 576:Generated_Source\PSoC5/USBFS_1.c ****         /* Disable regulator for 3V operation. */
 577:Generated_Source\PSoC5/USBFS_1.c ****         USBFS_1_CR1_REG &= (uint8) ~USBFS_1_CR1_REG_ENABLE;
 389              		.loc 1 577 0
 390 0084 1F4A     		ldr	r2, .L16+40
ARM GAS  C:\Users\oars0\AppData\Local\Temp\ccNqJowk.s 			page 18


 391 0086 1F4B     		ldr	r3, .L16+40
 392 0088 1B78     		ldrb	r3, [r3]
 393 008a DBB2     		uxtb	r3, r3
 394 008c 23F00103 		bic	r3, r3, #1
 395 0090 DBB2     		uxtb	r3, r3
 396 0092 1370     		strb	r3, [r2]
 578:Generated_Source\PSoC5/USBFS_1.c ****         break;
 397              		.loc 1 578 0
 398 0094 11E0     		b	.L14
 399              	.L13:
 579:Generated_Source\PSoC5/USBFS_1.c **** 
 580:Generated_Source\PSoC5/USBFS_1.c ****     case USBFS_1_5V_OPERATION:
 581:Generated_Source\PSoC5/USBFS_1.c ****         /* Enable regulator for 5V operation. */
 582:Generated_Source\PSoC5/USBFS_1.c ****         USBFS_1_CR1_REG |= (uint8)  USBFS_1_CR1_REG_ENABLE;
 400              		.loc 1 582 0
 401 0096 1B4A     		ldr	r2, .L16+40
 402 0098 1A4B     		ldr	r3, .L16+40
 403 009a 1B78     		ldrb	r3, [r3]
 404 009c DBB2     		uxtb	r3, r3
 405 009e 43F00103 		orr	r3, r3, #1
 406 00a2 DBB2     		uxtb	r3, r3
 407 00a4 1370     		strb	r3, [r2]
 583:Generated_Source\PSoC5/USBFS_1.c ****         break;
 408              		.loc 1 583 0
 409 00a6 08E0     		b	.L14
 410              	.L15:
 584:Generated_Source\PSoC5/USBFS_1.c **** 
 585:Generated_Source\PSoC5/USBFS_1.c ****     default: /* Check DWR settings of USB power supply. */
 586:Generated_Source\PSoC5/USBFS_1.c ****     #if (USBFS_1_VDDD_MV < USBFS_1_3500MV)
 587:Generated_Source\PSoC5/USBFS_1.c ****         /* Disable regulator for 3V operation. */
 588:Generated_Source\PSoC5/USBFS_1.c ****         USBFS_1_CR1_REG &= (uint8) ~USBFS_1_CR1_REG_ENABLE;
 589:Generated_Source\PSoC5/USBFS_1.c ****     #else
 590:Generated_Source\PSoC5/USBFS_1.c ****         /* Enable regulator for 5V operation. */
 591:Generated_Source\PSoC5/USBFS_1.c ****         USBFS_1_CR1_REG |= (uint8)  USBFS_1_CR1_REG_ENABLE;
 411              		.loc 1 591 0
 412 00a8 164A     		ldr	r2, .L16+40
 413 00aa 164B     		ldr	r3, .L16+40
 414 00ac 1B78     		ldrb	r3, [r3]
 415 00ae DBB2     		uxtb	r3, r3
 416 00b0 43F00103 		orr	r3, r3, #1
 417 00b4 DBB2     		uxtb	r3, r3
 418 00b6 1370     		strb	r3, [r2]
 592:Generated_Source\PSoC5/USBFS_1.c ****     #endif /* (USBFS_1_VDDD_MV < USBFS_1_3500MV) */
 593:Generated_Source\PSoC5/USBFS_1.c ****         break;
 419              		.loc 1 593 0
 420 00b8 00BF     		nop
 421              	.L14:
 594:Generated_Source\PSoC5/USBFS_1.c ****     }
 595:Generated_Source\PSoC5/USBFS_1.c **** 
 596:Generated_Source\PSoC5/USBFS_1.c **** #if (CY_PSOC4)
 597:Generated_Source\PSoC5/USBFS_1.c ****     /* Clear bus activity. */
 598:Generated_Source\PSoC5/USBFS_1.c ****     USBFS_1_CR1_REG &= (uint32) ~USBFS_1_CR1_BUS_ACTIVITY;
 599:Generated_Source\PSoC5/USBFS_1.c **** 
 600:Generated_Source\PSoC5/USBFS_1.c ****     /* Clear EP0 count register. */
 601:Generated_Source\PSoC5/USBFS_1.c ****     USBFS_1_EP0_CNT_REG = USBFS_1_CLEAR_REG;
 602:Generated_Source\PSoC5/USBFS_1.c **** 
 603:Generated_Source\PSoC5/USBFS_1.c ****     /* Set EP0.CR: ACK Setup, NAK IN/OUT. */
ARM GAS  C:\Users\oars0\AppData\Local\Temp\ccNqJowk.s 			page 19


 604:Generated_Source\PSoC5/USBFS_1.c ****     USBFS_1_EP0_CR_REG = USBFS_1_MODE_NAK_IN_OUT;
 605:Generated_Source\PSoC5/USBFS_1.c **** 
 606:Generated_Source\PSoC5/USBFS_1.c ****     #if (USBFS_1_LPM_ACTIVE)
 607:Generated_Source\PSoC5/USBFS_1.c ****         if (NULL != USBFS_1_GetBOSPtr())
 608:Generated_Source\PSoC5/USBFS_1.c ****         {
 609:Generated_Source\PSoC5/USBFS_1.c ****             /* Enable LPM and acknowledge LPM packets for active device.
 610:Generated_Source\PSoC5/USBFS_1.c ****             * Reset NYET_EN and SUB_RESP bits in the LPM_CTRL register.
 611:Generated_Source\PSoC5/USBFS_1.c ****             */
 612:Generated_Source\PSoC5/USBFS_1.c ****             USBFS_1_LPM_CTRL_REG = (USBFS_1_LPM_CTRL_LPM_EN | \
 613:Generated_Source\PSoC5/USBFS_1.c ****                                              USBFS_1_LPM_CTRL_LPM_ACK_RESP);
 614:Generated_Source\PSoC5/USBFS_1.c ****         }
 615:Generated_Source\PSoC5/USBFS_1.c ****         else
 616:Generated_Source\PSoC5/USBFS_1.c ****         {
 617:Generated_Source\PSoC5/USBFS_1.c ****             /* Disable LPM for active device. */
 618:Generated_Source\PSoC5/USBFS_1.c ****             USBFS_1_LPM_CTRL_REG &= (uint32) ~USBFS_1_LPM_CTRL_LPM_EN;
 619:Generated_Source\PSoC5/USBFS_1.c ****         }
 620:Generated_Source\PSoC5/USBFS_1.c ****     #endif /* (USBFS_1_LPM_ACTIVE) */
 621:Generated_Source\PSoC5/USBFS_1.c **** 
 622:Generated_Source\PSoC5/USBFS_1.c ****     /* Enable device to responds to USB traffic with address 0. */
 623:Generated_Source\PSoC5/USBFS_1.c ****     USBFS_1_CR0_REG = USBFS_1_DEFUALT_CR0;
 624:Generated_Source\PSoC5/USBFS_1.c **** 
 625:Generated_Source\PSoC5/USBFS_1.c **** #else
 626:Generated_Source\PSoC5/USBFS_1.c ****     /* Set EP0.CR: ACK Setup, STALL IN/OUT. */
 627:Generated_Source\PSoC5/USBFS_1.c ****     USBFS_1_EP0_CR_REG = USBFS_1_MODE_STALL_IN_OUT;
 422              		.loc 1 627 0
 423 00ba 134B     		ldr	r3, .L16+44
 424 00bc 0322     		movs	r2, #3
 425 00be 1A70     		strb	r2, [r3]
 628:Generated_Source\PSoC5/USBFS_1.c **** 
 629:Generated_Source\PSoC5/USBFS_1.c ****     /* Enable device to respond to USB traffic with address 0. */
 630:Generated_Source\PSoC5/USBFS_1.c ****     USBFS_1_CR0_REG = USBFS_1_DEFUALT_CR0;
 426              		.loc 1 630 0
 427 00c0 124B     		ldr	r3, .L16+48
 428 00c2 8022     		movs	r2, #128
 429 00c4 1A70     		strb	r2, [r3]
 631:Generated_Source\PSoC5/USBFS_1.c ****     CyDelayCycles(USBFS_1_WAIT_CR0_REG_STABILITY);
 430              		.loc 1 631 0
 431 00c6 0120     		movs	r0, #1
 432 00c8 FFF7FEFF 		bl	CyDelayCycles
 632:Generated_Source\PSoC5/USBFS_1.c **** #endif /* (CY_PSOC4) */
 633:Generated_Source\PSoC5/USBFS_1.c **** 
 634:Generated_Source\PSoC5/USBFS_1.c ****     /* Enable D+ pull-up and keep USB control on IO. */
 635:Generated_Source\PSoC5/USBFS_1.c ****     USBFS_1_USBIO_CR1_REG = USBFS_1_USBIO_CR1_USBPUEN;
 433              		.loc 1 635 0
 434 00cc 104B     		ldr	r3, .L16+52
 435 00ce 0422     		movs	r2, #4
 436 00d0 1A70     		strb	r2, [r3]
 636:Generated_Source\PSoC5/USBFS_1.c **** }
 437              		.loc 1 636 0
 438 00d2 00BF     		nop
 439 00d4 1037     		adds	r7, r7, #16
 440              		.cfi_def_cfa_offset 8
 441 00d6 BD46     		mov	sp, r7
 442              		.cfi_def_cfa_register 13
 443              		@ sp needed
 444 00d8 80BD     		pop	{r7, pc}
 445              	.L17:
ARM GAS  C:\Users\oars0\AppData\Local\Temp\ccNqJowk.s 			page 20


 446 00da 00BF     		.align	2
 447              	.L16:
 448 00dc 00000000 		.word	USBFS_1_hidProtocol
 449 00e0 00000000 		.word	USBFS_1_device
 450 00e4 00000000 		.word	USBFS_1_transferState
 451 00e8 00000000 		.word	USBFS_1_configurationChanged
 452 00ec 00000000 		.word	USBFS_1_configuration
 453 00f0 00000000 		.word	USBFS_1_interfaceNumber
 454 00f4 00000000 		.word	USBFS_1_deviceAddress
 455 00f8 00000000 		.word	USBFS_1_deviceStatus
 456 00fc 00000000 		.word	USBFS_1_lastPacketSize
 457 0100 00E100E0 		.word	-536813312
 458 0104 09600040 		.word	1073766409
 459 0108 28600040 		.word	1073766440
 460 010c 08600040 		.word	1073766408
 461 0110 12600040 		.word	1073766418
 462              		.cfi_endproc
 463              	.LFE2:
 464              		.size	USBFS_1_InitComponent, .-USBFS_1_InitComponent
 465              		.section	.text.USBFS_1_ReInitComponent,"ax",%progbits
 466              		.align	2
 467              		.global	USBFS_1_ReInitComponent
 468              		.thumb
 469              		.thumb_func
 470              		.type	USBFS_1_ReInitComponent, %function
 471              	USBFS_1_ReInitComponent:
 472              	.LFB3:
 637:Generated_Source\PSoC5/USBFS_1.c **** 
 638:Generated_Source\PSoC5/USBFS_1.c **** 
 639:Generated_Source\PSoC5/USBFS_1.c **** /*******************************************************************************
 640:Generated_Source\PSoC5/USBFS_1.c **** * Function Name: USBFS_1_ReInitComponent
 641:Generated_Source\PSoC5/USBFS_1.c **** ****************************************************************************//**
 642:Generated_Source\PSoC5/USBFS_1.c **** *
 643:Generated_Source\PSoC5/USBFS_1.c **** *  This function reinitialize the component configuration and is
 644:Generated_Source\PSoC5/USBFS_1.c **** *  intend to be called from the Reset interrupt.
 645:Generated_Source\PSoC5/USBFS_1.c **** *
 646:Generated_Source\PSoC5/USBFS_1.c **** * \globalvars
 647:Generated_Source\PSoC5/USBFS_1.c **** *   USBFS_1_device - Contains the device number of the desired Device
 648:Generated_Source\PSoC5/USBFS_1.c **** *        Descriptor. The device number can be found in the Device Descriptor tab
 649:Generated_Source\PSoC5/USBFS_1.c **** *       of the Configure dialog, under the settings of the desired Device Descriptor,
 650:Generated_Source\PSoC5/USBFS_1.c **** *       in the Device Number field.
 651:Generated_Source\PSoC5/USBFS_1.c **** *   USBFS_1_transferState - This variable is used by the communication
 652:Generated_Source\PSoC5/USBFS_1.c **** *       functions to handle the current transfer state. Initialized to
 653:Generated_Source\PSoC5/USBFS_1.c **** *       TRANS_STATE_IDLE in this API.
 654:Generated_Source\PSoC5/USBFS_1.c **** *   USBFS_1_configuration - Contains the current configuration number
 655:Generated_Source\PSoC5/USBFS_1.c **** *       set by the Host using a SET_CONFIGURATION request.
 656:Generated_Source\PSoC5/USBFS_1.c **** *       Initialized to zero in this API.
 657:Generated_Source\PSoC5/USBFS_1.c **** *   USBFS_1_deviceAddress - Contains the current device address. This
 658:Generated_Source\PSoC5/USBFS_1.c **** *       variable is initialized to zero in this API. The Host starts to communicate
 659:Generated_Source\PSoC5/USBFS_1.c **** *      to the device with address 0 and then sets it to a whatever value using
 660:Generated_Source\PSoC5/USBFS_1.c **** *      a SET_ADDRESS request.
 661:Generated_Source\PSoC5/USBFS_1.c **** *   USBFS_1_deviceStatus - Initialized to 0.
 662:Generated_Source\PSoC5/USBFS_1.c **** *       This is a two-bit variable which contains the power status in the first bit
 663:Generated_Source\PSoC5/USBFS_1.c **** *       (DEVICE_STATUS_BUS_POWERED or DEVICE_STATUS_SELF_POWERED) and the remote
 664:Generated_Source\PSoC5/USBFS_1.c **** *       wakeup status (DEVICE_STATUS_REMOTE_WAKEUP) in the second bit.
 665:Generated_Source\PSoC5/USBFS_1.c **** *   USBFS_1_lastPacketSize - Initialized to 0;
 666:Generated_Source\PSoC5/USBFS_1.c **** *
ARM GAS  C:\Users\oars0\AppData\Local\Temp\ccNqJowk.s 			page 21


 667:Generated_Source\PSoC5/USBFS_1.c **** * \reentrant
 668:Generated_Source\PSoC5/USBFS_1.c **** *  No.
 669:Generated_Source\PSoC5/USBFS_1.c **** *
 670:Generated_Source\PSoC5/USBFS_1.c **** *******************************************************************************/
 671:Generated_Source\PSoC5/USBFS_1.c **** void USBFS_1_ReInitComponent(void) 
 672:Generated_Source\PSoC5/USBFS_1.c **** {
 473              		.loc 1 672 0
 474              		.cfi_startproc
 475              		@ args = 0, pretend = 0, frame = 8
 476              		@ frame_needed = 1, uses_anonymous_args = 0
 477              		@ link register save eliminated.
 478 0000 80B4     		push	{r7}
 479              		.cfi_def_cfa_offset 4
 480              		.cfi_offset 7, -4
 481 0002 83B0     		sub	sp, sp, #12
 482              		.cfi_def_cfa_offset 16
 483 0004 00AF     		add	r7, sp, #0
 484              		.cfi_def_cfa_register 7
 673:Generated_Source\PSoC5/USBFS_1.c ****     /* Initialize _hidProtocol variable to comply with HID 7.2.6 Set_Protocol
 674:Generated_Source\PSoC5/USBFS_1.c ****     *  Request: "When initialized, all devices default to report protocol."
 675:Generated_Source\PSoC5/USBFS_1.c ****     */
 676:Generated_Source\PSoC5/USBFS_1.c **** #if defined(USBFS_1_ENABLE_HID_CLASS)
 677:Generated_Source\PSoC5/USBFS_1.c ****     uint8 i;
 678:Generated_Source\PSoC5/USBFS_1.c **** 
 679:Generated_Source\PSoC5/USBFS_1.c ****     for (i = 0u; i < USBFS_1_MAX_INTERFACES_NUMBER; i++)
 485              		.loc 1 679 0
 486 0006 0023     		movs	r3, #0
 487 0008 FB71     		strb	r3, [r7, #7]
 488 000a 06E0     		b	.L19
 489              	.L20:
 680:Generated_Source\PSoC5/USBFS_1.c ****     {
 681:Generated_Source\PSoC5/USBFS_1.c ****         USBFS_1_hidProtocol[i] = USBFS_1_PROTOCOL_REPORT;
 490              		.loc 1 681 0 discriminator 3
 491 000c FB79     		ldrb	r3, [r7, #7]	@ zero_extendqisi2
 492 000e 144A     		ldr	r2, .L21
 493 0010 0121     		movs	r1, #1
 494 0012 D154     		strb	r1, [r2, r3]
 679:Generated_Source\PSoC5/USBFS_1.c ****     {
 495              		.loc 1 679 0 discriminator 3
 496 0014 FB79     		ldrb	r3, [r7, #7]	@ zero_extendqisi2
 497 0016 0133     		adds	r3, r3, #1
 498 0018 FB71     		strb	r3, [r7, #7]
 499              	.L19:
 679:Generated_Source\PSoC5/USBFS_1.c ****     {
 500              		.loc 1 679 0 is_stmt 0 discriminator 1
 501 001a FB79     		ldrb	r3, [r7, #7]	@ zero_extendqisi2
 502 001c 002B     		cmp	r3, #0
 503 001e F5D0     		beq	.L20
 682:Generated_Source\PSoC5/USBFS_1.c ****     }
 683:Generated_Source\PSoC5/USBFS_1.c **** #endif /* USBFS_1_ENABLE_HID_CLASS */
 684:Generated_Source\PSoC5/USBFS_1.c **** 
 685:Generated_Source\PSoC5/USBFS_1.c ****     /* Reset component internal variables. */
 686:Generated_Source\PSoC5/USBFS_1.c ****     USBFS_1_transferState   = USBFS_1_TRANS_STATE_IDLE;
 504              		.loc 1 686 0 is_stmt 1
 505 0020 104B     		ldr	r3, .L21+4
 506 0022 0022     		movs	r2, #0
 507 0024 1A70     		strb	r2, [r3]
ARM GAS  C:\Users\oars0\AppData\Local\Temp\ccNqJowk.s 			page 22


 687:Generated_Source\PSoC5/USBFS_1.c ****     USBFS_1_configurationChanged = 0u;
 508              		.loc 1 687 0
 509 0026 104B     		ldr	r3, .L21+8
 510 0028 0022     		movs	r2, #0
 511 002a 1A70     		strb	r2, [r3]
 688:Generated_Source\PSoC5/USBFS_1.c ****     USBFS_1_configuration   = 0u;
 512              		.loc 1 688 0
 513 002c 0F4B     		ldr	r3, .L21+12
 514 002e 0022     		movs	r2, #0
 515 0030 1A70     		strb	r2, [r3]
 689:Generated_Source\PSoC5/USBFS_1.c ****     USBFS_1_interfaceNumber = 0u;
 516              		.loc 1 689 0
 517 0032 0F4B     		ldr	r3, .L21+16
 518 0034 0022     		movs	r2, #0
 519 0036 1A70     		strb	r2, [r3]
 690:Generated_Source\PSoC5/USBFS_1.c ****     USBFS_1_deviceAddress   = 0u;
 520              		.loc 1 690 0
 521 0038 0E4B     		ldr	r3, .L21+20
 522 003a 0022     		movs	r2, #0
 523 003c 1A70     		strb	r2, [r3]
 691:Generated_Source\PSoC5/USBFS_1.c ****     USBFS_1_deviceStatus    = 0u;
 524              		.loc 1 691 0
 525 003e 0E4B     		ldr	r3, .L21+24
 526 0040 0022     		movs	r2, #0
 527 0042 1A70     		strb	r2, [r3]
 692:Generated_Source\PSoC5/USBFS_1.c ****     USBFS_1_lastPacketSize  = 0u;
 528              		.loc 1 692 0
 529 0044 0D4B     		ldr	r3, .L21+28
 530 0046 0022     		movs	r2, #0
 531 0048 1A70     		strb	r2, [r3]
 693:Generated_Source\PSoC5/USBFS_1.c **** 
 694:Generated_Source\PSoC5/USBFS_1.c **** #if (CY_PSOC4)
 695:Generated_Source\PSoC5/USBFS_1.c ****     /* Set EP0.CR: ACK Setup, NAK IN/OUT. */
 696:Generated_Source\PSoC5/USBFS_1.c ****     USBFS_1_EP0_CR_REG = USBFS_1_MODE_NAK_IN_OUT;
 697:Generated_Source\PSoC5/USBFS_1.c **** #else
 698:Generated_Source\PSoC5/USBFS_1.c ****     /* Set EP0.CR: ACK Setup, STALL IN/OUT. */
 699:Generated_Source\PSoC5/USBFS_1.c ****     USBFS_1_EP0_CR_REG = USBFS_1_MODE_STALL_IN_OUT;
 532              		.loc 1 699 0
 533 004a 0D4B     		ldr	r3, .L21+32
 534 004c 0322     		movs	r2, #3
 535 004e 1A70     		strb	r2, [r3]
 700:Generated_Source\PSoC5/USBFS_1.c **** #endif /* (CY_PSOC4) */
 701:Generated_Source\PSoC5/USBFS_1.c **** 
 702:Generated_Source\PSoC5/USBFS_1.c ****     /* Enable device to respond to USB traffic with address 0. */
 703:Generated_Source\PSoC5/USBFS_1.c ****     USBFS_1_CR0_REG = USBFS_1_DEFUALT_CR0;
 536              		.loc 1 703 0
 537 0050 0C4B     		ldr	r3, .L21+36
 538 0052 8022     		movs	r2, #128
 539 0054 1A70     		strb	r2, [r3]
 704:Generated_Source\PSoC5/USBFS_1.c **** }
 540              		.loc 1 704 0
 541 0056 00BF     		nop
 542 0058 0C37     		adds	r7, r7, #12
 543              		.cfi_def_cfa_offset 4
 544 005a BD46     		mov	sp, r7
 545              		.cfi_def_cfa_register 13
 546              		@ sp needed
ARM GAS  C:\Users\oars0\AppData\Local\Temp\ccNqJowk.s 			page 23


 547 005c 80BC     		pop	{r7}
 548              		.cfi_restore 7
 549              		.cfi_def_cfa_offset 0
 550 005e 7047     		bx	lr
 551              	.L22:
 552              		.align	2
 553              	.L21:
 554 0060 00000000 		.word	USBFS_1_hidProtocol
 555 0064 00000000 		.word	USBFS_1_transferState
 556 0068 00000000 		.word	USBFS_1_configurationChanged
 557 006c 00000000 		.word	USBFS_1_configuration
 558 0070 00000000 		.word	USBFS_1_interfaceNumber
 559 0074 00000000 		.word	USBFS_1_deviceAddress
 560 0078 00000000 		.word	USBFS_1_deviceStatus
 561 007c 00000000 		.word	USBFS_1_lastPacketSize
 562 0080 28600040 		.word	1073766440
 563 0084 08600040 		.word	1073766408
 564              		.cfi_endproc
 565              	.LFE3:
 566              		.size	USBFS_1_ReInitComponent, .-USBFS_1_ReInitComponent
 567              		.section	.text.USBFS_1_Stop,"ax",%progbits
 568              		.align	2
 569              		.global	USBFS_1_Stop
 570              		.thumb
 571              		.thumb_func
 572              		.type	USBFS_1_Stop, %function
 573              	USBFS_1_Stop:
 574              	.LFB4:
 705:Generated_Source\PSoC5/USBFS_1.c **** 
 706:Generated_Source\PSoC5/USBFS_1.c **** 
 707:Generated_Source\PSoC5/USBFS_1.c **** /*******************************************************************************
 708:Generated_Source\PSoC5/USBFS_1.c **** * Function Name: USBFS_1_Stop
 709:Generated_Source\PSoC5/USBFS_1.c **** ****************************************************************************//**
 710:Generated_Source\PSoC5/USBFS_1.c **** *
 711:Generated_Source\PSoC5/USBFS_1.c **** *  This function shuts down the USB function including to release
 712:Generated_Source\PSoC5/USBFS_1.c **** *  the D+ pull-up and disabling the SIE.
 713:Generated_Source\PSoC5/USBFS_1.c **** *
 714:Generated_Source\PSoC5/USBFS_1.c **** * \globalvars
 715:Generated_Source\PSoC5/USBFS_1.c **** *   \ref USBFS_1_configuration
 716:Generated_Source\PSoC5/USBFS_1.c **** *
 717:Generated_Source\PSoC5/USBFS_1.c **** *   USBFS_1_deviceAddress - Contains the current device address. This
 718:Generated_Source\PSoC5/USBFS_1.c **** *       variable is initialized to zero in this API. The Host starts to communicate
 719:Generated_Source\PSoC5/USBFS_1.c **** *      to the device with address 0 and then sets it to a whatever value using
 720:Generated_Source\PSoC5/USBFS_1.c **** *      a SET_ADDRESS request.
 721:Generated_Source\PSoC5/USBFS_1.c **** *
 722:Generated_Source\PSoC5/USBFS_1.c **** *   \ref USBFS_1_deviceStatus
 723:Generated_Source\PSoC5/USBFS_1.c **** *
 724:Generated_Source\PSoC5/USBFS_1.c **** *   \ref USBFS_1_configurationChanged
 725:Generated_Source\PSoC5/USBFS_1.c **** *
 726:Generated_Source\PSoC5/USBFS_1.c **** *   USBFS_1_intiVar -  This variable is set to zero
 727:Generated_Source\PSoC5/USBFS_1.c **** *
 728:Generated_Source\PSoC5/USBFS_1.c **** *******************************************************************************/
 729:Generated_Source\PSoC5/USBFS_1.c **** void USBFS_1_Stop(void) 
 730:Generated_Source\PSoC5/USBFS_1.c **** {
 575              		.loc 1 730 0
 576              		.cfi_startproc
 577              		@ args = 0, pretend = 0, frame = 8
ARM GAS  C:\Users\oars0\AppData\Local\Temp\ccNqJowk.s 			page 24


 578              		@ frame_needed = 1, uses_anonymous_args = 0
 579 0000 80B5     		push	{r7, lr}
 580              		.cfi_def_cfa_offset 8
 581              		.cfi_offset 7, -8
 582              		.cfi_offset 14, -4
 583 0002 82B0     		sub	sp, sp, #8
 584              		.cfi_def_cfa_offset 16
 585 0004 00AF     		add	r7, sp, #0
 586              		.cfi_def_cfa_register 7
 731:Generated_Source\PSoC5/USBFS_1.c ****     uint8 enableInterrupts;
 732:Generated_Source\PSoC5/USBFS_1.c **** 
 733:Generated_Source\PSoC5/USBFS_1.c **** #if (USBFS_1_EP_MANAGEMENT_DMA)
 734:Generated_Source\PSoC5/USBFS_1.c ****     /* Stop all DMA channels. */
 735:Generated_Source\PSoC5/USBFS_1.c ****     USBFS_1_Stop_DMA(USBFS_1_MAX_EP);
 736:Generated_Source\PSoC5/USBFS_1.c **** #endif /* (USBFS_1_EP_MANAGEMENT_DMA) */
 737:Generated_Source\PSoC5/USBFS_1.c **** 
 738:Generated_Source\PSoC5/USBFS_1.c ****     enableInterrupts = CyEnterCriticalSection();
 587              		.loc 1 738 0
 588 0006 FFF7FEFF 		bl	CyEnterCriticalSection
 589 000a 0346     		mov	r3, r0
 590 000c FB71     		strb	r3, [r7, #7]
 739:Generated_Source\PSoC5/USBFS_1.c **** 
 740:Generated_Source\PSoC5/USBFS_1.c ****     /* Disable USB IP to respond to USB traffic. */
 741:Generated_Source\PSoC5/USBFS_1.c ****     USBFS_1_CR0_REG &= (uint8) ~USBFS_1_CR0_ENABLE;
 591              		.loc 1 741 0
 592 000e 2F4A     		ldr	r2, .L24
 593 0010 2E4B     		ldr	r3, .L24
 594 0012 1B78     		ldrb	r3, [r3]
 595 0014 DBB2     		uxtb	r3, r3
 596 0016 03F07F03 		and	r3, r3, #127
 597 001a DBB2     		uxtb	r3, r3
 598 001c 1370     		strb	r3, [r2]
 742:Generated_Source\PSoC5/USBFS_1.c **** 
 743:Generated_Source\PSoC5/USBFS_1.c ****     /* Disable D+ pull-up. */
 744:Generated_Source\PSoC5/USBFS_1.c ****     USBFS_1_USBIO_CR1_REG &= (uint8) ~ USBFS_1_USBIO_CR1_USBPUEN;
 599              		.loc 1 744 0
 600 001e 2C4A     		ldr	r2, .L24+4
 601 0020 2B4B     		ldr	r3, .L24+4
 602 0022 1B78     		ldrb	r3, [r3]
 603 0024 DBB2     		uxtb	r3, r3
 604 0026 23F00403 		bic	r3, r3, #4
 605 002a DBB2     		uxtb	r3, r3
 606 002c 1370     		strb	r3, [r2]
 745:Generated_Source\PSoC5/USBFS_1.c **** 
 746:Generated_Source\PSoC5/USBFS_1.c **** #if (CY_PSOC4)
 747:Generated_Source\PSoC5/USBFS_1.c ****     /* Disable USBFS block. */
 748:Generated_Source\PSoC5/USBFS_1.c ****     USBFS_1_POWER_CTRL_REG &= (uint32) ~USBFS_1_POWER_CTRL_ENABLE;
 749:Generated_Source\PSoC5/USBFS_1.c **** #else
 750:Generated_Source\PSoC5/USBFS_1.c ****     /* Clear power active and standby mode templates. */
 751:Generated_Source\PSoC5/USBFS_1.c ****     USBFS_1_PM_ACT_CFG_REG  &= (uint8) ~USBFS_1_PM_ACT_EN_FSUSB;
 607              		.loc 1 751 0
 608 002e 294A     		ldr	r2, .L24+8
 609 0030 284B     		ldr	r3, .L24+8
 610 0032 1B78     		ldrb	r3, [r3]
 611 0034 DBB2     		uxtb	r3, r3
 612 0036 23F00103 		bic	r3, r3, #1
 613 003a DBB2     		uxtb	r3, r3
ARM GAS  C:\Users\oars0\AppData\Local\Temp\ccNqJowk.s 			page 25


 614 003c 1370     		strb	r3, [r2]
 752:Generated_Source\PSoC5/USBFS_1.c ****     USBFS_1_PM_STBY_CFG_REG &= (uint8) ~USBFS_1_PM_STBY_EN_FSUSB;
 615              		.loc 1 752 0
 616 003e 264A     		ldr	r2, .L24+12
 617 0040 254B     		ldr	r3, .L24+12
 618 0042 1B78     		ldrb	r3, [r3]
 619 0044 DBB2     		uxtb	r3, r3
 620 0046 23F00103 		bic	r3, r3, #1
 621 004a DBB2     		uxtb	r3, r3
 622 004c 1370     		strb	r3, [r2]
 753:Generated_Source\PSoC5/USBFS_1.c **** 
 754:Generated_Source\PSoC5/USBFS_1.c ****     /* Ensure single-ended disable bits are high (PRT15.INP_DIS[7:6])
 755:Generated_Source\PSoC5/USBFS_1.c ****      * (input receiver disabled). */
 756:Generated_Source\PSoC5/USBFS_1.c ****     USBFS_1_DM_INP_DIS_REG |= (uint8) USBFS_1_DM_MASK;
 623              		.loc 1 756 0
 624 004e 234A     		ldr	r2, .L24+16
 625 0050 224B     		ldr	r3, .L24+16
 626 0052 1B78     		ldrb	r3, [r3]
 627 0054 DBB2     		uxtb	r3, r3
 628 0056 63F07F03 		orn	r3, r3, #127
 629 005a DBB2     		uxtb	r3, r3
 630 005c 1370     		strb	r3, [r2]
 757:Generated_Source\PSoC5/USBFS_1.c ****     USBFS_1_DP_INP_DIS_REG |= (uint8) USBFS_1_DP_MASK;
 631              		.loc 1 757 0
 632 005e 1F4A     		ldr	r2, .L24+16
 633 0060 1E4B     		ldr	r3, .L24+16
 634 0062 1B78     		ldrb	r3, [r3]
 635 0064 DBB2     		uxtb	r3, r3
 636 0066 43F04003 		orr	r3, r3, #64
 637 006a DBB2     		uxtb	r3, r3
 638 006c 1370     		strb	r3, [r2]
 758:Generated_Source\PSoC5/USBFS_1.c **** 
 759:Generated_Source\PSoC5/USBFS_1.c **** #endif /* (CY_PSOC4) */
 760:Generated_Source\PSoC5/USBFS_1.c **** 
 761:Generated_Source\PSoC5/USBFS_1.c ****     CyExitCriticalSection(enableInterrupts);
 639              		.loc 1 761 0
 640 006e FB79     		ldrb	r3, [r7, #7]	@ zero_extendqisi2
 641 0070 1846     		mov	r0, r3
 642 0072 FFF7FEFF 		bl	CyExitCriticalSection
 762:Generated_Source\PSoC5/USBFS_1.c **** 
 763:Generated_Source\PSoC5/USBFS_1.c ****     /* Disable component interrupts. */
 764:Generated_Source\PSoC5/USBFS_1.c **** #if (CY_PSOC4)
 765:Generated_Source\PSoC5/USBFS_1.c ****     CyIntDisable(USBFS_1_INTR_HI_VECT_NUM);
 766:Generated_Source\PSoC5/USBFS_1.c ****     CyIntDisable(USBFS_1_INTR_LO_VECT_NUM);
 767:Generated_Source\PSoC5/USBFS_1.c ****     CyIntDisable(USBFS_1_INTR_MED_VECT_NUM);
 768:Generated_Source\PSoC5/USBFS_1.c **** #else
 769:Generated_Source\PSoC5/USBFS_1.c **** 
 770:Generated_Source\PSoC5/USBFS_1.c ****     CyIntDisable(USBFS_1_BUS_RESET_VECT_NUM);
 643              		.loc 1 770 0
 644 0076 1A4B     		ldr	r3, .L24+20
 645 0078 4FF40002 		mov	r2, #8388608
 646 007c 1A60     		str	r2, [r3]
 771:Generated_Source\PSoC5/USBFS_1.c ****     CyIntDisable(USBFS_1_EP_0_VECT_NUM);
 647              		.loc 1 771 0
 648 007e 184B     		ldr	r3, .L24+20
 649 0080 4FF08072 		mov	r2, #16777216
 650 0084 1A60     		str	r2, [r3]
ARM GAS  C:\Users\oars0\AppData\Local\Temp\ccNqJowk.s 			page 26


 772:Generated_Source\PSoC5/USBFS_1.c **** 
 773:Generated_Source\PSoC5/USBFS_1.c ****     #if (USBFS_1_SOF_ISR_ACTIVE)
 774:Generated_Source\PSoC5/USBFS_1.c ****         CyIntDisable(USBFS_1_SOF_VECT_NUM);
 651              		.loc 1 774 0
 652 0086 164B     		ldr	r3, .L24+20
 653 0088 4FF40012 		mov	r2, #2097152
 654 008c 1A60     		str	r2, [r3]
 775:Generated_Source\PSoC5/USBFS_1.c ****     #endif /* (USBFS_1_SOF_ISR_ACTIVE) */
 776:Generated_Source\PSoC5/USBFS_1.c **** 
 777:Generated_Source\PSoC5/USBFS_1.c ****     #if (USBFS_1_EP1_ISR_ACTIVE)
 778:Generated_Source\PSoC5/USBFS_1.c ****         CyIntDisable(USBFS_1_EP_1_VECT_NUM);
 655              		.loc 1 778 0
 656 008e 144B     		ldr	r3, .L24+20
 657 0090 0222     		movs	r2, #2
 658 0092 1A60     		str	r2, [r3]
 779:Generated_Source\PSoC5/USBFS_1.c ****     #endif /* (USBFS_1_EP1_ISR_ACTIVE) */
 780:Generated_Source\PSoC5/USBFS_1.c **** 
 781:Generated_Source\PSoC5/USBFS_1.c ****     #if (USBFS_1_EP2_ISR_ACTIVE)
 782:Generated_Source\PSoC5/USBFS_1.c ****         CyIntDisable(USBFS_1_EP_2_VECT_NUM);
 783:Generated_Source\PSoC5/USBFS_1.c ****     #endif /* (USBFS_1_EP2_ISR_ACTIVE) */
 784:Generated_Source\PSoC5/USBFS_1.c **** 
 785:Generated_Source\PSoC5/USBFS_1.c ****     #if (USBFS_1_EP3_ISR_ACTIVE)
 786:Generated_Source\PSoC5/USBFS_1.c ****         CyIntDisable(USBFS_1_EP_3_VECT_NUM);
 787:Generated_Source\PSoC5/USBFS_1.c ****     #endif /* (USBFS_1_EP3_ISR_ACTIVE) */
 788:Generated_Source\PSoC5/USBFS_1.c **** 
 789:Generated_Source\PSoC5/USBFS_1.c ****     #if (USBFS_1_EP4_ISR_ACTIVE)
 790:Generated_Source\PSoC5/USBFS_1.c ****         CyIntDisable(USBFS_1_EP_4_VECT_NUM);
 791:Generated_Source\PSoC5/USBFS_1.c ****     #endif /* (USBFS_1_EP4_ISR_ACTIVE) */
 792:Generated_Source\PSoC5/USBFS_1.c **** 
 793:Generated_Source\PSoC5/USBFS_1.c ****     #if (USBFS_1_EP5_ISR_ACTIVE)
 794:Generated_Source\PSoC5/USBFS_1.c ****         CyIntDisable(USBFS_1_EP_5_VECT_NUM);
 795:Generated_Source\PSoC5/USBFS_1.c ****     #endif /* (USBFS_1_EP5_ISR_ACTIVE) */
 796:Generated_Source\PSoC5/USBFS_1.c **** 
 797:Generated_Source\PSoC5/USBFS_1.c ****     #if (USBFS_1_EP6_ISR_ACTIVE)
 798:Generated_Source\PSoC5/USBFS_1.c ****         CyIntDisable(USBFS_1_EP_6_VECT_NUM);
 799:Generated_Source\PSoC5/USBFS_1.c ****     #endif /* USBFS_1_EP6_ISR_REMOVE */
 800:Generated_Source\PSoC5/USBFS_1.c **** 
 801:Generated_Source\PSoC5/USBFS_1.c ****     #if (USBFS_1_EP7_ISR_ACTIVE)
 802:Generated_Source\PSoC5/USBFS_1.c ****         CyIntDisable(USBFS_1_EP_7_VECT_NUM);
 803:Generated_Source\PSoC5/USBFS_1.c ****     #endif /* (USBFS_1_EP7_ISR_ACTIVE) */
 804:Generated_Source\PSoC5/USBFS_1.c **** 
 805:Generated_Source\PSoC5/USBFS_1.c ****     #if (USBFS_1_EP8_ISR_ACTIVE)
 806:Generated_Source\PSoC5/USBFS_1.c ****         CyIntDisable(USBFS_1_EP_8_VECT_NUM);
 807:Generated_Source\PSoC5/USBFS_1.c ****     #endif /* (USBFS_1_EP8_ISR_ACTIVE) */
 808:Generated_Source\PSoC5/USBFS_1.c **** 
 809:Generated_Source\PSoC5/USBFS_1.c ****     #if (USBFS_1_DP_ISR_ACTIVE)
 810:Generated_Source\PSoC5/USBFS_1.c ****         /* Clear active mode Dp interrupt source history. */
 811:Generated_Source\PSoC5/USBFS_1.c ****         (void) USBFS_1_Dp_ClearInterrupt();
 659              		.loc 1 811 0
 660 0094 FFF7FEFF 		bl	USBFS_1_Dp_ClearInterrupt
 812:Generated_Source\PSoC5/USBFS_1.c ****         CyIntClearPending(USBFS_1_DP_INTC_VECT_NUM);
 661              		.loc 1 812 0
 662 0098 124B     		ldr	r3, .L24+24
 663 009a 4FF48052 		mov	r2, #4096
 664 009e 1A60     		str	r2, [r3]
 813:Generated_Source\PSoC5/USBFS_1.c ****     #endif /* (USBFS_1_DP_ISR_ACTIVE). */
 814:Generated_Source\PSoC5/USBFS_1.c **** 
ARM GAS  C:\Users\oars0\AppData\Local\Temp\ccNqJowk.s 			page 27


 815:Generated_Source\PSoC5/USBFS_1.c **** #endif /* (CY_PSOC4) */
 816:Generated_Source\PSoC5/USBFS_1.c **** 
 817:Generated_Source\PSoC5/USBFS_1.c ****     /* Reset component internal variables. */
 818:Generated_Source\PSoC5/USBFS_1.c ****     USBFS_1_configurationChanged = 0u;
 665              		.loc 1 818 0
 666 00a0 114B     		ldr	r3, .L24+28
 667 00a2 0022     		movs	r2, #0
 668 00a4 1A70     		strb	r2, [r3]
 819:Generated_Source\PSoC5/USBFS_1.c ****     USBFS_1_configuration   = 0u;
 669              		.loc 1 819 0
 670 00a6 114B     		ldr	r3, .L24+32
 671 00a8 0022     		movs	r2, #0
 672 00aa 1A70     		strb	r2, [r3]
 820:Generated_Source\PSoC5/USBFS_1.c ****     USBFS_1_interfaceNumber = 0u;
 673              		.loc 1 820 0
 674 00ac 104B     		ldr	r3, .L24+36
 675 00ae 0022     		movs	r2, #0
 676 00b0 1A70     		strb	r2, [r3]
 821:Generated_Source\PSoC5/USBFS_1.c ****     USBFS_1_deviceAddress   = 0u;
 677              		.loc 1 821 0
 678 00b2 104B     		ldr	r3, .L24+40
 679 00b4 0022     		movs	r2, #0
 680 00b6 1A70     		strb	r2, [r3]
 822:Generated_Source\PSoC5/USBFS_1.c ****     USBFS_1_deviceStatus    = 0u;
 681              		.loc 1 822 0
 682 00b8 0F4B     		ldr	r3, .L24+44
 683 00ba 0022     		movs	r2, #0
 684 00bc 1A70     		strb	r2, [r3]
 823:Generated_Source\PSoC5/USBFS_1.c **** 
 824:Generated_Source\PSoC5/USBFS_1.c ****     /* It is mandatory for correct device startup. */
 825:Generated_Source\PSoC5/USBFS_1.c ****     USBFS_1_initVar = 0u;
 685              		.loc 1 825 0
 686 00be 0F4B     		ldr	r3, .L24+48
 687 00c0 0022     		movs	r2, #0
 688 00c2 1A70     		strb	r2, [r3]
 826:Generated_Source\PSoC5/USBFS_1.c **** }
 689              		.loc 1 826 0
 690 00c4 00BF     		nop
 691 00c6 0837     		adds	r7, r7, #8
 692              		.cfi_def_cfa_offset 8
 693 00c8 BD46     		mov	sp, r7
 694              		.cfi_def_cfa_register 13
 695              		@ sp needed
 696 00ca 80BD     		pop	{r7, pc}
 697              	.L25:
 698              		.align	2
 699              	.L24:
 700 00cc 08600040 		.word	1073766408
 701 00d0 12600040 		.word	1073766418
 702 00d4 A5430040 		.word	1073759141
 703 00d8 B5430040 		.word	1073759157
 704 00dc F8510040 		.word	1073762808
 705 00e0 80E100E0 		.word	-536813184
 706 00e4 80E200E0 		.word	-536812928
 707 00e8 00000000 		.word	USBFS_1_configurationChanged
 708 00ec 00000000 		.word	USBFS_1_configuration
 709 00f0 00000000 		.word	USBFS_1_interfaceNumber
ARM GAS  C:\Users\oars0\AppData\Local\Temp\ccNqJowk.s 			page 28


 710 00f4 00000000 		.word	USBFS_1_deviceAddress
 711 00f8 00000000 		.word	USBFS_1_deviceStatus
 712 00fc 00000000 		.word	USBFS_1_initVar
 713              		.cfi_endproc
 714              	.LFE4:
 715              		.size	USBFS_1_Stop, .-USBFS_1_Stop
 716              		.section	.text.USBFS_1_CheckActivity,"ax",%progbits
 717              		.align	2
 718              		.global	USBFS_1_CheckActivity
 719              		.thumb
 720              		.thumb_func
 721              		.type	USBFS_1_CheckActivity, %function
 722              	USBFS_1_CheckActivity:
 723              	.LFB5:
 827:Generated_Source\PSoC5/USBFS_1.c **** 
 828:Generated_Source\PSoC5/USBFS_1.c **** 
 829:Generated_Source\PSoC5/USBFS_1.c **** /*******************************************************************************
 830:Generated_Source\PSoC5/USBFS_1.c **** * Function Name: USBFS_1_CheckActivity
 831:Generated_Source\PSoC5/USBFS_1.c **** ****************************************************************************//**
 832:Generated_Source\PSoC5/USBFS_1.c **** *
 833:Generated_Source\PSoC5/USBFS_1.c **** *  This function returns the activity status of the bus. It clears the hardware
 834:Generated_Source\PSoC5/USBFS_1.c **** *  status to provide updated status on the next call of this function. It
 835:Generated_Source\PSoC5/USBFS_1.c **** *  provides a way to determine whether any USB bus activity occurred. The
 836:Generated_Source\PSoC5/USBFS_1.c **** *  application should use this function to determine if the USB suspend
 837:Generated_Source\PSoC5/USBFS_1.c **** *  conditions are met.
 838:Generated_Source\PSoC5/USBFS_1.c **** *
 839:Generated_Source\PSoC5/USBFS_1.c **** *
 840:Generated_Source\PSoC5/USBFS_1.c **** * \return
 841:Generated_Source\PSoC5/USBFS_1.c **** *  cystatus: Status of the bus since the last call of the function.
 842:Generated_Source\PSoC5/USBFS_1.c **** *  Return Value |   Description
 843:Generated_Source\PSoC5/USBFS_1.c **** *  -------------|---------------------------------------------------------------
 844:Generated_Source\PSoC5/USBFS_1.c **** *  1            |Bus activity was detected since the last call to this function
 845:Generated_Source\PSoC5/USBFS_1.c **** *  0            |Bus activity was not detected since the last call to this function
 846:Generated_Source\PSoC5/USBFS_1.c **** *
 847:Generated_Source\PSoC5/USBFS_1.c **** *
 848:Generated_Source\PSoC5/USBFS_1.c **** *******************************************************************************/
 849:Generated_Source\PSoC5/USBFS_1.c **** uint8 USBFS_1_CheckActivity(void) 
 850:Generated_Source\PSoC5/USBFS_1.c **** {
 724              		.loc 1 850 0
 725              		.cfi_startproc
 726              		@ args = 0, pretend = 0, frame = 8
 727              		@ frame_needed = 1, uses_anonymous_args = 0
 728              		@ link register save eliminated.
 729 0000 80B4     		push	{r7}
 730              		.cfi_def_cfa_offset 4
 731              		.cfi_offset 7, -4
 732 0002 83B0     		sub	sp, sp, #12
 733              		.cfi_def_cfa_offset 16
 734 0004 00AF     		add	r7, sp, #0
 735              		.cfi_def_cfa_register 7
 851:Generated_Source\PSoC5/USBFS_1.c ****     uint8 cr1Reg = USBFS_1_CR1_REG;
 736              		.loc 1 851 0
 737 0006 0B4B     		ldr	r3, .L30
 738 0008 1B78     		ldrb	r3, [r3]
 739 000a FB71     		strb	r3, [r7, #7]
 852:Generated_Source\PSoC5/USBFS_1.c **** 
 853:Generated_Source\PSoC5/USBFS_1.c ****     /* Clear bus activity. */
ARM GAS  C:\Users\oars0\AppData\Local\Temp\ccNqJowk.s 			page 29


 854:Generated_Source\PSoC5/USBFS_1.c ****     USBFS_1_CR1_REG = (cr1Reg & (uint8) ~USBFS_1_CR1_BUS_ACTIVITY);
 740              		.loc 1 854 0
 741 000c 094A     		ldr	r2, .L30
 742 000e FB79     		ldrb	r3, [r7, #7]
 743 0010 23F00403 		bic	r3, r3, #4
 744 0014 DBB2     		uxtb	r3, r3
 745 0016 1370     		strb	r3, [r2]
 855:Generated_Source\PSoC5/USBFS_1.c **** 
 856:Generated_Source\PSoC5/USBFS_1.c ****     /* Get bus activity. */
 857:Generated_Source\PSoC5/USBFS_1.c ****     return ((0u != (cr1Reg & USBFS_1_CR1_BUS_ACTIVITY)) ? (1u) : (0u));
 746              		.loc 1 857 0
 747 0018 FB79     		ldrb	r3, [r7, #7]	@ zero_extendqisi2
 748 001a 03F00403 		and	r3, r3, #4
 749 001e 002B     		cmp	r3, #0
 750 0020 01D0     		beq	.L27
 751              		.loc 1 857 0 is_stmt 0 discriminator 1
 752 0022 0123     		movs	r3, #1
 753 0024 00E0     		b	.L28
 754              	.L27:
 755              		.loc 1 857 0 discriminator 2
 756 0026 0023     		movs	r3, #0
 757              	.L28:
 858:Generated_Source\PSoC5/USBFS_1.c **** }
 758              		.loc 1 858 0 is_stmt 1 discriminator 4
 759 0028 1846     		mov	r0, r3
 760 002a 0C37     		adds	r7, r7, #12
 761              		.cfi_def_cfa_offset 4
 762 002c BD46     		mov	sp, r7
 763              		.cfi_def_cfa_register 13
 764              		@ sp needed
 765 002e 80BC     		pop	{r7}
 766              		.cfi_restore 7
 767              		.cfi_def_cfa_offset 0
 768 0030 7047     		bx	lr
 769              	.L31:
 770 0032 00BF     		.align	2
 771              	.L30:
 772 0034 09600040 		.word	1073766409
 773              		.cfi_endproc
 774              	.LFE5:
 775              		.size	USBFS_1_CheckActivity, .-USBFS_1_CheckActivity
 776              		.section	.text.USBFS_1_GetConfiguration,"ax",%progbits
 777              		.align	2
 778              		.global	USBFS_1_GetConfiguration
 779              		.thumb
 780              		.thumb_func
 781              		.type	USBFS_1_GetConfiguration, %function
 782              	USBFS_1_GetConfiguration:
 783              	.LFB6:
 859:Generated_Source\PSoC5/USBFS_1.c **** 
 860:Generated_Source\PSoC5/USBFS_1.c **** 
 861:Generated_Source\PSoC5/USBFS_1.c **** /*******************************************************************************
 862:Generated_Source\PSoC5/USBFS_1.c **** * Function Name: USBFS_1_GetConfiguration
 863:Generated_Source\PSoC5/USBFS_1.c **** ****************************************************************************//**
 864:Generated_Source\PSoC5/USBFS_1.c **** *
 865:Generated_Source\PSoC5/USBFS_1.c **** *  This function gets the current configuration of the USB device.
 866:Generated_Source\PSoC5/USBFS_1.c **** *
ARM GAS  C:\Users\oars0\AppData\Local\Temp\ccNqJowk.s 			page 30


 867:Generated_Source\PSoC5/USBFS_1.c **** * \return
 868:Generated_Source\PSoC5/USBFS_1.c **** *  Returns the currently assigned configuration. Returns 0 if the device
 869:Generated_Source\PSoC5/USBFS_1.c **** *  is not configured
 870:Generated_Source\PSoC5/USBFS_1.c **** *
 871:Generated_Source\PSoC5/USBFS_1.c **** *******************************************************************************/
 872:Generated_Source\PSoC5/USBFS_1.c **** uint8 USBFS_1_GetConfiguration(void) 
 873:Generated_Source\PSoC5/USBFS_1.c **** {
 784              		.loc 1 873 0
 785              		.cfi_startproc
 786              		@ args = 0, pretend = 0, frame = 0
 787              		@ frame_needed = 1, uses_anonymous_args = 0
 788              		@ link register save eliminated.
 789 0000 80B4     		push	{r7}
 790              		.cfi_def_cfa_offset 4
 791              		.cfi_offset 7, -4
 792 0002 00AF     		add	r7, sp, #0
 793              		.cfi_def_cfa_register 7
 874:Generated_Source\PSoC5/USBFS_1.c ****     return (USBFS_1_configuration);
 794              		.loc 1 874 0
 795 0004 034B     		ldr	r3, .L34
 796 0006 1B78     		ldrb	r3, [r3]
 797 0008 DBB2     		uxtb	r3, r3
 875:Generated_Source\PSoC5/USBFS_1.c **** }
 798              		.loc 1 875 0
 799 000a 1846     		mov	r0, r3
 800 000c BD46     		mov	sp, r7
 801              		.cfi_def_cfa_register 13
 802              		@ sp needed
 803 000e 80BC     		pop	{r7}
 804              		.cfi_restore 7
 805              		.cfi_def_cfa_offset 0
 806 0010 7047     		bx	lr
 807              	.L35:
 808 0012 00BF     		.align	2
 809              	.L34:
 810 0014 00000000 		.word	USBFS_1_configuration
 811              		.cfi_endproc
 812              	.LFE6:
 813              		.size	USBFS_1_GetConfiguration, .-USBFS_1_GetConfiguration
 814              		.section	.text.USBFS_1_IsConfigurationChanged,"ax",%progbits
 815              		.align	2
 816              		.global	USBFS_1_IsConfigurationChanged
 817              		.thumb
 818              		.thumb_func
 819              		.type	USBFS_1_IsConfigurationChanged, %function
 820              	USBFS_1_IsConfigurationChanged:
 821              	.LFB7:
 876:Generated_Source\PSoC5/USBFS_1.c **** 
 877:Generated_Source\PSoC5/USBFS_1.c **** 
 878:Generated_Source\PSoC5/USBFS_1.c **** /*******************************************************************************
 879:Generated_Source\PSoC5/USBFS_1.c **** * Function Name: USBFS_1_IsConfigurationChanged
 880:Generated_Source\PSoC5/USBFS_1.c **** ****************************************************************************//**
 881:Generated_Source\PSoC5/USBFS_1.c **** *
 882:Generated_Source\PSoC5/USBFS_1.c **** *  This function returns the clear-on-read configuration state.  It is useful
 883:Generated_Source\PSoC5/USBFS_1.c **** *  when the host sends double SET_CONFIGURATION request with the same 
 884:Generated_Source\PSoC5/USBFS_1.c **** *  configuration number or changes alternate settings of the interface. 
 885:Generated_Source\PSoC5/USBFS_1.c **** *  After configuration has been changed the OUT endpoints must be enabled and IN 
ARM GAS  C:\Users\oars0\AppData\Local\Temp\ccNqJowk.s 			page 31


 886:Generated_Source\PSoC5/USBFS_1.c **** *  endpoint must be loaded with data to start communication with the host.
 887:Generated_Source\PSoC5/USBFS_1.c **** *
 888:Generated_Source\PSoC5/USBFS_1.c **** * \return
 889:Generated_Source\PSoC5/USBFS_1.c **** *  None-zero value when new configuration has been changed, otherwise zero is
 890:Generated_Source\PSoC5/USBFS_1.c **** *  returned.
 891:Generated_Source\PSoC5/USBFS_1.c **** *
 892:Generated_Source\PSoC5/USBFS_1.c **** * \globalvars
 893:Generated_Source\PSoC5/USBFS_1.c **** *
 894:Generated_Source\PSoC5/USBFS_1.c **** *  \ref USBFS_1_configurationChanged - This variable is set to 1 after
 895:Generated_Source\PSoC5/USBFS_1.c **** *   a SET_CONFIGURATION request and cleared in this function.
 896:Generated_Source\PSoC5/USBFS_1.c **** *
 897:Generated_Source\PSoC5/USBFS_1.c **** *******************************************************************************/
 898:Generated_Source\PSoC5/USBFS_1.c **** uint8 USBFS_1_IsConfigurationChanged(void) 
 899:Generated_Source\PSoC5/USBFS_1.c **** {
 822              		.loc 1 899 0
 823              		.cfi_startproc
 824              		@ args = 0, pretend = 0, frame = 8
 825              		@ frame_needed = 1, uses_anonymous_args = 0
 826              		@ link register save eliminated.
 827 0000 80B4     		push	{r7}
 828              		.cfi_def_cfa_offset 4
 829              		.cfi_offset 7, -4
 830 0002 83B0     		sub	sp, sp, #12
 831              		.cfi_def_cfa_offset 16
 832 0004 00AF     		add	r7, sp, #0
 833              		.cfi_def_cfa_register 7
 900:Generated_Source\PSoC5/USBFS_1.c ****     uint8 res = 0u;
 834              		.loc 1 900 0
 835 0006 0023     		movs	r3, #0
 836 0008 FB71     		strb	r3, [r7, #7]
 901:Generated_Source\PSoC5/USBFS_1.c **** 
 902:Generated_Source\PSoC5/USBFS_1.c ****     if (USBFS_1_configurationChanged != 0u)
 837              		.loc 1 902 0
 838 000a 084B     		ldr	r3, .L39
 839 000c 1B78     		ldrb	r3, [r3]
 840 000e DBB2     		uxtb	r3, r3
 841 0010 002B     		cmp	r3, #0
 842 0012 05D0     		beq	.L37
 903:Generated_Source\PSoC5/USBFS_1.c ****     {
 904:Generated_Source\PSoC5/USBFS_1.c ****         res = USBFS_1_configurationChanged;
 843              		.loc 1 904 0
 844 0014 054B     		ldr	r3, .L39
 845 0016 1B78     		ldrb	r3, [r3]
 846 0018 FB71     		strb	r3, [r7, #7]
 905:Generated_Source\PSoC5/USBFS_1.c ****         USBFS_1_configurationChanged = 0u;
 847              		.loc 1 905 0
 848 001a 044B     		ldr	r3, .L39
 849 001c 0022     		movs	r2, #0
 850 001e 1A70     		strb	r2, [r3]
 851              	.L37:
 906:Generated_Source\PSoC5/USBFS_1.c ****     }
 907:Generated_Source\PSoC5/USBFS_1.c **** 
 908:Generated_Source\PSoC5/USBFS_1.c ****     return (res);
 852              		.loc 1 908 0
 853 0020 FB79     		ldrb	r3, [r7, #7]	@ zero_extendqisi2
 909:Generated_Source\PSoC5/USBFS_1.c **** }
 854              		.loc 1 909 0
ARM GAS  C:\Users\oars0\AppData\Local\Temp\ccNqJowk.s 			page 32


 855 0022 1846     		mov	r0, r3
 856 0024 0C37     		adds	r7, r7, #12
 857              		.cfi_def_cfa_offset 4
 858 0026 BD46     		mov	sp, r7
 859              		.cfi_def_cfa_register 13
 860              		@ sp needed
 861 0028 80BC     		pop	{r7}
 862              		.cfi_restore 7
 863              		.cfi_def_cfa_offset 0
 864 002a 7047     		bx	lr
 865              	.L40:
 866              		.align	2
 867              	.L39:
 868 002c 00000000 		.word	USBFS_1_configurationChanged
 869              		.cfi_endproc
 870              	.LFE7:
 871              		.size	USBFS_1_IsConfigurationChanged, .-USBFS_1_IsConfigurationChanged
 872              		.section	.text.USBFS_1_GetInterfaceSetting,"ax",%progbits
 873              		.align	2
 874              		.global	USBFS_1_GetInterfaceSetting
 875              		.thumb
 876              		.thumb_func
 877              		.type	USBFS_1_GetInterfaceSetting, %function
 878              	USBFS_1_GetInterfaceSetting:
 879              	.LFB8:
 910:Generated_Source\PSoC5/USBFS_1.c **** 
 911:Generated_Source\PSoC5/USBFS_1.c **** 
 912:Generated_Source\PSoC5/USBFS_1.c **** /*******************************************************************************
 913:Generated_Source\PSoC5/USBFS_1.c **** * Function Name: USBFS_1_GetInterfaceSetting
 914:Generated_Source\PSoC5/USBFS_1.c **** ****************************************************************************//**
 915:Generated_Source\PSoC5/USBFS_1.c **** *
 916:Generated_Source\PSoC5/USBFS_1.c **** *  This function gets the current alternate setting for the specified interface.
 917:Generated_Source\PSoC5/USBFS_1.c **** *  It is useful to identify which alternate settings are active in the specified 
 918:Generated_Source\PSoC5/USBFS_1.c **** *  interface.
 919:Generated_Source\PSoC5/USBFS_1.c **** *
 920:Generated_Source\PSoC5/USBFS_1.c **** *  \param
 921:Generated_Source\PSoC5/USBFS_1.c **** *  interfaceNumber interface number
 922:Generated_Source\PSoC5/USBFS_1.c **** *
 923:Generated_Source\PSoC5/USBFS_1.c **** * \return
 924:Generated_Source\PSoC5/USBFS_1.c **** *  Returns the current alternate setting for the specified interface.
 925:Generated_Source\PSoC5/USBFS_1.c **** *
 926:Generated_Source\PSoC5/USBFS_1.c **** *******************************************************************************/
 927:Generated_Source\PSoC5/USBFS_1.c **** uint8  USBFS_1_GetInterfaceSetting(uint8 interfaceNumber)
 928:Generated_Source\PSoC5/USBFS_1.c ****                                                     
 929:Generated_Source\PSoC5/USBFS_1.c **** {
 880              		.loc 1 929 0
 881              		.cfi_startproc
 882              		@ args = 0, pretend = 0, frame = 8
 883              		@ frame_needed = 1, uses_anonymous_args = 0
 884              		@ link register save eliminated.
 885 0000 80B4     		push	{r7}
 886              		.cfi_def_cfa_offset 4
 887              		.cfi_offset 7, -4
 888 0002 83B0     		sub	sp, sp, #12
 889              		.cfi_def_cfa_offset 16
 890 0004 00AF     		add	r7, sp, #0
 891              		.cfi_def_cfa_register 7
ARM GAS  C:\Users\oars0\AppData\Local\Temp\ccNqJowk.s 			page 33


 892 0006 0346     		mov	r3, r0
 893 0008 FB71     		strb	r3, [r7, #7]
 930:Generated_Source\PSoC5/USBFS_1.c ****     return (USBFS_1_interfaceSetting[interfaceNumber]);
 894              		.loc 1 930 0
 895 000a FB79     		ldrb	r3, [r7, #7]	@ zero_extendqisi2
 896 000c 034A     		ldr	r2, .L43
 897 000e D35C     		ldrb	r3, [r2, r3]
 898 0010 DBB2     		uxtb	r3, r3
 931:Generated_Source\PSoC5/USBFS_1.c **** }
 899              		.loc 1 931 0
 900 0012 1846     		mov	r0, r3
 901 0014 0C37     		adds	r7, r7, #12
 902              		.cfi_def_cfa_offset 4
 903 0016 BD46     		mov	sp, r7
 904              		.cfi_def_cfa_register 13
 905              		@ sp needed
 906 0018 80BC     		pop	{r7}
 907              		.cfi_restore 7
 908              		.cfi_def_cfa_offset 0
 909 001a 7047     		bx	lr
 910              	.L44:
 911              		.align	2
 912              	.L43:
 913 001c 00000000 		.word	USBFS_1_interfaceSetting
 914              		.cfi_endproc
 915              	.LFE8:
 916              		.size	USBFS_1_GetInterfaceSetting, .-USBFS_1_GetInterfaceSetting
 917              		.section	.text.USBFS_1_GetEPState,"ax",%progbits
 918              		.align	2
 919              		.global	USBFS_1_GetEPState
 920              		.thumb
 921              		.thumb_func
 922              		.type	USBFS_1_GetEPState, %function
 923              	USBFS_1_GetEPState:
 924              	.LFB9:
 932:Generated_Source\PSoC5/USBFS_1.c **** 
 933:Generated_Source\PSoC5/USBFS_1.c **** 
 934:Generated_Source\PSoC5/USBFS_1.c **** /*******************************************************************************
 935:Generated_Source\PSoC5/USBFS_1.c **** * Function Name: USBFS_1_GetEPState
 936:Generated_Source\PSoC5/USBFS_1.c **** ****************************************************************************//**
 937:Generated_Source\PSoC5/USBFS_1.c **** *
 938:Generated_Source\PSoC5/USBFS_1.c **** *  This function returns the state of the requested endpoint.
 939:Generated_Source\PSoC5/USBFS_1.c **** *
 940:Generated_Source\PSoC5/USBFS_1.c **** * \param epNumber Data endpoint number
 941:Generated_Source\PSoC5/USBFS_1.c **** *
 942:Generated_Source\PSoC5/USBFS_1.c **** * \return
 943:Generated_Source\PSoC5/USBFS_1.c **** *  Returns the current state of the specified USBFS endpoint. Symbolic names and
 944:Generated_Source\PSoC5/USBFS_1.c **** *  their associated values are given in the following table. Use these constants
 945:Generated_Source\PSoC5/USBFS_1.c **** *  whenever you write code to change the state of the endpoints, such as ISR
 946:Generated_Source\PSoC5/USBFS_1.c **** *  code, to handle data sent or received.
 947:Generated_Source\PSoC5/USBFS_1.c **** *
 948:Generated_Source\PSoC5/USBFS_1.c **** *  Return Value           | Description
 949:Generated_Source\PSoC5/USBFS_1.c **** *  -----------------------|-----------------------------------------------------
 950:Generated_Source\PSoC5/USBFS_1.c **** *  USBFS_NO_EVENT_PENDING |The endpoint is awaiting SIE action
 951:Generated_Source\PSoC5/USBFS_1.c **** *  USBFS_EVENT_PENDING    |The endpoint is awaiting CPU action
 952:Generated_Source\PSoC5/USBFS_1.c **** *  USBFS_NO_EVENT_ALLOWED |The endpoint is locked from access
 953:Generated_Source\PSoC5/USBFS_1.c **** *  USBFS_IN_BUFFER_FULL   |The IN endpoint is loaded and the mode is set to ACK IN
ARM GAS  C:\Users\oars0\AppData\Local\Temp\ccNqJowk.s 			page 34


 954:Generated_Source\PSoC5/USBFS_1.c **** *  USBFS_IN_BUFFER_EMPTY  |An IN transaction occurred and more data can be loaded
 955:Generated_Source\PSoC5/USBFS_1.c **** *  USBFS_OUT_BUFFER_EMPTY |The OUT endpoint is set to ACK OUT and is waiting for data
 956:Generated_Source\PSoC5/USBFS_1.c **** *  USBFS_OUT_BUFFER_FULL  |An OUT transaction has occurred and data can be read
 957:Generated_Source\PSoC5/USBFS_1.c **** *
 958:Generated_Source\PSoC5/USBFS_1.c **** *******************************************************************************/
 959:Generated_Source\PSoC5/USBFS_1.c **** uint8 USBFS_1_GetEPState(uint8 epNumber) 
 960:Generated_Source\PSoC5/USBFS_1.c **** {
 925              		.loc 1 960 0
 926              		.cfi_startproc
 927              		@ args = 0, pretend = 0, frame = 8
 928              		@ frame_needed = 1, uses_anonymous_args = 0
 929              		@ link register save eliminated.
 930 0000 80B4     		push	{r7}
 931              		.cfi_def_cfa_offset 4
 932              		.cfi_offset 7, -4
 933 0002 83B0     		sub	sp, sp, #12
 934              		.cfi_def_cfa_offset 16
 935 0004 00AF     		add	r7, sp, #0
 936              		.cfi_def_cfa_register 7
 937 0006 0346     		mov	r3, r0
 938 0008 FB71     		strb	r3, [r7, #7]
 961:Generated_Source\PSoC5/USBFS_1.c ****     return (USBFS_1_EP[epNumber].apiEpState);
 939              		.loc 1 961 0
 940 000a FA79     		ldrb	r2, [r7, #7]	@ zero_extendqisi2
 941 000c 0649     		ldr	r1, .L47
 942 000e 1346     		mov	r3, r2
 943 0010 5B00     		lsls	r3, r3, #1
 944 0012 1344     		add	r3, r3, r2
 945 0014 9B00     		lsls	r3, r3, #2
 946 0016 0B44     		add	r3, r3, r1
 947 0018 0133     		adds	r3, r3, #1
 948 001a 1B78     		ldrb	r3, [r3]
 949 001c DBB2     		uxtb	r3, r3
 962:Generated_Source\PSoC5/USBFS_1.c **** }
 950              		.loc 1 962 0
 951 001e 1846     		mov	r0, r3
 952 0020 0C37     		adds	r7, r7, #12
 953              		.cfi_def_cfa_offset 4
 954 0022 BD46     		mov	sp, r7
 955              		.cfi_def_cfa_register 13
 956              		@ sp needed
 957 0024 80BC     		pop	{r7}
 958              		.cfi_restore 7
 959              		.cfi_def_cfa_offset 0
 960 0026 7047     		bx	lr
 961              	.L48:
 962              		.align	2
 963              	.L47:
 964 0028 00000000 		.word	USBFS_1_EP
 965              		.cfi_endproc
 966              	.LFE9:
 967              		.size	USBFS_1_GetEPState, .-USBFS_1_GetEPState
 968              		.section	.text.USBFS_1_GetEPCount,"ax",%progbits
 969              		.align	2
 970              		.global	USBFS_1_GetEPCount
 971              		.thumb
 972              		.thumb_func
ARM GAS  C:\Users\oars0\AppData\Local\Temp\ccNqJowk.s 			page 35


 973              		.type	USBFS_1_GetEPCount, %function
 974              	USBFS_1_GetEPCount:
 975              	.LFB10:
 963:Generated_Source\PSoC5/USBFS_1.c **** 
 964:Generated_Source\PSoC5/USBFS_1.c **** 
 965:Generated_Source\PSoC5/USBFS_1.c **** /*******************************************************************************
 966:Generated_Source\PSoC5/USBFS_1.c **** * Function Name: USBFS_1_GetEPCount
 967:Generated_Source\PSoC5/USBFS_1.c **** ****************************************************************************//**
 968:Generated_Source\PSoC5/USBFS_1.c **** *
 969:Generated_Source\PSoC5/USBFS_1.c **** *  This function supports Data Endpoints only(EP1-EP8).
 970:Generated_Source\PSoC5/USBFS_1.c **** *  Returns the transfer count for the requested endpoint.  The value from
 971:Generated_Source\PSoC5/USBFS_1.c **** *  the count registers includes 2 counts for the two byte checksum of the
 972:Generated_Source\PSoC5/USBFS_1.c **** *  packet.  This function subtracts the two counts.
 973:Generated_Source\PSoC5/USBFS_1.c **** *
 974:Generated_Source\PSoC5/USBFS_1.c **** *  \param epNumber Data Endpoint Number.
 975:Generated_Source\PSoC5/USBFS_1.c **** *                   Valid values are between 1 and 8.
 976:Generated_Source\PSoC5/USBFS_1.c **** *
 977:Generated_Source\PSoC5/USBFS_1.c **** * \return
 978:Generated_Source\PSoC5/USBFS_1.c **** *  Returns the current byte count from the specified endpoint or 0 for an
 979:Generated_Source\PSoC5/USBFS_1.c **** *  invalid endpoint.
 980:Generated_Source\PSoC5/USBFS_1.c **** *
 981:Generated_Source\PSoC5/USBFS_1.c **** *******************************************************************************/
 982:Generated_Source\PSoC5/USBFS_1.c **** uint16 USBFS_1_GetEPCount(uint8 epNumber) 
 983:Generated_Source\PSoC5/USBFS_1.c **** {
 976              		.loc 1 983 0
 977              		.cfi_startproc
 978              		@ args = 0, pretend = 0, frame = 16
 979              		@ frame_needed = 1, uses_anonymous_args = 0
 980              		@ link register save eliminated.
 981 0000 80B4     		push	{r7}
 982              		.cfi_def_cfa_offset 4
 983              		.cfi_offset 7, -4
 984 0002 85B0     		sub	sp, sp, #20
 985              		.cfi_def_cfa_offset 24
 986 0004 00AF     		add	r7, sp, #0
 987              		.cfi_def_cfa_register 7
 988 0006 0346     		mov	r3, r0
 989 0008 FB71     		strb	r3, [r7, #7]
 984:Generated_Source\PSoC5/USBFS_1.c ****     uint16 cntr = 0u;
 990              		.loc 1 984 0
 991 000a 0023     		movs	r3, #0
 992 000c FB81     		strh	r3, [r7, #14]	@ movhi
 985:Generated_Source\PSoC5/USBFS_1.c **** 
 986:Generated_Source\PSoC5/USBFS_1.c ****     if ((epNumber > USBFS_1_EP0) && (epNumber < USBFS_1_MAX_EP))
 993              		.loc 1 986 0
 994 000e FB79     		ldrb	r3, [r7, #7]	@ zero_extendqisi2
 995 0010 002B     		cmp	r3, #0
 996 0012 1CD0     		beq	.L50
 997              		.loc 1 986 0 is_stmt 0 discriminator 1
 998 0014 FB79     		ldrb	r3, [r7, #7]	@ zero_extendqisi2
 999 0016 082B     		cmp	r3, #8
 1000 0018 19D8     		bhi	.L50
 987:Generated_Source\PSoC5/USBFS_1.c ****     {
 988:Generated_Source\PSoC5/USBFS_1.c ****         /* Get 11-bits EP counter where epCnt0 - 3 bits MSB and epCnt1 - 8 bits LSB. */
 989:Generated_Source\PSoC5/USBFS_1.c ****         cntr  = ((uint16) USBFS_1_SIE_EP_BASE.sieEp[epNumber].epCnt0) & USBFS_1_EPX_CNT0_MASK;
 1001              		.loc 1 989 0 is_stmt 1
 1002 001a 104A     		ldr	r2, .L52
ARM GAS  C:\Users\oars0\AppData\Local\Temp\ccNqJowk.s 			page 36


 1003 001c FB79     		ldrb	r3, [r7, #7]	@ zero_extendqisi2
 1004 001e 1B01     		lsls	r3, r3, #4
 1005 0020 1344     		add	r3, r3, r2
 1006 0022 1B78     		ldrb	r3, [r3]
 1007 0024 DBB2     		uxtb	r3, r3
 1008 0026 9BB2     		uxth	r3, r3
 1009 0028 03F00F03 		and	r3, r3, #15
 1010 002c FB81     		strh	r3, [r7, #14]	@ movhi
 990:Generated_Source\PSoC5/USBFS_1.c ****         cntr  = ((uint16) (cntr << 8u)) | ((uint16) USBFS_1_SIE_EP_BASE.sieEp[epNumber].epCnt1);
 1011              		.loc 1 990 0
 1012 002e FB89     		ldrh	r3, [r7, #14]	@ movhi
 1013 0030 1B02     		lsls	r3, r3, #8
 1014 0032 9AB2     		uxth	r2, r3
 1015 0034 0949     		ldr	r1, .L52
 1016 0036 FB79     		ldrb	r3, [r7, #7]	@ zero_extendqisi2
 1017 0038 1B01     		lsls	r3, r3, #4
 1018 003a 0B44     		add	r3, r3, r1
 1019 003c 0133     		adds	r3, r3, #1
 1020 003e 1B78     		ldrb	r3, [r3]
 1021 0040 DBB2     		uxtb	r3, r3
 1022 0042 9BB2     		uxth	r3, r3
 1023 0044 1343     		orrs	r3, r3, r2
 1024 0046 FB81     		strh	r3, [r7, #14]	@ movhi
 991:Generated_Source\PSoC5/USBFS_1.c ****         cntr -= USBFS_1_EPX_CNTX_CRC_COUNT;
 1025              		.loc 1 991 0
 1026 0048 FB89     		ldrh	r3, [r7, #14]	@ movhi
 1027 004a 023B     		subs	r3, r3, #2
 1028 004c FB81     		strh	r3, [r7, #14]	@ movhi
 1029              	.L50:
 992:Generated_Source\PSoC5/USBFS_1.c ****     }
 993:Generated_Source\PSoC5/USBFS_1.c **** 
 994:Generated_Source\PSoC5/USBFS_1.c ****     return (cntr);
 1030              		.loc 1 994 0
 1031 004e FB89     		ldrh	r3, [r7, #14]
 995:Generated_Source\PSoC5/USBFS_1.c **** }
 1032              		.loc 1 995 0
 1033 0050 1846     		mov	r0, r3
 1034 0052 1437     		adds	r7, r7, #20
 1035              		.cfi_def_cfa_offset 4
 1036 0054 BD46     		mov	sp, r7
 1037              		.cfi_def_cfa_register 13
 1038              		@ sp needed
 1039 0056 80BC     		pop	{r7}
 1040              		.cfi_restore 7
 1041              		.cfi_def_cfa_offset 0
 1042 0058 7047     		bx	lr
 1043              	.L53:
 1044 005a 00BF     		.align	2
 1045              	.L52:
 1046 005c FC5F0040 		.word	1073766396
 1047              		.cfi_endproc
 1048              	.LFE10:
 1049              		.size	USBFS_1_GetEPCount, .-USBFS_1_GetEPCount
 1050              		.section	.text.USBFS_1_LoadInEP,"ax",%progbits
 1051              		.align	2
 1052              		.global	USBFS_1_LoadInEP
 1053              		.thumb
ARM GAS  C:\Users\oars0\AppData\Local\Temp\ccNqJowk.s 			page 37


 1054              		.thumb_func
 1055              		.type	USBFS_1_LoadInEP, %function
 1056              	USBFS_1_LoadInEP:
 1057              	.LFB11:
 996:Generated_Source\PSoC5/USBFS_1.c **** 
 997:Generated_Source\PSoC5/USBFS_1.c **** 
 998:Generated_Source\PSoC5/USBFS_1.c **** #if (USBFS_1_EP_MANAGEMENT_DMA)
 999:Generated_Source\PSoC5/USBFS_1.c **** #if (CY_PSOC4)
1000:Generated_Source\PSoC5/USBFS_1.c ****     /*******************************************************************************
1001:Generated_Source\PSoC5/USBFS_1.c ****     * Function Name: USBFS_1_InitEpDma
1002:Generated_Source\PSoC5/USBFS_1.c ****     ****************************************************************************//**
1003:Generated_Source\PSoC5/USBFS_1.c ****     *
1004:Generated_Source\PSoC5/USBFS_1.c ****     *  This function configures priority for all DMA channels utilized by the
1005:Generated_Source\PSoC5/USBFS_1.c ****     *  component. Also sets callbacks for DMA auto mode.
1006:Generated_Source\PSoC5/USBFS_1.c ****     *
1007:Generated_Source\PSoC5/USBFS_1.c ****     *******************************************************************************/
1008:Generated_Source\PSoC5/USBFS_1.c ****     static void USBFS_1_InitEpDma(void)
1009:Generated_Source\PSoC5/USBFS_1.c ****     {
1010:Generated_Source\PSoC5/USBFS_1.c ****     #if (USBFS_1_DMA1_ACTIVE)
1011:Generated_Source\PSoC5/USBFS_1.c ****         CYDMA_CH_CTL_BASE.ctl[USBFS_1_ep1_dma_CHANNEL] = USBFS_1_ep1_dma_CHANNEL_CFG;
1012:Generated_Source\PSoC5/USBFS_1.c ****     #endif /* (USBFS_1_DMA1_ACTIVE) */
1013:Generated_Source\PSoC5/USBFS_1.c **** 
1014:Generated_Source\PSoC5/USBFS_1.c ****     #if (USBFS_1_DMA2_ACTIVE)
1015:Generated_Source\PSoC5/USBFS_1.c ****         CYDMA_CH_CTL_BASE.ctl[USBFS_1_ep2_dma_CHANNEL] = USBFS_1_ep2_dma_CHANNEL_CFG;
1016:Generated_Source\PSoC5/USBFS_1.c ****     #endif /* (USBFS_1_DMA2_ACTIVE) */
1017:Generated_Source\PSoC5/USBFS_1.c **** 
1018:Generated_Source\PSoC5/USBFS_1.c ****     #if (USBFS_1_DMA3_ACTIVE)
1019:Generated_Source\PSoC5/USBFS_1.c ****         CYDMA_CH_CTL_BASE.ctl[USBFS_1_ep3_dma_CHANNEL] = USBFS_1_ep3_dma_CHANNEL_CFG;
1020:Generated_Source\PSoC5/USBFS_1.c ****     #endif /* (USBFS_1_DMA3_ACTIVE) */
1021:Generated_Source\PSoC5/USBFS_1.c **** 
1022:Generated_Source\PSoC5/USBFS_1.c ****     #if (USBFS_1_DMA4_ACTIVE)
1023:Generated_Source\PSoC5/USBFS_1.c ****         CYDMA_CH_CTL_BASE.ctl[USBFS_1_ep4_dma_CHANNEL] = USBFS_1_ep4_dma_CHANNEL_CFG;
1024:Generated_Source\PSoC5/USBFS_1.c ****     #endif /* (USBFS_1_DMA4_ACTIVE) */
1025:Generated_Source\PSoC5/USBFS_1.c **** 
1026:Generated_Source\PSoC5/USBFS_1.c ****     #if (USBFS_1_DMA5_ACTIVE)
1027:Generated_Source\PSoC5/USBFS_1.c ****         CYDMA_CH_CTL_BASE.ctl[USBFS_1_ep5_dma_CHANNEL] = USBFS_1_ep5_dma_CHANNEL_CFG;
1028:Generated_Source\PSoC5/USBFS_1.c ****     #endif /* (USBFS_1_DMA5_ACTIVE) */
1029:Generated_Source\PSoC5/USBFS_1.c **** 
1030:Generated_Source\PSoC5/USBFS_1.c ****     #if (USBFS_1_DMA6_ACTIVE)
1031:Generated_Source\PSoC5/USBFS_1.c ****         CYDMA_CH_CTL_BASE.ctl[USBFS_1_ep6_dma_CHANNEL] = USBFS_1_ep6_dma_CHANNEL_CFG;
1032:Generated_Source\PSoC5/USBFS_1.c ****     #endif /* (USBFS_1_DMA6_ACTIVE) */
1033:Generated_Source\PSoC5/USBFS_1.c **** 
1034:Generated_Source\PSoC5/USBFS_1.c ****     #if (USBFS_1_DMA7_ACTIVE)
1035:Generated_Source\PSoC5/USBFS_1.c ****         CYDMA_CH_CTL_BASE.ctl[USBFS_1_ep7_dma_CHANNEL] = USBFS_1_ep7_dma_CHANNEL_CFG;
1036:Generated_Source\PSoC5/USBFS_1.c ****     #endif /* (USBFS_1_DMA7_ACTIVE) */
1037:Generated_Source\PSoC5/USBFS_1.c **** 
1038:Generated_Source\PSoC5/USBFS_1.c ****     #if (USBFS_1_DMA8_ACTIVE)
1039:Generated_Source\PSoC5/USBFS_1.c ****         CYDMA_CH_CTL_BASE.ctl[USBFS_1_ep8_dma_CHANNEL] = USBFS_1_ep8_dma_CHANNEL_CFG;
1040:Generated_Source\PSoC5/USBFS_1.c ****     #endif /* (USBFS_1_DMA8_ACTIVE) */
1041:Generated_Source\PSoC5/USBFS_1.c **** 
1042:Generated_Source\PSoC5/USBFS_1.c ****     #if (USBFS_1_EP_MANAGEMENT_DMA_AUTO)
1043:Generated_Source\PSoC5/USBFS_1.c ****         /* Initialize DMA channel callbacks. */
1044:Generated_Source\PSoC5/USBFS_1.c ****         #if (USBFS_1_DMA1_ACTIVE)
1045:Generated_Source\PSoC5/USBFS_1.c ****             (void) USBFS_1_ep1_dma_SetInterruptCallback(&USBFS_1_EP1_DMA_DONE_ISR);
1046:Generated_Source\PSoC5/USBFS_1.c ****         #endif /* (USBFS_1_DMA1_ACTIVE) */
1047:Generated_Source\PSoC5/USBFS_1.c **** 
1048:Generated_Source\PSoC5/USBFS_1.c ****         #if (USBFS_1_DMA2_ACTIVE)
ARM GAS  C:\Users\oars0\AppData\Local\Temp\ccNqJowk.s 			page 38


1049:Generated_Source\PSoC5/USBFS_1.c ****             (void) USBFS_1_ep2_dma_SetInterruptCallback(&USBFS_1_EP2_DMA_DONE_ISR);
1050:Generated_Source\PSoC5/USBFS_1.c ****         #endif /* (USBFS_1_DMA2_ACTIVE) */
1051:Generated_Source\PSoC5/USBFS_1.c **** 
1052:Generated_Source\PSoC5/USBFS_1.c ****         #if (USBFS_1_DMA3_ACTIVE)
1053:Generated_Source\PSoC5/USBFS_1.c ****             (void) USBFS_1_ep3_dma_SetInterruptCallback(&USBFS_1_EP3_DMA_DONE_ISR);
1054:Generated_Source\PSoC5/USBFS_1.c ****         #endif /* (USBFS_1_DMA3_ACTIVE) */
1055:Generated_Source\PSoC5/USBFS_1.c **** 
1056:Generated_Source\PSoC5/USBFS_1.c ****         #if (USBFS_1_DMA4_ACTIVE)
1057:Generated_Source\PSoC5/USBFS_1.c ****             (void) USBFS_1_ep4_dma_SetInterruptCallback(&USBFS_1_EP4_DMA_DONE_ISR);
1058:Generated_Source\PSoC5/USBFS_1.c ****         #endif /* (USBFS_1_DMA4_ACTIVE) */
1059:Generated_Source\PSoC5/USBFS_1.c **** 
1060:Generated_Source\PSoC5/USBFS_1.c ****         #if (USBFS_1_DMA5_ACTIVE)
1061:Generated_Source\PSoC5/USBFS_1.c ****             (void) USBFS_1_ep5_dma_SetInterruptCallback(&USBFS_1_EP5_DMA_DONE_ISR);
1062:Generated_Source\PSoC5/USBFS_1.c ****         #endif /* (USBFS_1_DMA5_ACTIVE) */
1063:Generated_Source\PSoC5/USBFS_1.c **** 
1064:Generated_Source\PSoC5/USBFS_1.c ****         #if (USBFS_1_DMA6_ACTIVE)
1065:Generated_Source\PSoC5/USBFS_1.c ****             (void) USBFS_1_ep6_dma_SetInterruptCallback(&USBFS_1_EP6_DMA_DONE_ISR);
1066:Generated_Source\PSoC5/USBFS_1.c ****         #endif /* (USBFS_1_DMA6_ACTIVE) */
1067:Generated_Source\PSoC5/USBFS_1.c **** 
1068:Generated_Source\PSoC5/USBFS_1.c ****         #if (USBFS_1_DMA7_ACTIVE)
1069:Generated_Source\PSoC5/USBFS_1.c ****             (void) USBFS_1_ep7_dma_SetInterruptCallback(&USBFS_1_EP7_DMA_DONE_ISR);
1070:Generated_Source\PSoC5/USBFS_1.c ****         #endif /* (USBFS_1_DMA7_ACTIVE) */
1071:Generated_Source\PSoC5/USBFS_1.c **** 
1072:Generated_Source\PSoC5/USBFS_1.c ****         #if (USBFS_1_DMA8_ACTIVE)
1073:Generated_Source\PSoC5/USBFS_1.c ****             (void) USBFS_1_ep8_dma_SetInterruptCallback(&USBFS_1_EP8_DMA_DONE_ISR);
1074:Generated_Source\PSoC5/USBFS_1.c ****         #endif /* (USBFS_1_DMA8_ACTIVE) */
1075:Generated_Source\PSoC5/USBFS_1.c ****     #endif /* (USBFS_1_EP_MANAGEMENT_DMA_AUTO) */
1076:Generated_Source\PSoC5/USBFS_1.c ****     }
1077:Generated_Source\PSoC5/USBFS_1.c **** #else
1078:Generated_Source\PSoC5/USBFS_1.c **** 
1079:Generated_Source\PSoC5/USBFS_1.c **** 
1080:Generated_Source\PSoC5/USBFS_1.c ****     /***************************************************************************
1081:Generated_Source\PSoC5/USBFS_1.c ****     * Function Name: USBFS_1_InitEP_DMA
1082:Generated_Source\PSoC5/USBFS_1.c ****     ************************************************************************//**
1083:Generated_Source\PSoC5/USBFS_1.c ****     *
1084:Generated_Source\PSoC5/USBFS_1.c ****     *  This function allocates and initializes a DMA channel to be used by the
1085:Generated_Source\PSoC5/USBFS_1.c ****     *  USBFS_1_LoadInEP() or USBFS_1_ReadOutEP() APIs for data
1086:Generated_Source\PSoC5/USBFS_1.c ****     *  transfer. It is available when the Endpoint Memory Management parameter
1087:Generated_Source\PSoC5/USBFS_1.c ****     *  is set to DMA.
1088:Generated_Source\PSoC5/USBFS_1.c ****     *
1089:Generated_Source\PSoC5/USBFS_1.c ****     *  This function is automatically called from the USBFS_LoadInEP() and USBFS_ReadOutEP() APIs.
1090:Generated_Source\PSoC5/USBFS_1.c ****     *
1091:Generated_Source\PSoC5/USBFS_1.c ****     *  \param epNumber Contains the data endpoint number.
1092:Generated_Source\PSoC5/USBFS_1.c ****     *            Valid values are between 1 and 8.
1093:Generated_Source\PSoC5/USBFS_1.c ****     *  \param *pData Pointer to a data array that is related to the EP transfers.
1094:Generated_Source\PSoC5/USBFS_1.c ****     *
1095:Generated_Source\PSoC5/USBFS_1.c ****     * \reentrant No.
1096:Generated_Source\PSoC5/USBFS_1.c ****     *
1097:Generated_Source\PSoC5/USBFS_1.c ****     ***************************************************************************/
1098:Generated_Source\PSoC5/USBFS_1.c ****     void USBFS_1_InitEP_DMA(uint8 epNumber, const uint8 *pData)
1099:Generated_Source\PSoC5/USBFS_1.c ****                                                                     
1100:Generated_Source\PSoC5/USBFS_1.c ****     {
1101:Generated_Source\PSoC5/USBFS_1.c ****         uint16 src;
1102:Generated_Source\PSoC5/USBFS_1.c ****         uint16 dst;
1103:Generated_Source\PSoC5/USBFS_1.c **** 
1104:Generated_Source\PSoC5/USBFS_1.c ****     #if (CY_PSOC3)
1105:Generated_Source\PSoC5/USBFS_1.c ****         src = HI16(CYDEV_SRAM_BASE);
ARM GAS  C:\Users\oars0\AppData\Local\Temp\ccNqJowk.s 			page 39


1106:Generated_Source\PSoC5/USBFS_1.c ****         dst = HI16(CYDEV_PERIPH_BASE);
1107:Generated_Source\PSoC5/USBFS_1.c ****         pData = pData;
1108:Generated_Source\PSoC5/USBFS_1.c ****     #else
1109:Generated_Source\PSoC5/USBFS_1.c ****         if ((USBFS_1_EP[epNumber].addr & USBFS_1_DIR_IN) != 0u)
1110:Generated_Source\PSoC5/USBFS_1.c ****         {
1111:Generated_Source\PSoC5/USBFS_1.c ****             /* IN endpoint: source is memory buffer. */
1112:Generated_Source\PSoC5/USBFS_1.c ****             src = HI16(pData);
1113:Generated_Source\PSoC5/USBFS_1.c ****             dst = HI16(CYDEV_PERIPH_BASE);
1114:Generated_Source\PSoC5/USBFS_1.c ****         }
1115:Generated_Source\PSoC5/USBFS_1.c ****         else
1116:Generated_Source\PSoC5/USBFS_1.c ****         {
1117:Generated_Source\PSoC5/USBFS_1.c ****             /* OUT endpoint: source is USB IP memory buffer. */
1118:Generated_Source\PSoC5/USBFS_1.c ****             src = HI16(CYDEV_PERIPH_BASE);
1119:Generated_Source\PSoC5/USBFS_1.c ****             dst = HI16(pData);
1120:Generated_Source\PSoC5/USBFS_1.c ****         }
1121:Generated_Source\PSoC5/USBFS_1.c ****     #endif  /* (CY_PSOC3) */
1122:Generated_Source\PSoC5/USBFS_1.c **** 
1123:Generated_Source\PSoC5/USBFS_1.c ****         switch(epNumber)
1124:Generated_Source\PSoC5/USBFS_1.c ****         {
1125:Generated_Source\PSoC5/USBFS_1.c ****     #if (USBFS_1_DMA1_ACTIVE)
1126:Generated_Source\PSoC5/USBFS_1.c ****         case USBFS_1_EP1:
1127:Generated_Source\PSoC5/USBFS_1.c ****             USBFS_1_DmaChan[epNumber] = USBFS_1_ep1_DmaInitialize(USBFS_1_DMA_BYTES_PER_BURST,
1128:Generated_Source\PSoC5/USBFS_1.c ****                                                                                     USBFS_1_DMA_REQ
1129:Generated_Source\PSoC5/USBFS_1.c ****             break;
1130:Generated_Source\PSoC5/USBFS_1.c ****     #endif /* (USBFS_1_DMA1_ACTIVE) */
1131:Generated_Source\PSoC5/USBFS_1.c **** 
1132:Generated_Source\PSoC5/USBFS_1.c ****     #if (USBFS_1_DMA2_ACTIVE)
1133:Generated_Source\PSoC5/USBFS_1.c ****         case USBFS_1_EP2:
1134:Generated_Source\PSoC5/USBFS_1.c ****             USBFS_1_DmaChan[epNumber] = USBFS_1_ep2_DmaInitialize(USBFS_1_DMA_BYTES_PER_BURST,
1135:Generated_Source\PSoC5/USBFS_1.c ****                                                                                     USBFS_1_DMA_REQ
1136:Generated_Source\PSoC5/USBFS_1.c ****             break;
1137:Generated_Source\PSoC5/USBFS_1.c ****     #endif /* (USBFS_1_DMA2_ACTIVE) */
1138:Generated_Source\PSoC5/USBFS_1.c **** 
1139:Generated_Source\PSoC5/USBFS_1.c ****     #if (USBFS_1_DMA3_ACTIVE)
1140:Generated_Source\PSoC5/USBFS_1.c ****             case USBFS_1_EP3:
1141:Generated_Source\PSoC5/USBFS_1.c ****                 USBFS_1_DmaChan[epNumber] = USBFS_1_ep3_DmaInitialize(USBFS_1_DMA_BYTES_PER_BURST,
1142:Generated_Source\PSoC5/USBFS_1.c ****                                                                                         USBFS_1_DMA
1143:Generated_Source\PSoC5/USBFS_1.c ****             break;
1144:Generated_Source\PSoC5/USBFS_1.c ****     #endif /* (USBFS_1_DMA3_ACTIVE) */
1145:Generated_Source\PSoC5/USBFS_1.c **** 
1146:Generated_Source\PSoC5/USBFS_1.c ****     #if (USBFS_1_DMA4_ACTIVE)
1147:Generated_Source\PSoC5/USBFS_1.c ****             case USBFS_1_EP4:
1148:Generated_Source\PSoC5/USBFS_1.c ****                 USBFS_1_DmaChan[epNumber] = USBFS_1_ep4_DmaInitialize(USBFS_1_DMA_BYTES_PER_BURST,
1149:Generated_Source\PSoC5/USBFS_1.c ****                                                                                         USBFS_1_DMA
1150:Generated_Source\PSoC5/USBFS_1.c ****             break;
1151:Generated_Source\PSoC5/USBFS_1.c ****     #endif /* (USBFS_1_DMA4_ACTIVE) */
1152:Generated_Source\PSoC5/USBFS_1.c **** 
1153:Generated_Source\PSoC5/USBFS_1.c ****     #if (USBFS_1_DMA5_ACTIVE)
1154:Generated_Source\PSoC5/USBFS_1.c ****             case USBFS_1_EP5:
1155:Generated_Source\PSoC5/USBFS_1.c ****                 USBFS_1_DmaChan[epNumber] = USBFS_1_ep5_DmaInitialize(USBFS_1_DMA_BYTES_PER_BURST,
1156:Generated_Source\PSoC5/USBFS_1.c ****                                                                                         USBFS_1_DMA
1157:Generated_Source\PSoC5/USBFS_1.c ****             break;
1158:Generated_Source\PSoC5/USBFS_1.c ****     #endif /* (USBFS_1_DMA5_ACTIVE) */
1159:Generated_Source\PSoC5/USBFS_1.c **** 
1160:Generated_Source\PSoC5/USBFS_1.c ****     #if (USBFS_1_DMA6_ACTIVE)
1161:Generated_Source\PSoC5/USBFS_1.c ****         case USBFS_1_EP6:
1162:Generated_Source\PSoC5/USBFS_1.c ****             USBFS_1_DmaChan[epNumber] = USBFS_1_ep6_DmaInitialize(USBFS_1_DMA_BYTES_PER_BURST,
ARM GAS  C:\Users\oars0\AppData\Local\Temp\ccNqJowk.s 			page 40


1163:Generated_Source\PSoC5/USBFS_1.c ****                                                                                     USBFS_1_DMA_REQ
1164:Generated_Source\PSoC5/USBFS_1.c ****             break;
1165:Generated_Source\PSoC5/USBFS_1.c ****     #endif /* (USBFS_1_DMA6_ACTIVE) */
1166:Generated_Source\PSoC5/USBFS_1.c **** 
1167:Generated_Source\PSoC5/USBFS_1.c ****     #if (USBFS_1_DMA7_ACTIVE)
1168:Generated_Source\PSoC5/USBFS_1.c ****         case USBFS_1_EP7:
1169:Generated_Source\PSoC5/USBFS_1.c ****                 USBFS_1_DmaChan[epNumber] = USBFS_1_ep7_DmaInitialize(USBFS_1_DMA_BYTES_PER_BURST,
1170:Generated_Source\PSoC5/USBFS_1.c ****                                                                                         USBFS_1_DMA
1171:Generated_Source\PSoC5/USBFS_1.c ****             break;
1172:Generated_Source\PSoC5/USBFS_1.c ****     #endif /* (USBFS_1_DMA7_ACTIVE) */
1173:Generated_Source\PSoC5/USBFS_1.c **** 
1174:Generated_Source\PSoC5/USBFS_1.c ****     #if (USBFS_1_DMA8_ACTIVE)
1175:Generated_Source\PSoC5/USBFS_1.c ****         case USBFS_1_EP8:
1176:Generated_Source\PSoC5/USBFS_1.c ****                 USBFS_1_DmaChan[epNumber] = USBFS_1_ep8_DmaInitialize(USBFS_1_DMA_BYTES_PER_BURST,
1177:Generated_Source\PSoC5/USBFS_1.c ****                                                                                         USBFS_1_DMA
1178:Generated_Source\PSoC5/USBFS_1.c ****             break;
1179:Generated_Source\PSoC5/USBFS_1.c ****     #endif /* (USBFS_1_DMA8_ACTIVE) */
1180:Generated_Source\PSoC5/USBFS_1.c **** 
1181:Generated_Source\PSoC5/USBFS_1.c ****         default:
1182:Generated_Source\PSoC5/USBFS_1.c ****             /* Do nothing for endpoints other than 1-8. */
1183:Generated_Source\PSoC5/USBFS_1.c ****             break;
1184:Generated_Source\PSoC5/USBFS_1.c ****         }
1185:Generated_Source\PSoC5/USBFS_1.c **** 
1186:Generated_Source\PSoC5/USBFS_1.c ****         if ((epNumber > USBFS_1_EP0) && (epNumber < USBFS_1_MAX_EP))
1187:Generated_Source\PSoC5/USBFS_1.c ****         {
1188:Generated_Source\PSoC5/USBFS_1.c ****             USBFS_1_DmaTd[epNumber] = CyDmaTdAllocate();
1189:Generated_Source\PSoC5/USBFS_1.c **** 
1190:Generated_Source\PSoC5/USBFS_1.c ****         #if (USBFS_1_EP_MANAGEMENT_DMA_AUTO && (USBFS_1_EP_DMA_AUTO_OPT == 0u))
1191:Generated_Source\PSoC5/USBFS_1.c ****             USBFS_1_DmaNextTd[epNumber] = CyDmaTdAllocate();
1192:Generated_Source\PSoC5/USBFS_1.c ****         #endif /* (USBFS_1_EP_MANAGEMENT_DMA_AUTO && (USBFS_1_EP_DMA_AUTO_OPT == 0u)) */
1193:Generated_Source\PSoC5/USBFS_1.c ****         }
1194:Generated_Source\PSoC5/USBFS_1.c ****     }
1195:Generated_Source\PSoC5/USBFS_1.c **** #endif /* (CY_PSOC4) */
1196:Generated_Source\PSoC5/USBFS_1.c **** 
1197:Generated_Source\PSoC5/USBFS_1.c ****     /***************************************************************************
1198:Generated_Source\PSoC5/USBFS_1.c ****     * Function Name: USBFS_1_Stop_DMA
1199:Generated_Source\PSoC5/USBFS_1.c ****     ************************************************************************//**
1200:Generated_Source\PSoC5/USBFS_1.c ****     *  
1201:Generated_Source\PSoC5/USBFS_1.c ****     *  This function stops DMA channel associated with endpoint. It is available 
1202:Generated_Source\PSoC5/USBFS_1.c ****     *  when the Endpoint Buffer Management parameter is set to DMA. Call this 
1203:Generated_Source\PSoC5/USBFS_1.c ****     *  function when endpoint direction is changed from IN to OUT or vice versa 
1204:Generated_Source\PSoC5/USBFS_1.c ****     *  to trigger DMA re-configuration when USBFS_1_LoadInEP() or 
1205:Generated_Source\PSoC5/USBFS_1.c ****     *  USBFS_1_ReadOutEP() functions are called the first time. 
1206:Generated_Source\PSoC5/USBFS_1.c ****     *  
1207:Generated_Source\PSoC5/USBFS_1.c ****     *  \param epNumber: The data endpoint number for which associated DMA 
1208:Generated_Source\PSoC5/USBFS_1.c ****     *  channel is stopped. The range of valid values is between 1 and 8. To stop 
1209:Generated_Source\PSoC5/USBFS_1.c ****     *  all DMAs associated with endpoints call this function with 
1210:Generated_Source\PSoC5/USBFS_1.c ****     *  USBFS_1_MAX_EP argument.
1211:Generated_Source\PSoC5/USBFS_1.c ****     *
1212:Generated_Source\PSoC5/USBFS_1.c ****     * \reentrant
1213:Generated_Source\PSoC5/USBFS_1.c ****     *  No.
1214:Generated_Source\PSoC5/USBFS_1.c ****     *
1215:Generated_Source\PSoC5/USBFS_1.c ****     ***************************************************************************/
1216:Generated_Source\PSoC5/USBFS_1.c ****     void USBFS_1_Stop_DMA(uint8 epNumber) 
1217:Generated_Source\PSoC5/USBFS_1.c ****     {
1218:Generated_Source\PSoC5/USBFS_1.c ****         uint8 i;
1219:Generated_Source\PSoC5/USBFS_1.c **** 
ARM GAS  C:\Users\oars0\AppData\Local\Temp\ccNqJowk.s 			page 41


1220:Generated_Source\PSoC5/USBFS_1.c ****         i = (epNumber < USBFS_1_MAX_EP) ? epNumber : USBFS_1_EP1;
1221:Generated_Source\PSoC5/USBFS_1.c **** 
1222:Generated_Source\PSoC5/USBFS_1.c ****         do
1223:Generated_Source\PSoC5/USBFS_1.c ****         {
1224:Generated_Source\PSoC5/USBFS_1.c ****         #if (CY_PSOC4)
1225:Generated_Source\PSoC5/USBFS_1.c ****             if (0u != USBFS_1_DmaChan[i])
1226:Generated_Source\PSoC5/USBFS_1.c ****             {
1227:Generated_Source\PSoC5/USBFS_1.c ****                 USBFS_1_CyDmaChDisable(USBFS_1_DmaChan[i]);
1228:Generated_Source\PSoC5/USBFS_1.c ****             }
1229:Generated_Source\PSoC5/USBFS_1.c ****         #else
1230:Generated_Source\PSoC5/USBFS_1.c ****             if(USBFS_1_DmaTd[i] != DMA_INVALID_TD)
1231:Generated_Source\PSoC5/USBFS_1.c ****             {
1232:Generated_Source\PSoC5/USBFS_1.c ****                 (void) CyDmaChDisable(USBFS_1_DmaChan[i]);
1233:Generated_Source\PSoC5/USBFS_1.c ****                 CyDmaTdFree(USBFS_1_DmaTd[i]);
1234:Generated_Source\PSoC5/USBFS_1.c ****                 USBFS_1_DmaTd[i] = DMA_INVALID_TD;
1235:Generated_Source\PSoC5/USBFS_1.c ****             }
1236:Generated_Source\PSoC5/USBFS_1.c **** 
1237:Generated_Source\PSoC5/USBFS_1.c ****             #if (USBFS_1_EP_MANAGEMENT_DMA_AUTO && (USBFS_1_EP_DMA_AUTO_OPT == 0u))
1238:Generated_Source\PSoC5/USBFS_1.c ****                 if(USBFS_1_DmaNextTd[i] != DMA_INVALID_TD)
1239:Generated_Source\PSoC5/USBFS_1.c ****                 {
1240:Generated_Source\PSoC5/USBFS_1.c ****                     CyDmaTdFree(USBFS_1_DmaNextTd[i]);
1241:Generated_Source\PSoC5/USBFS_1.c ****                     USBFS_1_DmaNextTd[i] = DMA_INVALID_TD;
1242:Generated_Source\PSoC5/USBFS_1.c ****                 }
1243:Generated_Source\PSoC5/USBFS_1.c ****             #endif /* (USBFS_1_EP_MANAGEMENT_DMA_AUTO && (USBFS_1_EP_DMA_AUTO_OPT == 0u)) */
1244:Generated_Source\PSoC5/USBFS_1.c **** 
1245:Generated_Source\PSoC5/USBFS_1.c ****         #endif /* (CY_PSOC4) */
1246:Generated_Source\PSoC5/USBFS_1.c ****             i++;
1247:Generated_Source\PSoC5/USBFS_1.c ****         }
1248:Generated_Source\PSoC5/USBFS_1.c ****         while ((i < USBFS_1_MAX_EP) && (epNumber == USBFS_1_MAX_EP));
1249:Generated_Source\PSoC5/USBFS_1.c ****     }
1250:Generated_Source\PSoC5/USBFS_1.c **** #endif /* (USBFS_1_EP_MANAGEMENT_DMA) */
1251:Generated_Source\PSoC5/USBFS_1.c **** 
1252:Generated_Source\PSoC5/USBFS_1.c **** 
1253:Generated_Source\PSoC5/USBFS_1.c **** #if (CY_PSOC3 || CY_PSOC5)
1254:Generated_Source\PSoC5/USBFS_1.c **** #if (USBFS_1_EP_MANAGEMENT_DMA_AUTO && (USBFS_1_EP_DMA_AUTO_OPT == 0u))
1255:Generated_Source\PSoC5/USBFS_1.c ****     /***************************************************************************
1256:Generated_Source\PSoC5/USBFS_1.c ****     * Function Name: USBFS_1_LoadNextInEP
1257:Generated_Source\PSoC5/USBFS_1.c ****     ************************************************************************//**
1258:Generated_Source\PSoC5/USBFS_1.c ****     *
1259:Generated_Source\PSoC5/USBFS_1.c ****     * Summary:
1260:Generated_Source\PSoC5/USBFS_1.c ****     *  This internal function is used for IN endpoint DMA reconfiguration in
1261:Generated_Source\PSoC5/USBFS_1.c ****     *  Auto DMA mode.
1262:Generated_Source\PSoC5/USBFS_1.c ****     *
1263:Generated_Source\PSoC5/USBFS_1.c ****     * Parameters:
1264:Generated_Source\PSoC5/USBFS_1.c ****     *  epNumber: Contains the data endpoint number.
1265:Generated_Source\PSoC5/USBFS_1.c ****     *  mode:   0 - Configure DMA to send the the rest of data.
1266:Generated_Source\PSoC5/USBFS_1.c ****     *          1 - Configure DMA to repeat 2 last bytes of the first burst.
1267:Generated_Source\PSoC5/USBFS_1.c ****     *
1268:Generated_Source\PSoC5/USBFS_1.c ****     ***************************************************************************/
1269:Generated_Source\PSoC5/USBFS_1.c ****     void USBFS_1_LoadNextInEP(uint8 epNumber, uint8 mode) 
1270:Generated_Source\PSoC5/USBFS_1.c ****     {
1271:Generated_Source\PSoC5/USBFS_1.c ****         reg16 *convert;
1272:Generated_Source\PSoC5/USBFS_1.c **** 
1273:Generated_Source\PSoC5/USBFS_1.c ****         if (mode == 0u)
1274:Generated_Source\PSoC5/USBFS_1.c ****         {
1275:Generated_Source\PSoC5/USBFS_1.c ****             /* Configure DMA to send rest of data. */
1276:Generated_Source\PSoC5/USBFS_1.c ****             /* CyDmaTdSetConfiguration API is optimized to change transfer length only and configur
ARM GAS  C:\Users\oars0\AppData\Local\Temp\ccNqJowk.s 			page 42


1277:Generated_Source\PSoC5/USBFS_1.c ****             convert = (reg16 *) &CY_DMA_TDMEM_STRUCT_PTR[USBFS_1_DmaTd[epNumber]].TD0[0u];
1278:Generated_Source\PSoC5/USBFS_1.c ****             /* Set transfer length. */
1279:Generated_Source\PSoC5/USBFS_1.c ****             CY_SET_REG16(convert, USBFS_1_inLength[epNumber] - USBFS_1_DMA_BYTES_PER_BURST);
1280:Generated_Source\PSoC5/USBFS_1.c ****             /* CyDmaTdSetAddress API is optimized to change source address only. */
1281:Generated_Source\PSoC5/USBFS_1.c ****             convert = (reg16 *) &CY_DMA_TDMEM_STRUCT_PTR[USBFS_1_DmaTd[epNumber]].TD1[0u];
1282:Generated_Source\PSoC5/USBFS_1.c ****             CY_SET_REG16(convert, LO16((uint32)USBFS_1_inDataPointer[epNumber] +
1283:Generated_Source\PSoC5/USBFS_1.c ****                                             USBFS_1_DMA_BYTES_PER_BURST));
1284:Generated_Source\PSoC5/USBFS_1.c ****             USBFS_1_inBufFull[epNumber] = 1u;
1285:Generated_Source\PSoC5/USBFS_1.c ****         }
1286:Generated_Source\PSoC5/USBFS_1.c ****         else
1287:Generated_Source\PSoC5/USBFS_1.c ****         {
1288:Generated_Source\PSoC5/USBFS_1.c ****             /* Configure DMA to repeat 2 last bytes of the first burst. */
1289:Generated_Source\PSoC5/USBFS_1.c ****             /* CyDmaTdSetConfiguration API is optimized to change transfer length only and configur
1290:Generated_Source\PSoC5/USBFS_1.c ****             convert = (reg16 *) &CY_DMA_TDMEM_STRUCT_PTR[USBFS_1_DmaTd[epNumber]].TD0[0u];
1291:Generated_Source\PSoC5/USBFS_1.c ****             /* Set transfer length. */
1292:Generated_Source\PSoC5/USBFS_1.c ****             CY_SET_REG16(convert, USBFS_1_DMA_BYTES_REPEAT);
1293:Generated_Source\PSoC5/USBFS_1.c ****             /* CyDmaTdSetAddress API is optimized to change source address only. */
1294:Generated_Source\PSoC5/USBFS_1.c ****             convert = (reg16 *) &CY_DMA_TDMEM_STRUCT_PTR[USBFS_1_DmaTd[epNumber]].TD1[0u];
1295:Generated_Source\PSoC5/USBFS_1.c ****             CY_SET_REG16(convert,  LO16((uint32)USBFS_1_inDataPointer[epNumber] +
1296:Generated_Source\PSoC5/USBFS_1.c ****                                    (USBFS_1_DMA_BYTES_PER_BURST - USBFS_1_DMA_BYTES_REPEAT)));
1297:Generated_Source\PSoC5/USBFS_1.c ****         }
1298:Generated_Source\PSoC5/USBFS_1.c **** 
1299:Generated_Source\PSoC5/USBFS_1.c ****         /* CyDmaChSetInitialTd API is optimized to initialize TD. */
1300:Generated_Source\PSoC5/USBFS_1.c ****         CY_DMA_CH_STRUCT_PTR[USBFS_1_DmaChan[epNumber]].basic_status[1u] = USBFS_1_DmaTd[epNumber];
1301:Generated_Source\PSoC5/USBFS_1.c ****     }
1302:Generated_Source\PSoC5/USBFS_1.c **** #endif /* (USBFS_1_EP_MANAGEMENT_DMA_AUTO && (USBFS_1_EP_DMA_AUTO_OPT == 0u)) */
1303:Generated_Source\PSoC5/USBFS_1.c **** #endif /* (CY_PSOC3 || CY_PSOC5) */
1304:Generated_Source\PSoC5/USBFS_1.c **** 
1305:Generated_Source\PSoC5/USBFS_1.c **** 
1306:Generated_Source\PSoC5/USBFS_1.c **** /*******************************************************************************
1307:Generated_Source\PSoC5/USBFS_1.c **** * Function Name: USBFS_1_LoadInEP
1308:Generated_Source\PSoC5/USBFS_1.c **** ****************************************************************************//**
1309:Generated_Source\PSoC5/USBFS_1.c **** *
1310:Generated_Source\PSoC5/USBFS_1.c **** *  This function performs different functionality depending on the Component’s
1311:Generated_Source\PSoC5/USBFS_1.c **** *  configured Endpoint Buffer Management. This parameter is defined in
1312:Generated_Source\PSoC5/USBFS_1.c **** *  the Descriptor Root in Component Configure window.
1313:Generated_Source\PSoC5/USBFS_1.c **** *
1314:Generated_Source\PSoC5/USBFS_1.c **** *  *Manual (Static/Dynamic Allocation):*
1315:Generated_Source\PSoC5/USBFS_1.c **** *  This function loads and enables the specified USB data endpoint for an IN
1316:Generated_Source\PSoC5/USBFS_1.c **** *  data transfer.
1317:Generated_Source\PSoC5/USBFS_1.c **** *
1318:Generated_Source\PSoC5/USBFS_1.c **** *  *DMA with Manual Buffer Management:*
1319:Generated_Source\PSoC5/USBFS_1.c **** *  Configures DMA for a data transfer from system RAM to endpoint buffer.
1320:Generated_Source\PSoC5/USBFS_1.c **** *  Generates request for a transfer.
1321:Generated_Source\PSoC5/USBFS_1.c **** *
1322:Generated_Source\PSoC5/USBFS_1.c **** *  *DMA with Automatic Buffer Management:*
1323:Generated_Source\PSoC5/USBFS_1.c **** *  Configures DMA. This is required only once, so it is done only when parameter
1324:Generated_Source\PSoC5/USBFS_1.c **** *  pData is not NULL. When the pData pointer is NULL, the function skips this
1325:Generated_Source\PSoC5/USBFS_1.c **** *  task. Sets Data ready status: This generates the first DMA transfer and
1326:Generated_Source\PSoC5/USBFS_1.c **** *  prepares data in endpoint buffer.
1327:Generated_Source\PSoC5/USBFS_1.c **** *
1328:Generated_Source\PSoC5/USBFS_1.c **** *  \param epNumber Contains the data endpoint number.
1329:Generated_Source\PSoC5/USBFS_1.c **** *            Valid values are between 1 and 8.
1330:Generated_Source\PSoC5/USBFS_1.c **** *  \param *pData A pointer to a data array from which the data for the endpoint space
1331:Generated_Source\PSoC5/USBFS_1.c **** *          is loaded.
1332:Generated_Source\PSoC5/USBFS_1.c **** *  \param length The number of bytes to transfer from the array and then send as
1333:Generated_Source\PSoC5/USBFS_1.c **** *          a result of an IN request. Valid values are between 0 and 512
ARM GAS  C:\Users\oars0\AppData\Local\Temp\ccNqJowk.s 			page 43


1334:Generated_Source\PSoC5/USBFS_1.c **** *          (1023 for DMA with Automatic Buffer Management mode). The value 512
1335:Generated_Source\PSoC5/USBFS_1.c **** *          is applicable if only one endpoint is used.
1336:Generated_Source\PSoC5/USBFS_1.c **** *
1337:Generated_Source\PSoC5/USBFS_1.c **** *
1338:Generated_Source\PSoC5/USBFS_1.c **** * \reentrant
1339:Generated_Source\PSoC5/USBFS_1.c **** *  No.
1340:Generated_Source\PSoC5/USBFS_1.c **** *
1341:Generated_Source\PSoC5/USBFS_1.c **** *******************************************************************************/
1342:Generated_Source\PSoC5/USBFS_1.c **** void USBFS_1_LoadInEP(uint8 epNumber, const uint8 pData[], uint16 length)
1343:Generated_Source\PSoC5/USBFS_1.c ****                                                                         
1344:Generated_Source\PSoC5/USBFS_1.c **** {
 1058              		.loc 1 1344 0
 1059              		.cfi_startproc
 1060              		@ args = 0, pretend = 0, frame = 16
 1061              		@ frame_needed = 1, uses_anonymous_args = 0
 1062              		@ link register save eliminated.
 1063 0000 B0B4     		push	{r4, r5, r7}
 1064              		.cfi_def_cfa_offset 12
 1065              		.cfi_offset 4, -12
 1066              		.cfi_offset 5, -8
 1067              		.cfi_offset 7, -4
 1068 0002 85B0     		sub	sp, sp, #20
 1069              		.cfi_def_cfa_offset 32
 1070 0004 00AF     		add	r7, sp, #0
 1071              		.cfi_def_cfa_register 7
 1072 0006 0346     		mov	r3, r0
 1073 0008 3960     		str	r1, [r7]
 1074 000a FB71     		strb	r3, [r7, #7]
 1075 000c 1346     		mov	r3, r2	@ movhi
 1076 000e BB80     		strh	r3, [r7, #4]	@ movhi
1345:Generated_Source\PSoC5/USBFS_1.c ****     if ((epNumber > USBFS_1_EP0) && (epNumber < USBFS_1_MAX_EP))
 1077              		.loc 1 1345 0
 1078 0010 FB79     		ldrb	r3, [r7, #7]	@ zero_extendqisi2
 1079 0012 002B     		cmp	r3, #0
 1080 0014 6DD0     		beq	.L60
 1081              		.loc 1 1345 0 is_stmt 0 discriminator 1
 1082 0016 FB79     		ldrb	r3, [r7, #7]	@ zero_extendqisi2
 1083 0018 082B     		cmp	r3, #8
 1084 001a 6AD8     		bhi	.L60
1346:Generated_Source\PSoC5/USBFS_1.c ****     {
1347:Generated_Source\PSoC5/USBFS_1.c ****     #if (!USBFS_1_EP_MANAGEMENT_DMA_AUTO)
1348:Generated_Source\PSoC5/USBFS_1.c ****         /* Limit length to available buffer USB IP buffer size.*/
1349:Generated_Source\PSoC5/USBFS_1.c ****         if (length > (USBFS_1_EPX_DATA_BUF_MAX - USBFS_1_EP[epNumber].buffOffset))
 1085              		.loc 1 1349 0 is_stmt 1
 1086 001c B988     		ldrh	r1, [r7, #4]
 1087 001e FA79     		ldrb	r2, [r7, #7]	@ zero_extendqisi2
 1088 0020 3648     		ldr	r0, .L61
 1089 0022 1346     		mov	r3, r2
 1090 0024 5B00     		lsls	r3, r3, #1
 1091 0026 1344     		add	r3, r3, r2
 1092 0028 9B00     		lsls	r3, r3, #2
 1093 002a 0344     		add	r3, r3, r0
 1094 002c 0633     		adds	r3, r3, #6
 1095 002e 1B88     		ldrh	r3, [r3]	@ movhi
 1096 0030 9BB2     		uxth	r3, r3
 1097 0032 C3F50073 		rsb	r3, r3, #512
 1098 0036 9942     		cmp	r1, r3
ARM GAS  C:\Users\oars0\AppData\Local\Temp\ccNqJowk.s 			page 44


 1099 0038 0CD9     		bls	.L56
1350:Generated_Source\PSoC5/USBFS_1.c ****         {
1351:Generated_Source\PSoC5/USBFS_1.c ****             length = USBFS_1_EPX_DATA_BUF_MAX - USBFS_1_EP[epNumber].buffOffset;
 1100              		.loc 1 1351 0
 1101 003a FA79     		ldrb	r2, [r7, #7]	@ zero_extendqisi2
 1102 003c 2F49     		ldr	r1, .L61
 1103 003e 1346     		mov	r3, r2
 1104 0040 5B00     		lsls	r3, r3, #1
 1105 0042 1344     		add	r3, r3, r2
 1106 0044 9B00     		lsls	r3, r3, #2
 1107 0046 0B44     		add	r3, r3, r1
 1108 0048 0633     		adds	r3, r3, #6
 1109 004a 1B88     		ldrh	r3, [r3]	@ movhi
 1110 004c 9BB2     		uxth	r3, r3
 1111 004e C3F50073 		rsb	r3, r3, #512
 1112 0052 BB80     		strh	r3, [r7, #4]	@ movhi
 1113              	.L56:
1352:Generated_Source\PSoC5/USBFS_1.c ****         }
1353:Generated_Source\PSoC5/USBFS_1.c ****     #endif /* (!USBFS_1_EP_MANAGEMENT_DMA_AUTO) */
1354:Generated_Source\PSoC5/USBFS_1.c **** 
1355:Generated_Source\PSoC5/USBFS_1.c ****         /* Set count and data toggle. */
1356:Generated_Source\PSoC5/USBFS_1.c ****         USBFS_1_SIE_EP_BASE.sieEp[epNumber].epCnt0 = (uint8) HI8(length) | USBFS_1_EP[epNumber].epT
 1114              		.loc 1 1356 0
 1115 0054 2A4C     		ldr	r4, .L61+4
 1116 0056 F979     		ldrb	r1, [r7, #7]	@ zero_extendqisi2
 1117 0058 BB88     		ldrh	r3, [r7, #4]
 1118 005a 1B0A     		lsrs	r3, r3, #8
 1119 005c 9BB2     		uxth	r3, r3
 1120 005e D8B2     		uxtb	r0, r3
 1121 0060 FA79     		ldrb	r2, [r7, #7]	@ zero_extendqisi2
 1122 0062 264D     		ldr	r5, .L61
 1123 0064 1346     		mov	r3, r2
 1124 0066 5B00     		lsls	r3, r3, #1
 1125 0068 1344     		add	r3, r3, r2
 1126 006a 9B00     		lsls	r3, r3, #2
 1127 006c 2B44     		add	r3, r3, r5
 1128 006e 0333     		adds	r3, r3, #3
 1129 0070 1B78     		ldrb	r3, [r3]
 1130 0072 DBB2     		uxtb	r3, r3
 1131 0074 0343     		orrs	r3, r3, r0
 1132 0076 DAB2     		uxtb	r2, r3
 1133 0078 0B01     		lsls	r3, r1, #4
 1134 007a 2344     		add	r3, r3, r4
 1135 007c 1A70     		strb	r2, [r3]
1357:Generated_Source\PSoC5/USBFS_1.c ****         USBFS_1_SIE_EP_BASE.sieEp[epNumber].epCnt1 = (uint8) LO8(length);
 1136              		.loc 1 1357 0
 1137 007e 204A     		ldr	r2, .L61+4
 1138 0080 FB79     		ldrb	r3, [r7, #7]	@ zero_extendqisi2
 1139 0082 B988     		ldrh	r1, [r7, #4]	@ movhi
 1140 0084 C9B2     		uxtb	r1, r1
 1141 0086 1B01     		lsls	r3, r3, #4
 1142 0088 1344     		add	r3, r3, r2
 1143 008a 0133     		adds	r3, r3, #1
 1144 008c 0A46     		mov	r2, r1
 1145 008e 1A70     		strb	r2, [r3]
1358:Generated_Source\PSoC5/USBFS_1.c **** 
1359:Generated_Source\PSoC5/USBFS_1.c ****     #if (USBFS_1_EP_MANAGEMENT_MANUAL)
ARM GAS  C:\Users\oars0\AppData\Local\Temp\ccNqJowk.s 			page 45


1360:Generated_Source\PSoC5/USBFS_1.c ****         if (NULL != pData)
 1146              		.loc 1 1360 0
 1147 0090 3B68     		ldr	r3, [r7]
 1148 0092 002B     		cmp	r3, #0
 1149 0094 13D0     		beq	.L57
 1150              	.LBB2:
1361:Generated_Source\PSoC5/USBFS_1.c ****         {
1362:Generated_Source\PSoC5/USBFS_1.c **** 			/* Copy data using arbiter data register. */
1363:Generated_Source\PSoC5/USBFS_1.c ****             uint16 i;
1364:Generated_Source\PSoC5/USBFS_1.c ****             for (i = 0u; i < length; ++i)
 1151              		.loc 1 1364 0
 1152 0096 0023     		movs	r3, #0
 1153 0098 FB81     		strh	r3, [r7, #14]	@ movhi
 1154 009a 0CE0     		b	.L58
 1155              	.L59:
1365:Generated_Source\PSoC5/USBFS_1.c ****             {
1366:Generated_Source\PSoC5/USBFS_1.c ****                 USBFS_1_ARB_EP_BASE.arbEp[epNumber].rwDr = pData[i];
 1156              		.loc 1 1366 0 discriminator 3
 1157 009c 1948     		ldr	r0, .L61+8
 1158 009e FB79     		ldrb	r3, [r7, #7]	@ zero_extendqisi2
 1159 00a0 FA89     		ldrh	r2, [r7, #14]
 1160 00a2 3968     		ldr	r1, [r7]
 1161 00a4 0A44     		add	r2, r2, r1
 1162 00a6 1278     		ldrb	r2, [r2]	@ zero_extendqisi2
 1163 00a8 1B01     		lsls	r3, r3, #4
 1164 00aa 0344     		add	r3, r3, r0
 1165 00ac 0833     		adds	r3, r3, #8
 1166 00ae 1A70     		strb	r2, [r3]
1364:Generated_Source\PSoC5/USBFS_1.c ****             {
 1167              		.loc 1 1364 0 discriminator 3
 1168 00b0 FB89     		ldrh	r3, [r7, #14]	@ movhi
 1169 00b2 0133     		adds	r3, r3, #1
 1170 00b4 FB81     		strh	r3, [r7, #14]	@ movhi
 1171              	.L58:
1364:Generated_Source\PSoC5/USBFS_1.c ****             {
 1172              		.loc 1 1364 0 is_stmt 0 discriminator 1
 1173 00b6 FA89     		ldrh	r2, [r7, #14]
 1174 00b8 BB88     		ldrh	r3, [r7, #4]
 1175 00ba 9A42     		cmp	r2, r3
 1176 00bc EED3     		bcc	.L59
 1177              	.L57:
 1178              	.LBE2:
1367:Generated_Source\PSoC5/USBFS_1.c ****             }
1368:Generated_Source\PSoC5/USBFS_1.c ****         }
1369:Generated_Source\PSoC5/USBFS_1.c **** 
1370:Generated_Source\PSoC5/USBFS_1.c ****         /* IN endpoint buffer is full - read to be read. */
1371:Generated_Source\PSoC5/USBFS_1.c ****         USBFS_1_EP[epNumber].apiEpState = USBFS_1_NO_EVENT_PENDING;
 1179              		.loc 1 1371 0 is_stmt 1
 1180 00be FA79     		ldrb	r2, [r7, #7]	@ zero_extendqisi2
 1181 00c0 0E49     		ldr	r1, .L61
 1182 00c2 1346     		mov	r3, r2
 1183 00c4 5B00     		lsls	r3, r3, #1
 1184 00c6 1344     		add	r3, r3, r2
 1185 00c8 9B00     		lsls	r3, r3, #2
 1186 00ca 0B44     		add	r3, r3, r1
 1187 00cc 0133     		adds	r3, r3, #1
 1188 00ce 0022     		movs	r2, #0
ARM GAS  C:\Users\oars0\AppData\Local\Temp\ccNqJowk.s 			page 46


 1189 00d0 1A70     		strb	r2, [r3]
1372:Generated_Source\PSoC5/USBFS_1.c **** 
1373:Generated_Source\PSoC5/USBFS_1.c ****         /* Arm IN endpoint. */
1374:Generated_Source\PSoC5/USBFS_1.c ****         USBFS_1_SIE_EP_BASE.sieEp[epNumber].epCr0 = USBFS_1_EP[epNumber].epMode;
 1190              		.loc 1 1374 0
 1191 00d2 0B48     		ldr	r0, .L61+4
 1192 00d4 F979     		ldrb	r1, [r7, #7]	@ zero_extendqisi2
 1193 00d6 FA79     		ldrb	r2, [r7, #7]	@ zero_extendqisi2
 1194 00d8 084C     		ldr	r4, .L61
 1195 00da 1346     		mov	r3, r2
 1196 00dc 5B00     		lsls	r3, r3, #1
 1197 00de 1344     		add	r3, r3, r2
 1198 00e0 9B00     		lsls	r3, r3, #2
 1199 00e2 2344     		add	r3, r3, r4
 1200 00e4 0533     		adds	r3, r3, #5
 1201 00e6 1B78     		ldrb	r3, [r3]
 1202 00e8 DAB2     		uxtb	r2, r3
 1203 00ea 0B01     		lsls	r3, r1, #4
 1204 00ec 0344     		add	r3, r3, r0
 1205 00ee 0233     		adds	r3, r3, #2
 1206 00f0 1A70     		strb	r2, [r3]
 1207              	.L60:
1375:Generated_Source\PSoC5/USBFS_1.c **** 
1376:Generated_Source\PSoC5/USBFS_1.c ****     #else
1377:Generated_Source\PSoC5/USBFS_1.c **** 
1378:Generated_Source\PSoC5/USBFS_1.c ****         #if (CY_PSOC3 || CY_PSOC5LP)
1379:Generated_Source\PSoC5/USBFS_1.c ****             /* Initialize DMA if it was not initialized. */
1380:Generated_Source\PSoC5/USBFS_1.c ****             if (DMA_INVALID_TD == USBFS_1_DmaTd[epNumber])
1381:Generated_Source\PSoC5/USBFS_1.c ****             {
1382:Generated_Source\PSoC5/USBFS_1.c ****                 USBFS_1_InitEP_DMA(epNumber, pData);
1383:Generated_Source\PSoC5/USBFS_1.c ****             }
1384:Generated_Source\PSoC5/USBFS_1.c ****         #endif /* (CY_PSOC3 || CY_PSOC5LP) */
1385:Generated_Source\PSoC5/USBFS_1.c **** 
1386:Generated_Source\PSoC5/USBFS_1.c ****         #if (USBFS_1_EP_MANAGEMENT_DMA_MANUAL)
1387:Generated_Source\PSoC5/USBFS_1.c ****             /* IN endpoint buffer will be fully loaded by DMA shortly. */
1388:Generated_Source\PSoC5/USBFS_1.c ****             USBFS_1_EP[epNumber].apiEpState = USBFS_1_NO_EVENT_PENDING;
1389:Generated_Source\PSoC5/USBFS_1.c **** 
1390:Generated_Source\PSoC5/USBFS_1.c ****             if ((pData != NULL) && (length > 0u))
1391:Generated_Source\PSoC5/USBFS_1.c ****             {
1392:Generated_Source\PSoC5/USBFS_1.c ****             #if (CY_PSOC4)
1393:Generated_Source\PSoC5/USBFS_1.c ****                 uint32 channelNum = (uint32) USBFS_1_DmaChan[epNumber];
1394:Generated_Source\PSoC5/USBFS_1.c **** 
1395:Generated_Source\PSoC5/USBFS_1.c ****                 /* Disable DMA channel: start configuration. */
1396:Generated_Source\PSoC5/USBFS_1.c ****                 USBFS_1_CyDmaChDisable(channelNum);
1397:Generated_Source\PSoC5/USBFS_1.c **** 
1398:Generated_Source\PSoC5/USBFS_1.c ****                 /* Configure source and destination. */
1399:Generated_Source\PSoC5/USBFS_1.c ****                 USBFS_1_CyDmaSetSrcAddress(channelNum, USBFS_1_DMA_DESCR0, (void*) pData);
1400:Generated_Source\PSoC5/USBFS_1.c ****                 USBFS_1_CyDmaSetDstAddress(channelNum, USBFS_1_DMA_DESCR0, (void*) &USBFS_1_ARB_EP_
1401:Generated_Source\PSoC5/USBFS_1.c **** 
1402:Generated_Source\PSoC5/USBFS_1.c ****                 /* Configure DMA descriptor. */
1403:Generated_Source\PSoC5/USBFS_1.c ****                 --length;
1404:Generated_Source\PSoC5/USBFS_1.c ****                 USBFS_1_CyDmaSetConfiguration(channelNum, USBFS_1_DMA_DESCR0, USBFS_1_DMA_COMMON_CF
1405:Generated_Source\PSoC5/USBFS_1.c ****                                                         CYDMA_BYTE | CYDMA_ELEMENT_WORD | CYDMA_INC
1406:Generated_Source\PSoC5/USBFS_1.c **** 
1407:Generated_Source\PSoC5/USBFS_1.c ****                 /* Validate descriptor to execute on following DMA request. */
1408:Generated_Source\PSoC5/USBFS_1.c ****                 USBFS_1_CyDmaValidateDescriptor(channelNum, USBFS_1_DMA_DESCR0);
1409:Generated_Source\PSoC5/USBFS_1.c **** 
ARM GAS  C:\Users\oars0\AppData\Local\Temp\ccNqJowk.s 			page 47


1410:Generated_Source\PSoC5/USBFS_1.c ****                 /* Enable DMA channel: configuration complete. */
1411:Generated_Source\PSoC5/USBFS_1.c ****                 USBFS_1_CyDmaChEnable(channelNum);
1412:Generated_Source\PSoC5/USBFS_1.c ****             #else
1413:Generated_Source\PSoC5/USBFS_1.c ****                 /* Configure DMA to transfer data. */
1414:Generated_Source\PSoC5/USBFS_1.c ****                 (void) CyDmaChDisable(USBFS_1_DmaChan[epNumber]);
1415:Generated_Source\PSoC5/USBFS_1.c ****                 (void) CyDmaTdSetConfiguration(USBFS_1_DmaTd[epNumber], length, CY_DMA_DISABLE_TD, 
1416:Generated_Source\PSoC5/USBFS_1.c ****                 (void) CyDmaTdSetAddress(USBFS_1_DmaTd[epNumber], LO16((uint32) pData), LO16((uint3
1417:Generated_Source\PSoC5/USBFS_1.c **** 
1418:Generated_Source\PSoC5/USBFS_1.c ****                 /* Enable DMA channel. */
1419:Generated_Source\PSoC5/USBFS_1.c ****                 (void) CyDmaChSetInitialTd(USBFS_1_DmaChan[epNumber], USBFS_1_DmaTd[epNumber]);
1420:Generated_Source\PSoC5/USBFS_1.c ****                 (void) CyDmaChEnable(USBFS_1_DmaChan[epNumber], 1u);
1421:Generated_Source\PSoC5/USBFS_1.c ****             #endif /* (CY_PSOC4) */
1422:Generated_Source\PSoC5/USBFS_1.c **** 
1423:Generated_Source\PSoC5/USBFS_1.c ****                 /* Generate DMA request. */
1424:Generated_Source\PSoC5/USBFS_1.c ****                 USBFS_1_ARB_EP_BASE.arbEp[epNumber].epCfg |=  (uint8)  USBFS_1_ARB_EPX_CFG_DMA_REQ;
1425:Generated_Source\PSoC5/USBFS_1.c ****                 USBFS_1_ARB_EP_BASE.arbEp[epNumber].epCfg &=  (uint8) ~USBFS_1_ARB_EPX_CFG_DMA_REQ;
1426:Generated_Source\PSoC5/USBFS_1.c **** 
1427:Generated_Source\PSoC5/USBFS_1.c ****                 /* IN endpoint will be armed in ARB_ISR(source: IN_BUF_FULL) after first DMA transf
1428:Generated_Source\PSoC5/USBFS_1.c ****             }
1429:Generated_Source\PSoC5/USBFS_1.c ****             else
1430:Generated_Source\PSoC5/USBFS_1.c ****             {
1431:Generated_Source\PSoC5/USBFS_1.c ****                 /* When zero-length packet: arm IN endpoint directly. */
1432:Generated_Source\PSoC5/USBFS_1.c ****                 USBFS_1_SIE_EP_BASE.sieEp[epNumber].epCr0 = USBFS_1_EP[epNumber].epMode;
1433:Generated_Source\PSoC5/USBFS_1.c ****             }
1434:Generated_Source\PSoC5/USBFS_1.c ****         #endif /* (USBFS_1_EP_MANAGEMENT_DMA_MANUAL) */
1435:Generated_Source\PSoC5/USBFS_1.c **** 
1436:Generated_Source\PSoC5/USBFS_1.c ****         #if (USBFS_1_EP_MANAGEMENT_DMA_AUTO)
1437:Generated_Source\PSoC5/USBFS_1.c ****             if (pData != NULL)
1438:Generated_Source\PSoC5/USBFS_1.c ****             {
1439:Generated_Source\PSoC5/USBFS_1.c ****             #if (CY_PSOC4)
1440:Generated_Source\PSoC5/USBFS_1.c ****                 uint32 channelNum = (uint32) USBFS_1_DmaChan[epNumber];
1441:Generated_Source\PSoC5/USBFS_1.c **** 
1442:Generated_Source\PSoC5/USBFS_1.c ****                 /* Store address of buffer. */
1443:Generated_Source\PSoC5/USBFS_1.c ****                 USBFS_1_DmaEpBufferAddrBackup[epNumber] = (uint32) pData;
1444:Generated_Source\PSoC5/USBFS_1.c **** 
1445:Generated_Source\PSoC5/USBFS_1.c ****                 /* Disable DMA channel: start configuration. */
1446:Generated_Source\PSoC5/USBFS_1.c ****                 USBFS_1_CyDmaChDisable(channelNum);
1447:Generated_Source\PSoC5/USBFS_1.c **** 
1448:Generated_Source\PSoC5/USBFS_1.c ****                 /* Set destination address. */
1449:Generated_Source\PSoC5/USBFS_1.c ****                 USBFS_1_CyDmaSetDstAddress(channelNum, USBFS_1_DMA_DESCR0, (void*) &USBFS_1_ARB_EP_
1450:Generated_Source\PSoC5/USBFS_1.c ****                 USBFS_1_CyDmaSetDstAddress(channelNum, USBFS_1_DMA_DESCR1, (void*) &USBFS_1_ARB_EP_
1451:Generated_Source\PSoC5/USBFS_1.c **** 
1452:Generated_Source\PSoC5/USBFS_1.c ****                 /* Configure DMA descriptor. */
1453:Generated_Source\PSoC5/USBFS_1.c ****                 USBFS_1_CyDmaSetConfiguration(channelNum, USBFS_1_DMA_DESCR0, USBFS_1_DMA_COMMON_CF
1454:Generated_Source\PSoC5/USBFS_1.c ****                                                         CYDMA_BYTE | CYDMA_ELEMENT_WORD | CYDMA_INC
1455:Generated_Source\PSoC5/USBFS_1.c **** 
1456:Generated_Source\PSoC5/USBFS_1.c ****                 /* Configure DMA descriptor. */
1457:Generated_Source\PSoC5/USBFS_1.c ****                 USBFS_1_CyDmaSetConfiguration(channelNum, USBFS_1_DMA_DESCR1, USBFS_1_DMA_COMMON_CF
1458:Generated_Source\PSoC5/USBFS_1.c ****                                                         CYDMA_BYTE | CYDMA_ELEMENT_WORD | CYDMA_INC
1459:Generated_Source\PSoC5/USBFS_1.c **** 
1460:Generated_Source\PSoC5/USBFS_1.c ****                 /* Enable interrupt from DMA channel. */
1461:Generated_Source\PSoC5/USBFS_1.c ****                 USBFS_1_CyDmaSetInterruptMask(channelNum);
1462:Generated_Source\PSoC5/USBFS_1.c **** 
1463:Generated_Source\PSoC5/USBFS_1.c **** 
1464:Generated_Source\PSoC5/USBFS_1.c ****                 /* Enable DMA channel: configuration complete. */
1465:Generated_Source\PSoC5/USBFS_1.c ****                 USBFS_1_CyDmaChEnable(channelNum);
1466:Generated_Source\PSoC5/USBFS_1.c **** 
ARM GAS  C:\Users\oars0\AppData\Local\Temp\ccNqJowk.s 			page 48


1467:Generated_Source\PSoC5/USBFS_1.c ****             #else
1468:Generated_Source\PSoC5/USBFS_1.c ****                 (void) CyDmaChDisable(USBFS_1_DmaChan[epNumber]);
1469:Generated_Source\PSoC5/USBFS_1.c **** 
1470:Generated_Source\PSoC5/USBFS_1.c ****                 #if (USBFS_1_EP_DMA_AUTO_OPT == 0u)
1471:Generated_Source\PSoC5/USBFS_1.c ****                     USBFS_1_inLength[epNumber] = length;
1472:Generated_Source\PSoC5/USBFS_1.c ****                     USBFS_1_inDataPointer[epNumber] = pData;
1473:Generated_Source\PSoC5/USBFS_1.c **** 
1474:Generated_Source\PSoC5/USBFS_1.c ****                     /* Configure DMA to send data only for first burst */
1475:Generated_Source\PSoC5/USBFS_1.c ****                     (void) CyDmaTdSetConfiguration(USBFS_1_DmaTd[epNumber],
1476:Generated_Source\PSoC5/USBFS_1.c ****                         (length > USBFS_1_DMA_BYTES_PER_BURST) ? USBFS_1_DMA_BYTES_PER_BURST : leng
1477:Generated_Source\PSoC5/USBFS_1.c ****                         USBFS_1_DmaNextTd[epNumber], TD_TERMIN_EN | TD_INC_SRC_ADR);
1478:Generated_Source\PSoC5/USBFS_1.c ****                     (void) CyDmaTdSetAddress(USBFS_1_DmaTd[epNumber], LO16((uint32) pData),
1479:Generated_Source\PSoC5/USBFS_1.c ****                                                                                LO16((uint32) &USBFS
1480:Generated_Source\PSoC5/USBFS_1.c **** 
1481:Generated_Source\PSoC5/USBFS_1.c ****                     /* The second TD will be executed only when the first one fails.
1482:Generated_Source\PSoC5/USBFS_1.c ****                     *  The intention of this TD is to generate NRQ interrupt
1483:Generated_Source\PSoC5/USBFS_1.c ****                     *  and repeat 2 last bytes of the first burst.
1484:Generated_Source\PSoC5/USBFS_1.c ****                     */
1485:Generated_Source\PSoC5/USBFS_1.c ****                     (void) CyDmaTdSetConfiguration(USBFS_1_DmaNextTd[epNumber], 1u,
1486:Generated_Source\PSoC5/USBFS_1.c ****                                                    USBFS_1_DmaNextTd[epNumber],
1487:Generated_Source\PSoC5/USBFS_1.c ****                                                    USBFS_1_epX_TD_TERMOUT_EN[epNumber]);
1488:Generated_Source\PSoC5/USBFS_1.c **** 
1489:Generated_Source\PSoC5/USBFS_1.c ****                     /* Configure DmaNextTd to clear Data Ready status. */
1490:Generated_Source\PSoC5/USBFS_1.c ****                     (void) CyDmaTdSetAddress(USBFS_1_DmaNextTd[epNumber], LO16((uint32) &clearInDat
1491:Generated_Source\PSoC5/USBFS_1.c ****                                                                                    LO16((uint32) &U
1492:Generated_Source\PSoC5/USBFS_1.c ****                 #else
1493:Generated_Source\PSoC5/USBFS_1.c ****                     /* Configure DMA to send all data. */
1494:Generated_Source\PSoC5/USBFS_1.c ****                     (void) CyDmaTdSetConfiguration(USBFS_1_DmaTd[epNumber], length,
1495:Generated_Source\PSoC5/USBFS_1.c ****                                                    USBFS_1_DmaTd[epNumber], TD_TERMIN_EN | TD_INC_S
1496:Generated_Source\PSoC5/USBFS_1.c ****                     (void) CyDmaTdSetAddress(USBFS_1_DmaTd[epNumber], LO16((uint32) pData),
1497:Generated_Source\PSoC5/USBFS_1.c ****                                                                                LO16((uint32) &USBFS
1498:Generated_Source\PSoC5/USBFS_1.c ****                 #endif /* (USBFS_1_EP_DMA_AUTO_OPT == 0u) */
1499:Generated_Source\PSoC5/USBFS_1.c **** 
1500:Generated_Source\PSoC5/USBFS_1.c ****                 /* Clear any potential pending DMA requests before starting DMA channel to transfer
1501:Generated_Source\PSoC5/USBFS_1.c ****                 (void) CyDmaClearPendingDrq(USBFS_1_DmaChan[epNumber]);
1502:Generated_Source\PSoC5/USBFS_1.c ****                 /* Enable DMA. */
1503:Generated_Source\PSoC5/USBFS_1.c ****                 (void) CyDmaChSetInitialTd(USBFS_1_DmaChan[epNumber], USBFS_1_DmaTd[epNumber]);
1504:Generated_Source\PSoC5/USBFS_1.c ****                 (void) CyDmaChEnable(USBFS_1_DmaChan[epNumber], 1u);
1505:Generated_Source\PSoC5/USBFS_1.c ****             #endif /* (CY_PSOC4) */
1506:Generated_Source\PSoC5/USBFS_1.c ****             }
1507:Generated_Source\PSoC5/USBFS_1.c ****             else
1508:Generated_Source\PSoC5/USBFS_1.c ****             {
1509:Generated_Source\PSoC5/USBFS_1.c ****                 /* IN endpoint buffer (32 bytes) will shortly be preloaded by DMA. */
1510:Generated_Source\PSoC5/USBFS_1.c ****                 USBFS_1_EP[epNumber].apiEpState = USBFS_1_NO_EVENT_PENDING;
1511:Generated_Source\PSoC5/USBFS_1.c **** 
1512:Generated_Source\PSoC5/USBFS_1.c ****                 if (length > 0u)
1513:Generated_Source\PSoC5/USBFS_1.c ****                 {
1514:Generated_Source\PSoC5/USBFS_1.c ****                 #if (CY_PSOC4)
1515:Generated_Source\PSoC5/USBFS_1.c ****                     uint32 lengthDescr0, lengthDescr1;
1516:Generated_Source\PSoC5/USBFS_1.c ****                     uint32 channelNum = (uint32) USBFS_1_DmaChan[epNumber];
1517:Generated_Source\PSoC5/USBFS_1.c **** 
1518:Generated_Source\PSoC5/USBFS_1.c ****                     /* Get number of full bursts. */
1519:Generated_Source\PSoC5/USBFS_1.c ****                     USBFS_1_DmaEpBurstCnt[epNumber] = (uint8) (length / USBFS_1_DMA_BYTES_PER_BURST
1520:Generated_Source\PSoC5/USBFS_1.c **** 
1521:Generated_Source\PSoC5/USBFS_1.c ****                     /* Get number of elements in the last burst. */
1522:Generated_Source\PSoC5/USBFS_1.c ****                     USBFS_1_DmaEpLastBurstEl[epNumber] = (uint8) (length % USBFS_1_DMA_BYTES_PER_BU
1523:Generated_Source\PSoC5/USBFS_1.c **** 
ARM GAS  C:\Users\oars0\AppData\Local\Temp\ccNqJowk.s 			page 49


1524:Generated_Source\PSoC5/USBFS_1.c ****                     /* Get total number of bursts. */
1525:Generated_Source\PSoC5/USBFS_1.c ****                     USBFS_1_DmaEpBurstCnt[epNumber] += (0u != USBFS_1_DmaEpLastBurstEl[epNumber]) ?
1526:Generated_Source\PSoC5/USBFS_1.c **** 
1527:Generated_Source\PSoC5/USBFS_1.c ****                     /* Adjust number of data elements transferred in last burst. */
1528:Generated_Source\PSoC5/USBFS_1.c ****                     USBFS_1_DmaEpLastBurstEl[epNumber] = (0u != USBFS_1_DmaEpLastBurstEl[epNumber])
1529:Generated_Source\PSoC5/USBFS_1.c ****                                                                           (USBFS_1_DmaEpLastBurstEl
1530:Generated_Source\PSoC5/USBFS_1.c ****                                                                           (USBFS_1_DMA_BYTES_PER_BU
1531:Generated_Source\PSoC5/USBFS_1.c **** 
1532:Generated_Source\PSoC5/USBFS_1.c ****                     /* Get number of data elements to transfer for descriptor 0 and 1. */
1533:Generated_Source\PSoC5/USBFS_1.c ****                     lengthDescr0 = (1u == USBFS_1_DmaEpBurstCnt[epNumber]) ? USBFS_1_DmaEpLastBurst
1534:Generated_Source\PSoC5/USBFS_1.c ****                     lengthDescr1 = (2u == USBFS_1_DmaEpBurstCnt[epNumber]) ? USBFS_1_DmaEpLastBurst
1535:Generated_Source\PSoC5/USBFS_1.c **** 
1536:Generated_Source\PSoC5/USBFS_1.c **** 
1537:Generated_Source\PSoC5/USBFS_1.c ****                     /* Mark which descriptor is last one to execute. */
1538:Generated_Source\PSoC5/USBFS_1.c ****                     USBFS_1_DmaEpLastBurstEl[epNumber] |= (0u != (USBFS_1_DmaEpBurstCnt[epNumber] &
1539:Generated_Source\PSoC5/USBFS_1.c ****                                                                             USBFS_1_DMA_DESCR0_MASK
1540:Generated_Source\PSoC5/USBFS_1.c **** 
1541:Generated_Source\PSoC5/USBFS_1.c ****                     /* Restore DMA settings for current transfer. */
1542:Generated_Source\PSoC5/USBFS_1.c ****                     USBFS_1_CyDmaChDisable(channelNum);
1543:Generated_Source\PSoC5/USBFS_1.c **** 
1544:Generated_Source\PSoC5/USBFS_1.c ****                     /* Restore destination address for input endpoint. */
1545:Generated_Source\PSoC5/USBFS_1.c ****                     USBFS_1_CyDmaSetSrcAddress(channelNum, USBFS_1_DMA_DESCR0, (void*) ((uint32) US
1546:Generated_Source\PSoC5/USBFS_1.c ****                     USBFS_1_CyDmaSetSrcAddress(channelNum, USBFS_1_DMA_DESCR1, (void*) ((uint32) US
1547:Generated_Source\PSoC5/USBFS_1.c ****                                                                                                    
1548:Generated_Source\PSoC5/USBFS_1.c **** 
1549:Generated_Source\PSoC5/USBFS_1.c ****                     /* Set number of elements to transfer. */
1550:Generated_Source\PSoC5/USBFS_1.c ****                     USBFS_1_CyDmaSetNumDataElements(channelNum, USBFS_1_DMA_DESCR0, lengthDescr0);
1551:Generated_Source\PSoC5/USBFS_1.c ****                     USBFS_1_CyDmaSetNumDataElements(channelNum, USBFS_1_DMA_DESCR1, lengthDescr1);
1552:Generated_Source\PSoC5/USBFS_1.c **** 
1553:Generated_Source\PSoC5/USBFS_1.c ****                     /* Validate descriptor 0 and command to start with it. */
1554:Generated_Source\PSoC5/USBFS_1.c ****                     USBFS_1_CyDmaValidateDescriptor(channelNum, USBFS_1_DMA_DESCR0);
1555:Generated_Source\PSoC5/USBFS_1.c ****                     USBFS_1_CyDmaSetDescriptor0Next(channelNum);
1556:Generated_Source\PSoC5/USBFS_1.c **** 
1557:Generated_Source\PSoC5/USBFS_1.c ****                     /* Validate descriptor 1. */
1558:Generated_Source\PSoC5/USBFS_1.c ****                     if (USBFS_1_DmaEpBurstCnt[epNumber] > 1u)
1559:Generated_Source\PSoC5/USBFS_1.c ****                     {
1560:Generated_Source\PSoC5/USBFS_1.c ****                         USBFS_1_CyDmaValidateDescriptor(channelNum, USBFS_1_DMA_DESCR1); 
1561:Generated_Source\PSoC5/USBFS_1.c ****                     }                   
1562:Generated_Source\PSoC5/USBFS_1.c **** 
1563:Generated_Source\PSoC5/USBFS_1.c ****                     /* Adjust burst counter taking to account: 2 valid descriptors and interrupt tr
1564:Generated_Source\PSoC5/USBFS_1.c ****                     USBFS_1_DmaEpBurstCnt[epNumber] = USBFS_1_DMA_GET_BURST_CNT(USBFS_1_DmaEpBurstC
1565:Generated_Source\PSoC5/USBFS_1.c **** 
1566:Generated_Source\PSoC5/USBFS_1.c ****                     /* Enable DMA channel: configuration complete. */
1567:Generated_Source\PSoC5/USBFS_1.c ****                     USBFS_1_CyDmaChEnable(channelNum);
1568:Generated_Source\PSoC5/USBFS_1.c **** 
1569:Generated_Source\PSoC5/USBFS_1.c ****                 #elif (USBFS_1_EP_DMA_AUTO_OPT == 0u)
1570:Generated_Source\PSoC5/USBFS_1.c ****                     USBFS_1_inLength[epNumber]  = length;
1571:Generated_Source\PSoC5/USBFS_1.c ****                     USBFS_1_inBufFull[epNumber] = 0u;
1572:Generated_Source\PSoC5/USBFS_1.c **** 
1573:Generated_Source\PSoC5/USBFS_1.c ****                     (void) CyDmaChDisable(USBFS_1_DmaChan[epNumber]);
1574:Generated_Source\PSoC5/USBFS_1.c ****                     /* Configure DMA to send data only for first burst. */
1575:Generated_Source\PSoC5/USBFS_1.c ****                     (void) CyDmaTdSetConfiguration(
1576:Generated_Source\PSoC5/USBFS_1.c ****                         USBFS_1_DmaTd[epNumber], (length > USBFS_1_DMA_BYTES_PER_BURST) ?
1577:Generated_Source\PSoC5/USBFS_1.c ****                         USBFS_1_DMA_BYTES_PER_BURST : length,
1578:Generated_Source\PSoC5/USBFS_1.c ****                         USBFS_1_DmaNextTd[epNumber], TD_TERMIN_EN | TD_INC_SRC_ADR );
1579:Generated_Source\PSoC5/USBFS_1.c ****                     (void) CyDmaTdSetAddress(USBFS_1_DmaTd[epNumber], LO16((uint32)  USBFS_1_inData
1580:Generated_Source\PSoC5/USBFS_1.c ****                                                                                LO16((uint32) &USBFS
ARM GAS  C:\Users\oars0\AppData\Local\Temp\ccNqJowk.s 			page 50


1581:Generated_Source\PSoC5/USBFS_1.c ****                     /* Clear Any potential pending DMA requests before starting DMA channel to tran
1582:Generated_Source\PSoC5/USBFS_1.c ****                     (void) CyDmaClearPendingDrq(USBFS_1_DmaChan[epNumber]);
1583:Generated_Source\PSoC5/USBFS_1.c ****                     /* Enable DMA. */
1584:Generated_Source\PSoC5/USBFS_1.c ****                     (void) CyDmaChSetInitialTd(USBFS_1_DmaChan[epNumber], USBFS_1_DmaTd[epNumber]);
1585:Generated_Source\PSoC5/USBFS_1.c ****                     (void) CyDmaChEnable(USBFS_1_DmaChan[epNumber], 1u);
1586:Generated_Source\PSoC5/USBFS_1.c ****                 #endif /* (CY_PSOC4) */
1587:Generated_Source\PSoC5/USBFS_1.c **** 
1588:Generated_Source\PSoC5/USBFS_1.c ****                 #if !defined (USBFS_1_MANUAL_IN_EP_ARM)
1589:Generated_Source\PSoC5/USBFS_1.c ****                     /* Set IN data ready to generate DMA request to load data into endpoint buffer.
1590:Generated_Source\PSoC5/USBFS_1.c ****                     USBFS_1_ARB_EP_BASE.arbEp[epNumber].epCfg |= USBFS_1_ARB_EPX_CFG_IN_DATA_RDY;
1591:Generated_Source\PSoC5/USBFS_1.c ****                 #endif  /* (USBFS_1_MANUAL_IN_EP_ARM) */
1592:Generated_Source\PSoC5/USBFS_1.c **** 
1593:Generated_Source\PSoC5/USBFS_1.c ****                     /* IN endpoint will be armed in ARB_ISR(source: IN_BUF_FULL) after first DMA tr
1594:Generated_Source\PSoC5/USBFS_1.c ****                 }
1595:Generated_Source\PSoC5/USBFS_1.c ****                 else
1596:Generated_Source\PSoC5/USBFS_1.c ****                 {
1597:Generated_Source\PSoC5/USBFS_1.c ****                     /* When zero-length packet: arm IN endpoint directly. */
1598:Generated_Source\PSoC5/USBFS_1.c ****                     USBFS_1_SIE_EP_BASE.sieEp[epNumber].epCr0 = USBFS_1_EP[epNumber].epMode;
1599:Generated_Source\PSoC5/USBFS_1.c ****                 }
1600:Generated_Source\PSoC5/USBFS_1.c ****             }
1601:Generated_Source\PSoC5/USBFS_1.c ****         #endif /* (USBFS_1_EP_MANAGEMENT_DMA_AUTO) */
1602:Generated_Source\PSoC5/USBFS_1.c ****     #endif /* (USBFS_1_EP_MANAGEMENT_MANUAL) */
1603:Generated_Source\PSoC5/USBFS_1.c ****     }
1604:Generated_Source\PSoC5/USBFS_1.c **** }
 1208              		.loc 1 1604 0
 1209 00f2 00BF     		nop
 1210 00f4 1437     		adds	r7, r7, #20
 1211              		.cfi_def_cfa_offset 12
 1212 00f6 BD46     		mov	sp, r7
 1213              		.cfi_def_cfa_register 13
 1214              		@ sp needed
 1215 00f8 B0BC     		pop	{r4, r5, r7}
 1216              		.cfi_restore 7
 1217              		.cfi_restore 5
 1218              		.cfi_restore 4
 1219              		.cfi_def_cfa_offset 0
 1220 00fa 7047     		bx	lr
 1221              	.L62:
 1222              		.align	2
 1223              	.L61:
 1224 00fc 00000000 		.word	USBFS_1_EP
 1225 0100 FC5F0040 		.word	1073766396
 1226 0104 70600040 		.word	1073766512
 1227              		.cfi_endproc
 1228              	.LFE11:
 1229              		.size	USBFS_1_LoadInEP, .-USBFS_1_LoadInEP
 1230              		.section	.text.USBFS_1_ReadOutEP,"ax",%progbits
 1231              		.align	2
 1232              		.global	USBFS_1_ReadOutEP
 1233              		.thumb
 1234              		.thumb_func
 1235              		.type	USBFS_1_ReadOutEP, %function
 1236              	USBFS_1_ReadOutEP:
 1237              	.LFB12:
1605:Generated_Source\PSoC5/USBFS_1.c **** 
1606:Generated_Source\PSoC5/USBFS_1.c **** 
1607:Generated_Source\PSoC5/USBFS_1.c **** /*******************************************************************************
ARM GAS  C:\Users\oars0\AppData\Local\Temp\ccNqJowk.s 			page 51


1608:Generated_Source\PSoC5/USBFS_1.c **** * Function Name: USBFS_1_ReadOutEP
1609:Generated_Source\PSoC5/USBFS_1.c **** ****************************************************************************//**
1610:Generated_Source\PSoC5/USBFS_1.c **** *
1611:Generated_Source\PSoC5/USBFS_1.c **** *   This function performs different functionality depending on the Component’s
1612:Generated_Source\PSoC5/USBFS_1.c **** *   configured Endpoint Buffer Management. This parameter is defined in the
1613:Generated_Source\PSoC5/USBFS_1.c **** *   Descriptor Root in Component Configure window.
1614:Generated_Source\PSoC5/USBFS_1.c **** *
1615:Generated_Source\PSoC5/USBFS_1.c **** *   *Manual (Static/Dynamic Allocation):*
1616:Generated_Source\PSoC5/USBFS_1.c **** *   This function moves the specified number of bytes from endpoint buffer to
1617:Generated_Source\PSoC5/USBFS_1.c **** *   system RAM. The number of bytes actually transferred from endpoint buffer to
1618:Generated_Source\PSoC5/USBFS_1.c **** *   system RAM is the lesser of the actual number of bytes sent by the host or
1619:Generated_Source\PSoC5/USBFS_1.c **** *   the number of bytes requested by the length parameter.
1620:Generated_Source\PSoC5/USBFS_1.c **** *
1621:Generated_Source\PSoC5/USBFS_1.c **** *   *DMA with Manual Buffer Management:*
1622:Generated_Source\PSoC5/USBFS_1.c **** *   Configure DMA to transfer data from endpoint buffer to system RAM. Generate
1623:Generated_Source\PSoC5/USBFS_1.c **** *   a DMA request. The firmware must wait until the DMA completes the data
1624:Generated_Source\PSoC5/USBFS_1.c **** *   transfer after calling the USBFS_1_ReadOutEP() API. For example,
1625:Generated_Source\PSoC5/USBFS_1.c **** *   by checking EPstate:
1626:Generated_Source\PSoC5/USBFS_1.c **** *
1627:Generated_Source\PSoC5/USBFS_1.c **** *   \snippet /USBFS_sut_02.cydsn/main.c checking EPstatey
1628:Generated_Source\PSoC5/USBFS_1.c **** *
1629:Generated_Source\PSoC5/USBFS_1.c **** *   The USBFS_EnableOutEP() has to be called to allow host to write data into
1630:Generated_Source\PSoC5/USBFS_1.c **** *   the endpoint buffer after DMA has completed transfer data from OUT endpoint
1631:Generated_Source\PSoC5/USBFS_1.c **** *   buffer to SRAM.
1632:Generated_Source\PSoC5/USBFS_1.c **** *
1633:Generated_Source\PSoC5/USBFS_1.c **** *   *DMA with Automatic Buffer Management:*
1634:Generated_Source\PSoC5/USBFS_1.c **** *   Configure DMA. This is required only once and automatically generates DMA
1635:Generated_Source\PSoC5/USBFS_1.c **** *   requests as data arrives
1636:Generated_Source\PSoC5/USBFS_1.c **** *
1637:Generated_Source\PSoC5/USBFS_1.c **** *  \param epNumber: Contains the data endpoint number.
1638:Generated_Source\PSoC5/USBFS_1.c **** *            Valid values are between 1 and 8.
1639:Generated_Source\PSoC5/USBFS_1.c **** *  \param pData: A pointer to a data array from which the data for the endpoint
1640:Generated_Source\PSoC5/USBFS_1.c **** *         space is loaded.
1641:Generated_Source\PSoC5/USBFS_1.c **** *  \param length: The number of bytes to transfer from the USB Out endpoint and
1642:Generated_Source\PSoC5/USBFS_1.c **** *          loads it into data array. Valid values are between 0 and 1023. The
1643:Generated_Source\PSoC5/USBFS_1.c **** *          function moves fewer than the requested number of bytes if the host
1644:Generated_Source\PSoC5/USBFS_1.c **** *          sends fewer bytes than requested.
1645:Generated_Source\PSoC5/USBFS_1.c **** *
1646:Generated_Source\PSoC5/USBFS_1.c **** * \return
1647:Generated_Source\PSoC5/USBFS_1.c **** *  Number of bytes received, 0 for an invalid endpoint.
1648:Generated_Source\PSoC5/USBFS_1.c **** *
1649:Generated_Source\PSoC5/USBFS_1.c **** * \reentrant
1650:Generated_Source\PSoC5/USBFS_1.c **** *  No.
1651:Generated_Source\PSoC5/USBFS_1.c **** *
1652:Generated_Source\PSoC5/USBFS_1.c **** *******************************************************************************/
1653:Generated_Source\PSoC5/USBFS_1.c **** uint16 USBFS_1_ReadOutEP(uint8 epNumber, uint8 pData[], uint16 length)
1654:Generated_Source\PSoC5/USBFS_1.c ****                                                                         
1655:Generated_Source\PSoC5/USBFS_1.c **** {
 1238              		.loc 1 1655 0
 1239              		.cfi_startproc
 1240              		@ args = 0, pretend = 0, frame = 16
 1241              		@ frame_needed = 1, uses_anonymous_args = 0
 1242 0000 80B5     		push	{r7, lr}
 1243              		.cfi_def_cfa_offset 8
 1244              		.cfi_offset 7, -8
 1245              		.cfi_offset 14, -4
 1246 0002 84B0     		sub	sp, sp, #16
ARM GAS  C:\Users\oars0\AppData\Local\Temp\ccNqJowk.s 			page 52


 1247              		.cfi_def_cfa_offset 24
 1248 0004 00AF     		add	r7, sp, #0
 1249              		.cfi_def_cfa_register 7
 1250 0006 0346     		mov	r3, r0
 1251 0008 3960     		str	r1, [r7]
 1252 000a FB71     		strb	r3, [r7, #7]
 1253 000c 1346     		mov	r3, r2	@ movhi
 1254 000e BB80     		strh	r3, [r7, #4]	@ movhi
1656:Generated_Source\PSoC5/USBFS_1.c ****     if ((pData != NULL) && (epNumber > USBFS_1_EP0) && (epNumber < USBFS_1_MAX_EP))
 1255              		.loc 1 1656 0
 1256 0010 3B68     		ldr	r3, [r7]
 1257 0012 002B     		cmp	r3, #0
 1258 0014 30D0     		beq	.L64
 1259              		.loc 1 1656 0 is_stmt 0 discriminator 1
 1260 0016 FB79     		ldrb	r3, [r7, #7]	@ zero_extendqisi2
 1261 0018 002B     		cmp	r3, #0
 1262 001a 2DD0     		beq	.L64
 1263              		.loc 1 1656 0 discriminator 2
 1264 001c FB79     		ldrb	r3, [r7, #7]	@ zero_extendqisi2
 1265 001e 082B     		cmp	r3, #8
 1266 0020 2AD8     		bhi	.L64
1657:Generated_Source\PSoC5/USBFS_1.c ****     {
1658:Generated_Source\PSoC5/USBFS_1.c ****     #if (!USBFS_1_EP_MANAGEMENT_DMA_AUTO)
1659:Generated_Source\PSoC5/USBFS_1.c ****         /* Adjust requested length to available data. */
1660:Generated_Source\PSoC5/USBFS_1.c ****         length = (length > USBFS_1_GetEPCount(epNumber)) ? USBFS_1_GetEPCount(epNumber) : length;
 1267              		.loc 1 1660 0 is_stmt 1
 1268 0022 FB79     		ldrb	r3, [r7, #7]	@ zero_extendqisi2
 1269 0024 1846     		mov	r0, r3
 1270 0026 FFF7FEFF 		bl	USBFS_1_GetEPCount
 1271 002a 0346     		mov	r3, r0
 1272 002c 1A46     		mov	r2, r3
 1273 002e BB88     		ldrh	r3, [r7, #4]
 1274 0030 9342     		cmp	r3, r2
 1275 0032 05D9     		bls	.L65
 1276              		.loc 1 1660 0 is_stmt 0 discriminator 1
 1277 0034 FB79     		ldrb	r3, [r7, #7]	@ zero_extendqisi2
 1278 0036 1846     		mov	r0, r3
 1279 0038 FFF7FEFF 		bl	USBFS_1_GetEPCount
 1280 003c 0346     		mov	r3, r0
 1281 003e 00E0     		b	.L66
 1282              	.L65:
 1283              		.loc 1 1660 0 discriminator 2
 1284 0040 BB88     		ldrh	r3, [r7, #4]
 1285              	.L66:
 1286              		.loc 1 1660 0 discriminator 4
 1287 0042 BB80     		strh	r3, [r7, #4]	@ movhi
 1288              	.LBB3:
1661:Generated_Source\PSoC5/USBFS_1.c ****     #endif /* (!USBFS_1_EP_MANAGEMENT_DMA_AUTO) */
1662:Generated_Source\PSoC5/USBFS_1.c **** 
1663:Generated_Source\PSoC5/USBFS_1.c ****     #if (USBFS_1_EP_MANAGEMENT_MANUAL)
1664:Generated_Source\PSoC5/USBFS_1.c ****         {
1665:Generated_Source\PSoC5/USBFS_1.c ****             /* Copy data using arbiter data register. */
1666:Generated_Source\PSoC5/USBFS_1.c ****             uint16 i;
1667:Generated_Source\PSoC5/USBFS_1.c ****             for (i = 0u; i < length; ++i)
 1289              		.loc 1 1667 0 is_stmt 1 discriminator 4
 1290 0044 0023     		movs	r3, #0
 1291 0046 FB81     		strh	r3, [r7, #14]	@ movhi
ARM GAS  C:\Users\oars0\AppData\Local\Temp\ccNqJowk.s 			page 53


 1292 0048 0DE0     		b	.L67
 1293              	.L68:
1668:Generated_Source\PSoC5/USBFS_1.c ****             {
1669:Generated_Source\PSoC5/USBFS_1.c ****                 pData[i] = (uint8) USBFS_1_ARB_EP_BASE.arbEp[epNumber].rwDr;
 1294              		.loc 1 1669 0 discriminator 3
 1295 004a FB89     		ldrh	r3, [r7, #14]
 1296 004c 3A68     		ldr	r2, [r7]
 1297 004e 1344     		add	r3, r3, r2
 1298 0050 0D49     		ldr	r1, .L71
 1299 0052 FA79     		ldrb	r2, [r7, #7]	@ zero_extendqisi2
 1300 0054 1201     		lsls	r2, r2, #4
 1301 0056 0A44     		add	r2, r2, r1
 1302 0058 0832     		adds	r2, r2, #8
 1303 005a 1278     		ldrb	r2, [r2]
 1304 005c D2B2     		uxtb	r2, r2
 1305 005e 1A70     		strb	r2, [r3]
1667:Generated_Source\PSoC5/USBFS_1.c ****             {
 1306              		.loc 1 1667 0 discriminator 3
 1307 0060 FB89     		ldrh	r3, [r7, #14]	@ movhi
 1308 0062 0133     		adds	r3, r3, #1
 1309 0064 FB81     		strh	r3, [r7, #14]	@ movhi
 1310              	.L67:
1667:Generated_Source\PSoC5/USBFS_1.c ****             {
 1311              		.loc 1 1667 0 is_stmt 0 discriminator 1
 1312 0066 FA89     		ldrh	r2, [r7, #14]
 1313 0068 BB88     		ldrh	r3, [r7, #4]
 1314 006a 9A42     		cmp	r2, r3
 1315 006c EDD3     		bcc	.L68
 1316              	.LBE3:
1670:Generated_Source\PSoC5/USBFS_1.c ****             }
1671:Generated_Source\PSoC5/USBFS_1.c ****         }
1672:Generated_Source\PSoC5/USBFS_1.c **** 
1673:Generated_Source\PSoC5/USBFS_1.c ****         /* Arm OUT endpoint after data has been copied from endpoint buffer. */
1674:Generated_Source\PSoC5/USBFS_1.c ****         USBFS_1_EnableOutEP(epNumber);
 1317              		.loc 1 1674 0 is_stmt 1
 1318 006e FB79     		ldrb	r3, [r7, #7]	@ zero_extendqisi2
 1319 0070 1846     		mov	r0, r3
 1320 0072 FFF7FEFF 		bl	USBFS_1_EnableOutEP
 1321 0076 01E0     		b	.L69
 1322              	.L64:
1675:Generated_Source\PSoC5/USBFS_1.c ****     #else
1676:Generated_Source\PSoC5/USBFS_1.c **** 
1677:Generated_Source\PSoC5/USBFS_1.c ****         #if (CY_PSOC3 || CY_PSOC5LP)
1678:Generated_Source\PSoC5/USBFS_1.c ****             /* Initialize DMA if it was not initialized. */
1679:Generated_Source\PSoC5/USBFS_1.c ****             if (DMA_INVALID_TD == USBFS_1_DmaTd[epNumber])
1680:Generated_Source\PSoC5/USBFS_1.c ****             {
1681:Generated_Source\PSoC5/USBFS_1.c ****                 USBFS_1_InitEP_DMA(epNumber, pData);
1682:Generated_Source\PSoC5/USBFS_1.c ****             }
1683:Generated_Source\PSoC5/USBFS_1.c ****         #endif /* (CY_PSOC3 || CY_PSOC5LP) */
1684:Generated_Source\PSoC5/USBFS_1.c **** 
1685:Generated_Source\PSoC5/USBFS_1.c ****         #if (USBFS_1_EP_MANAGEMENT_DMA_MANUAL)
1686:Generated_Source\PSoC5/USBFS_1.c ****         #if (CY_PSOC4)
1687:Generated_Source\PSoC5/USBFS_1.c ****         {
1688:Generated_Source\PSoC5/USBFS_1.c ****             uint32 channelNum = (uint32) USBFS_1_DmaChan[epNumber];
1689:Generated_Source\PSoC5/USBFS_1.c **** 
1690:Generated_Source\PSoC5/USBFS_1.c ****             /* Disable DMA channel: start configuration. */
1691:Generated_Source\PSoC5/USBFS_1.c ****             USBFS_1_CyDmaChDisable(channelNum);
ARM GAS  C:\Users\oars0\AppData\Local\Temp\ccNqJowk.s 			page 54


1692:Generated_Source\PSoC5/USBFS_1.c **** 
1693:Generated_Source\PSoC5/USBFS_1.c ****             /* Configure source and destination. */
1694:Generated_Source\PSoC5/USBFS_1.c ****             USBFS_1_CyDmaSetSrcAddress(channelNum, USBFS_1_DMA_DESCR0, (void*) &USBFS_1_ARB_EP_BASE
1695:Generated_Source\PSoC5/USBFS_1.c ****             USBFS_1_CyDmaSetDstAddress(channelNum, USBFS_1_DMA_DESCR0, (void*) pData);
1696:Generated_Source\PSoC5/USBFS_1.c **** 
1697:Generated_Source\PSoC5/USBFS_1.c ****             /* Configure DMA descriptor. */
1698:Generated_Source\PSoC5/USBFS_1.c ****             USBFS_1_CyDmaSetConfiguration(channelNum, USBFS_1_DMA_DESCR0, USBFS_1_DMA_COMMON_CFG | 
1699:Generated_Source\PSoC5/USBFS_1.c ****                                                     CYDMA_BYTE | CYDMA_WORD_ELEMENT | CYDMA_INC_DST
1700:Generated_Source\PSoC5/USBFS_1.c **** 
1701:Generated_Source\PSoC5/USBFS_1.c ****             /* Validate descriptor to execute on following DMA request. */
1702:Generated_Source\PSoC5/USBFS_1.c ****             USBFS_1_CyDmaValidateDescriptor(channelNum, USBFS_1_DMA_DESCR0);
1703:Generated_Source\PSoC5/USBFS_1.c **** 
1704:Generated_Source\PSoC5/USBFS_1.c ****             /* Enable DMA channel: configuration complete. */
1705:Generated_Source\PSoC5/USBFS_1.c ****             USBFS_1_CyDmaChEnable(channelNum);
1706:Generated_Source\PSoC5/USBFS_1.c ****         }
1707:Generated_Source\PSoC5/USBFS_1.c ****         #else
1708:Generated_Source\PSoC5/USBFS_1.c ****             /* Configure DMA to transfer data. */
1709:Generated_Source\PSoC5/USBFS_1.c ****             (void) CyDmaChDisable(USBFS_1_DmaChan[epNumber]);
1710:Generated_Source\PSoC5/USBFS_1.c ****             (void) CyDmaTdSetConfiguration(USBFS_1_DmaTd[epNumber], length, CY_DMA_DISABLE_TD, TD_T
1711:Generated_Source\PSoC5/USBFS_1.c ****             (void) CyDmaTdSetAddress(USBFS_1_DmaTd[epNumber], LO16((uint32) &USBFS_1_ARB_EP_BASE.ar
1712:Generated_Source\PSoC5/USBFS_1.c **** 
1713:Generated_Source\PSoC5/USBFS_1.c ****             /* Enable DMA channel. */
1714:Generated_Source\PSoC5/USBFS_1.c ****             (void) CyDmaChSetInitialTd(USBFS_1_DmaChan[epNumber], USBFS_1_DmaTd[epNumber]);
1715:Generated_Source\PSoC5/USBFS_1.c ****             (void) CyDmaChEnable(USBFS_1_DmaChan[epNumber], 1u);
1716:Generated_Source\PSoC5/USBFS_1.c ****         #endif /* (CY_PSOC4) */
1717:Generated_Source\PSoC5/USBFS_1.c **** 
1718:Generated_Source\PSoC5/USBFS_1.c ****             /* Generate DMA request. */
1719:Generated_Source\PSoC5/USBFS_1.c ****             USBFS_1_ARB_EP_BASE.arbEp[epNumber].epCfg |=  (uint8)  USBFS_1_ARB_EPX_CFG_DMA_REQ;
1720:Generated_Source\PSoC5/USBFS_1.c ****             USBFS_1_ARB_EP_BASE.arbEp[epNumber].epCfg &=  (uint8) ~USBFS_1_ARB_EPX_CFG_DMA_REQ;
1721:Generated_Source\PSoC5/USBFS_1.c **** 
1722:Generated_Source\PSoC5/USBFS_1.c ****             /* OUT endpoint has to be armed again by user when DMA transfers have been completed.
1723:Generated_Source\PSoC5/USBFS_1.c ****             * NO_EVENT_PENDING: notifies that data has been copied from endpoint buffer.
1724:Generated_Source\PSoC5/USBFS_1.c ****             */
1725:Generated_Source\PSoC5/USBFS_1.c **** 
1726:Generated_Source\PSoC5/USBFS_1.c ****         #endif /* (USBFS_1_EP_MANAGEMENT_DMA_MANUAL) */
1727:Generated_Source\PSoC5/USBFS_1.c **** 
1728:Generated_Source\PSoC5/USBFS_1.c ****         #if (USBFS_1_EP_MANAGEMENT_DMA_AUTO)
1729:Generated_Source\PSoC5/USBFS_1.c ****         #if (CY_PSOC4)
1730:Generated_Source\PSoC5/USBFS_1.c ****         {
1731:Generated_Source\PSoC5/USBFS_1.c ****             uint32 channelNum = (uint32) USBFS_1_DmaChan[epNumber];
1732:Generated_Source\PSoC5/USBFS_1.c ****             uint32 lengthDescr0, lengthDescr1;
1733:Generated_Source\PSoC5/USBFS_1.c **** 
1734:Generated_Source\PSoC5/USBFS_1.c ****             /* Get number of full bursts. */
1735:Generated_Source\PSoC5/USBFS_1.c ****             USBFS_1_DmaEpBurstCnt[epNumber] = (uint8) (length / USBFS_1_DMA_BYTES_PER_BURST);
1736:Generated_Source\PSoC5/USBFS_1.c **** 
1737:Generated_Source\PSoC5/USBFS_1.c ****             /* Get number of elements in the last burst. */
1738:Generated_Source\PSoC5/USBFS_1.c ****             USBFS_1_DmaEpLastBurstEl[epNumber] = (uint8) (length % USBFS_1_DMA_BYTES_PER_BURST);
1739:Generated_Source\PSoC5/USBFS_1.c **** 
1740:Generated_Source\PSoC5/USBFS_1.c ****             /* Get total number of bursts. */
1741:Generated_Source\PSoC5/USBFS_1.c ****             USBFS_1_DmaEpBurstCnt[epNumber] += (0u != USBFS_1_DmaEpLastBurstEl[epNumber]) ? 1u : 0u
1742:Generated_Source\PSoC5/USBFS_1.c **** 
1743:Generated_Source\PSoC5/USBFS_1.c ****             /* Adjust number of the data elements transfered in last burst. */
1744:Generated_Source\PSoC5/USBFS_1.c ****             USBFS_1_DmaEpLastBurstEl[epNumber] = (0u != USBFS_1_DmaEpLastBurstEl[epNumber]) ?
1745:Generated_Source\PSoC5/USBFS_1.c ****                                                                   (USBFS_1_DmaEpLastBurstEl[epNumbe
1746:Generated_Source\PSoC5/USBFS_1.c ****                                                                   (USBFS_1_DMA_BYTES_PER_BURST - 1u
1747:Generated_Source\PSoC5/USBFS_1.c **** 
1748:Generated_Source\PSoC5/USBFS_1.c ****             /* Get number of data elements to transfer for descriptor 0 and 1. */
ARM GAS  C:\Users\oars0\AppData\Local\Temp\ccNqJowk.s 			page 55


1749:Generated_Source\PSoC5/USBFS_1.c ****             lengthDescr0 = (1u == USBFS_1_DmaEpBurstCnt[epNumber]) ? USBFS_1_DmaEpLastBurstEl[epNum
1750:Generated_Source\PSoC5/USBFS_1.c ****             lengthDescr1 = (2u == USBFS_1_DmaEpBurstCnt[epNumber]) ? USBFS_1_DmaEpLastBurstEl[epNum
1751:Generated_Source\PSoC5/USBFS_1.c **** 
1752:Generated_Source\PSoC5/USBFS_1.c ****             /* Mark if revert number of data elements in descriptor after transfer completion. */
1753:Generated_Source\PSoC5/USBFS_1.c ****             USBFS_1_DmaEpLastBurstEl[epNumber] |= (USBFS_1_DmaEpBurstCnt[epNumber] > 2u) ? USBFS_1_
1754:Generated_Source\PSoC5/USBFS_1.c **** 
1755:Generated_Source\PSoC5/USBFS_1.c ****             /* Mark last descriptor to be executed. */
1756:Generated_Source\PSoC5/USBFS_1.c ****             USBFS_1_DmaEpLastBurstEl[epNumber] |= (0u != (USBFS_1_DmaEpBurstCnt[epNumber] & 0x1u)) 
1757:Generated_Source\PSoC5/USBFS_1.c ****                                                                     USBFS_1_DMA_DESCR0_MASK : USBFS
1758:Generated_Source\PSoC5/USBFS_1.c **** 
1759:Generated_Source\PSoC5/USBFS_1.c ****             /* Store address of buffer and burst counter for endpoint. */
1760:Generated_Source\PSoC5/USBFS_1.c ****             USBFS_1_DmaEpBufferAddrBackup[epNumber] = (uint32) pData;
1761:Generated_Source\PSoC5/USBFS_1.c ****             USBFS_1_DmaEpBurstCntBackup[epNumber]   = USBFS_1_DmaEpBurstCnt[epNumber];
1762:Generated_Source\PSoC5/USBFS_1.c **** 
1763:Generated_Source\PSoC5/USBFS_1.c ****             /* Adjust burst counter taking to account: 2 valid descriptors and interrupt trigger af
1764:Generated_Source\PSoC5/USBFS_1.c ****             USBFS_1_DmaEpBurstCnt[epNumber] = USBFS_1_DMA_GET_BURST_CNT(USBFS_1_DmaEpBurstCnt[epNum
1765:Generated_Source\PSoC5/USBFS_1.c **** 
1766:Generated_Source\PSoC5/USBFS_1.c ****             /* Disable DMA channel: start configuration. */
1767:Generated_Source\PSoC5/USBFS_1.c ****             USBFS_1_CyDmaChDisable(channelNum);
1768:Generated_Source\PSoC5/USBFS_1.c **** 
1769:Generated_Source\PSoC5/USBFS_1.c ****             /* Set destination address. */
1770:Generated_Source\PSoC5/USBFS_1.c ****             USBFS_1_CyDmaSetSrcAddress(channelNum, USBFS_1_DMA_DESCR0, (void*) &USBFS_1_ARB_EP_BASE
1771:Generated_Source\PSoC5/USBFS_1.c ****             USBFS_1_CyDmaSetSrcAddress(channelNum, USBFS_1_DMA_DESCR1, (void*) &USBFS_1_ARB_EP_BASE
1772:Generated_Source\PSoC5/USBFS_1.c **** 
1773:Generated_Source\PSoC5/USBFS_1.c ****             USBFS_1_CyDmaSetDstAddress(channelNum, USBFS_1_DMA_DESCR0, (void*) ((uint32) pData));
1774:Generated_Source\PSoC5/USBFS_1.c ****             USBFS_1_CyDmaSetDstAddress(channelNum, USBFS_1_DMA_DESCR1, (void*) ((uint32) pData + US
1775:Generated_Source\PSoC5/USBFS_1.c **** 
1776:Generated_Source\PSoC5/USBFS_1.c ****             /* Configure DMA descriptor. */
1777:Generated_Source\PSoC5/USBFS_1.c ****             USBFS_1_CyDmaSetConfiguration(channelNum, USBFS_1_DMA_DESCR0, USBFS_1_DMA_COMMON_CFG  |
1778:Generated_Source\PSoC5/USBFS_1.c ****                                                     CYDMA_BYTE | CYDMA_WORD_ELEMENT | CYDMA_INC_DST
1779:Generated_Source\PSoC5/USBFS_1.c **** 
1780:Generated_Source\PSoC5/USBFS_1.c ****             /* Configure DMA descriptor. */
1781:Generated_Source\PSoC5/USBFS_1.c ****             USBFS_1_CyDmaSetConfiguration(channelNum, USBFS_1_DMA_DESCR1, USBFS_1_DMA_COMMON_CFG  |
1782:Generated_Source\PSoC5/USBFS_1.c ****                                                     CYDMA_BYTE | CYDMA_WORD_ELEMENT | CYDMA_INC_DST
1783:Generated_Source\PSoC5/USBFS_1.c **** 
1784:Generated_Source\PSoC5/USBFS_1.c ****             /* Enable interrupt from DMA channel. */
1785:Generated_Source\PSoC5/USBFS_1.c ****             USBFS_1_CyDmaSetInterruptMask(channelNum);
1786:Generated_Source\PSoC5/USBFS_1.c **** 
1787:Generated_Source\PSoC5/USBFS_1.c ****             /* Validate DMA descriptor 0 and 1. */
1788:Generated_Source\PSoC5/USBFS_1.c ****             USBFS_1_CyDmaValidateDescriptor(channelNum, USBFS_1_DMA_DESCR0);
1789:Generated_Source\PSoC5/USBFS_1.c **** 
1790:Generated_Source\PSoC5/USBFS_1.c ****             if (USBFS_1_DmaEpBurstCntBackup[epNumber] > 1u)
1791:Generated_Source\PSoC5/USBFS_1.c ****             {
1792:Generated_Source\PSoC5/USBFS_1.c ****                 USBFS_1_CyDmaValidateDescriptor(channelNum, USBFS_1_DMA_DESCR1);
1793:Generated_Source\PSoC5/USBFS_1.c ****             }
1794:Generated_Source\PSoC5/USBFS_1.c **** 
1795:Generated_Source\PSoC5/USBFS_1.c ****             /* Enable DMA channel: configuration complete. */
1796:Generated_Source\PSoC5/USBFS_1.c ****             USBFS_1_CyDmaChEnable(channelNum);
1797:Generated_Source\PSoC5/USBFS_1.c ****         }
1798:Generated_Source\PSoC5/USBFS_1.c ****         #else
1799:Generated_Source\PSoC5/USBFS_1.c ****             (void) CyDmaChDisable(USBFS_1_DmaChan[epNumber]);
1800:Generated_Source\PSoC5/USBFS_1.c ****             (void) CyDmaTdSetConfiguration(USBFS_1_DmaTd[epNumber], length,  USBFS_1_DmaTd[epNumber
1801:Generated_Source\PSoC5/USBFS_1.c ****             (void) CyDmaTdSetAddress(USBFS_1_DmaTd[epNumber], LO16((uint32) &USBFS_1_ARB_EP_BASE.ar
1802:Generated_Source\PSoC5/USBFS_1.c **** 
1803:Generated_Source\PSoC5/USBFS_1.c ****             /* Clear Any potential pending DMA requests before starting DMA channel to transfer dat
1804:Generated_Source\PSoC5/USBFS_1.c ****             (void) CyDmaClearPendingDrq(USBFS_1_DmaChan[epNumber]);
1805:Generated_Source\PSoC5/USBFS_1.c **** 
ARM GAS  C:\Users\oars0\AppData\Local\Temp\ccNqJowk.s 			page 56


1806:Generated_Source\PSoC5/USBFS_1.c ****             /* Enable DMA channel. */
1807:Generated_Source\PSoC5/USBFS_1.c ****             (void) CyDmaChSetInitialTd(USBFS_1_DmaChan[epNumber], USBFS_1_DmaTd[epNumber]);
1808:Generated_Source\PSoC5/USBFS_1.c ****             (void) CyDmaChEnable(USBFS_1_DmaChan[epNumber], 1u);
1809:Generated_Source\PSoC5/USBFS_1.c ****         #endif /* (CY_PSOC4) */
1810:Generated_Source\PSoC5/USBFS_1.c **** 
1811:Generated_Source\PSoC5/USBFS_1.c ****             /* OUT endpoint has to be armed again by user when DMA transfers have been completed.
1812:Generated_Source\PSoC5/USBFS_1.c ****             * NO_EVENT_PENDING: notifies that data has been copied from endpoint buffer.
1813:Generated_Source\PSoC5/USBFS_1.c ****             */
1814:Generated_Source\PSoC5/USBFS_1.c **** 
1815:Generated_Source\PSoC5/USBFS_1.c ****         #endif /* (USBFS_1_EP_MANAGEMENT_DMA_AUTO) */
1816:Generated_Source\PSoC5/USBFS_1.c ****     #endif /* (USBFS_1_EP_MANAGEMENT_MANUAL) */
1817:Generated_Source\PSoC5/USBFS_1.c ****     }
1818:Generated_Source\PSoC5/USBFS_1.c ****     else
1819:Generated_Source\PSoC5/USBFS_1.c ****     {
1820:Generated_Source\PSoC5/USBFS_1.c ****         length = 0u;
 1323              		.loc 1 1820 0
 1324 0078 0023     		movs	r3, #0
 1325 007a BB80     		strh	r3, [r7, #4]	@ movhi
 1326              	.L69:
1821:Generated_Source\PSoC5/USBFS_1.c ****     }
1822:Generated_Source\PSoC5/USBFS_1.c **** 
1823:Generated_Source\PSoC5/USBFS_1.c ****     return (length);
 1327              		.loc 1 1823 0
 1328 007c BB88     		ldrh	r3, [r7, #4]
1824:Generated_Source\PSoC5/USBFS_1.c **** }
 1329              		.loc 1 1824 0
 1330 007e 1846     		mov	r0, r3
 1331 0080 1037     		adds	r7, r7, #16
 1332              		.cfi_def_cfa_offset 8
 1333 0082 BD46     		mov	sp, r7
 1334              		.cfi_def_cfa_register 13
 1335              		@ sp needed
 1336 0084 80BD     		pop	{r7, pc}
 1337              	.L72:
 1338 0086 00BF     		.align	2
 1339              	.L71:
 1340 0088 70600040 		.word	1073766512
 1341              		.cfi_endproc
 1342              	.LFE12:
 1343              		.size	USBFS_1_ReadOutEP, .-USBFS_1_ReadOutEP
 1344              		.section	.text.USBFS_1_EnableOutEP,"ax",%progbits
 1345              		.align	2
 1346              		.global	USBFS_1_EnableOutEP
 1347              		.thumb
 1348              		.thumb_func
 1349              		.type	USBFS_1_EnableOutEP, %function
 1350              	USBFS_1_EnableOutEP:
 1351              	.LFB13:
1825:Generated_Source\PSoC5/USBFS_1.c **** 
1826:Generated_Source\PSoC5/USBFS_1.c **** 
1827:Generated_Source\PSoC5/USBFS_1.c **** #if (USBFS_1_16BITS_EP_ACCESS_ENABLE)
1828:Generated_Source\PSoC5/USBFS_1.c **** /*******************************************************************************
1829:Generated_Source\PSoC5/USBFS_1.c **** * Function Name: USBFS_1_LoadInEP16
1830:Generated_Source\PSoC5/USBFS_1.c **** ****************************************************************************//**
1831:Generated_Source\PSoC5/USBFS_1.c **** *
1832:Generated_Source\PSoC5/USBFS_1.c **** *  This function performs different functionality depending on the Component’s
1833:Generated_Source\PSoC5/USBFS_1.c **** *  configured Endpoint Buffer Management. This parameter is defined in
ARM GAS  C:\Users\oars0\AppData\Local\Temp\ccNqJowk.s 			page 57


1834:Generated_Source\PSoC5/USBFS_1.c **** *  the Descriptor Root in Component Configure window.
1835:Generated_Source\PSoC5/USBFS_1.c **** *
1836:Generated_Source\PSoC5/USBFS_1.c **** *  *Manual (Static/Dynamic Allocation):*
1837:Generated_Source\PSoC5/USBFS_1.c **** *  This function loads and enables the specified USB data endpoint for an IN
1838:Generated_Source\PSoC5/USBFS_1.c **** *  data transfer.
1839:Generated_Source\PSoC5/USBFS_1.c **** *
1840:Generated_Source\PSoC5/USBFS_1.c **** *  *DMA with Manual Buffer Management:*
1841:Generated_Source\PSoC5/USBFS_1.c **** *  Configures DMA for a data transfer from system RAM to endpoint buffer.
1842:Generated_Source\PSoC5/USBFS_1.c **** *  Generates request for a transfer.
1843:Generated_Source\PSoC5/USBFS_1.c **** *
1844:Generated_Source\PSoC5/USBFS_1.c **** *  *DMA with Automatic Buffer Management:*
1845:Generated_Source\PSoC5/USBFS_1.c **** *  Configures DMA. This is required only once, so it is done only when parameter
1846:Generated_Source\PSoC5/USBFS_1.c **** *  pData is not NULL. When the pData pointer is NULL, the function skips this
1847:Generated_Source\PSoC5/USBFS_1.c **** *  task. Sets Data ready status: This generates the first DMA transfer and
1848:Generated_Source\PSoC5/USBFS_1.c **** *  prepares data in endpoint buffer.
1849:Generated_Source\PSoC5/USBFS_1.c **** *
1850:Generated_Source\PSoC5/USBFS_1.c **** *  \param epNumber Contains the data endpoint number.
1851:Generated_Source\PSoC5/USBFS_1.c **** *        Valid values are between 1 and 8.
1852:Generated_Source\PSoC5/USBFS_1.c **** *  \param *pData A pointer to a data array from which the data for the endpoint
1853:Generated_Source\PSoC5/USBFS_1.c **** *        space is loaded. It shall be ensured that this pointer address is even
1854:Generated_Source\PSoC5/USBFS_1.c **** *        to ensure the 16-bit transfer is aligned to even address. Else, a hard
1855:Generated_Source\PSoC5/USBFS_1.c **** *        fault condition can occur.
1856:Generated_Source\PSoC5/USBFS_1.c **** *  \param length The number of bytes to transfer from the array and then send as
1857:Generated_Source\PSoC5/USBFS_1.c **** *        a result of an IN request. Valid values are between 0 and 512 (1023 for
1858:Generated_Source\PSoC5/USBFS_1.c **** *        DMA with Automatic Buffer Management mode). The value 512 is applicable
1859:Generated_Source\PSoC5/USBFS_1.c **** *        if only one endpoint is used.
1860:Generated_Source\PSoC5/USBFS_1.c **** *
1861:Generated_Source\PSoC5/USBFS_1.c **** * \reentrant
1862:Generated_Source\PSoC5/USBFS_1.c **** *  No.
1863:Generated_Source\PSoC5/USBFS_1.c **** *
1864:Generated_Source\PSoC5/USBFS_1.c **** *******************************************************************************/
1865:Generated_Source\PSoC5/USBFS_1.c **** void USBFS_1_LoadInEP16(uint8 epNumber, const uint8 pData[], uint16 length)
1866:Generated_Source\PSoC5/USBFS_1.c **** {
1867:Generated_Source\PSoC5/USBFS_1.c ****     /* Check array alignment on half-word boundary. */
1868:Generated_Source\PSoC5/USBFS_1.c ****     CYASSERT(0u == (((uint32) pData) & 0x01u));
1869:Generated_Source\PSoC5/USBFS_1.c **** 
1870:Generated_Source\PSoC5/USBFS_1.c ****     if ((epNumber > USBFS_1_EP0) && (epNumber < USBFS_1_MAX_EP))
1871:Generated_Source\PSoC5/USBFS_1.c ****     {
1872:Generated_Source\PSoC5/USBFS_1.c ****     #if (!USBFS_1_EP_MANAGEMENT_DMA_AUTO)
1873:Generated_Source\PSoC5/USBFS_1.c ****         /* Limit length to available buffer USB IP buffer size. */
1874:Generated_Source\PSoC5/USBFS_1.c ****         if (length > (USBFS_1_EPX_DATA_BUF_MAX - USBFS_1_EP[epNumber].buffOffset))
1875:Generated_Source\PSoC5/USBFS_1.c ****         {
1876:Generated_Source\PSoC5/USBFS_1.c ****             length = USBFS_1_EPX_DATA_BUF_MAX - USBFS_1_EP[epNumber].buffOffset;
1877:Generated_Source\PSoC5/USBFS_1.c ****         }
1878:Generated_Source\PSoC5/USBFS_1.c ****     #endif /* (!USBFS_1_EP_MANAGEMENT_DMA_AUTO) */
1879:Generated_Source\PSoC5/USBFS_1.c **** 
1880:Generated_Source\PSoC5/USBFS_1.c ****         /* Set count and data toggle. */
1881:Generated_Source\PSoC5/USBFS_1.c ****         USBFS_1_SIE_EP_BASE.sieEp[epNumber].epCnt0 = (uint32) HI8(length) | USBFS_1_EP[epNumber].ep
1882:Generated_Source\PSoC5/USBFS_1.c ****         USBFS_1_SIE_EP_BASE.sieEp[epNumber].epCnt1 = (uint32) LO8(length);
1883:Generated_Source\PSoC5/USBFS_1.c **** 
1884:Generated_Source\PSoC5/USBFS_1.c ****         /* Adjust requested length: 2 bytes are handled at one data register access. */
1885:Generated_Source\PSoC5/USBFS_1.c ****         length += (length & 0x01u);
1886:Generated_Source\PSoC5/USBFS_1.c **** 
1887:Generated_Source\PSoC5/USBFS_1.c ****     #if (USBFS_1_EP_MANAGEMENT_MANUAL)
1888:Generated_Source\PSoC5/USBFS_1.c ****         if (NULL != pData)
1889:Generated_Source\PSoC5/USBFS_1.c ****         {
1890:Generated_Source\PSoC5/USBFS_1.c ****             /* Convert uint8 array to uint16. */
ARM GAS  C:\Users\oars0\AppData\Local\Temp\ccNqJowk.s 			page 58


1891:Generated_Source\PSoC5/USBFS_1.c ****             const uint16 *dataBuf = (uint16 *) pData;
1892:Generated_Source\PSoC5/USBFS_1.c **** 
1893:Generated_Source\PSoC5/USBFS_1.c ****             /* Copy data using 16-bits arbiter data register. */
1894:Generated_Source\PSoC5/USBFS_1.c ****             uint16 i;
1895:Generated_Source\PSoC5/USBFS_1.c ****             for (i = 0u; i < (length >> 1u); ++i)
1896:Generated_Source\PSoC5/USBFS_1.c ****             {
1897:Generated_Source\PSoC5/USBFS_1.c ****                 USBFS_1_ARB_EP16_BASE.arbEp[epNumber].rwDr16 = dataBuf[i];
1898:Generated_Source\PSoC5/USBFS_1.c ****             }
1899:Generated_Source\PSoC5/USBFS_1.c ****         }
1900:Generated_Source\PSoC5/USBFS_1.c **** 
1901:Generated_Source\PSoC5/USBFS_1.c ****         /* IN endpoint buffer is full - read to be read. */
1902:Generated_Source\PSoC5/USBFS_1.c ****         USBFS_1_EP[epNumber].apiEpState = USBFS_1_NO_EVENT_PENDING;
1903:Generated_Source\PSoC5/USBFS_1.c **** 
1904:Generated_Source\PSoC5/USBFS_1.c ****         /* Arm IN endpoint. */
1905:Generated_Source\PSoC5/USBFS_1.c ****         USBFS_1_SIE_EP_BASE.sieEp[epNumber].epCr0 = USBFS_1_EP[epNumber].epMode;
1906:Generated_Source\PSoC5/USBFS_1.c **** 
1907:Generated_Source\PSoC5/USBFS_1.c ****     #else
1908:Generated_Source\PSoC5/USBFS_1.c **** 
1909:Generated_Source\PSoC5/USBFS_1.c ****         #if (USBFS_1_EP_MANAGEMENT_DMA_MANUAL)
1910:Generated_Source\PSoC5/USBFS_1.c ****             /* IN endpoint buffer will be fully loaded by DMA shortly. */
1911:Generated_Source\PSoC5/USBFS_1.c ****             USBFS_1_EP[epNumber].apiEpState = USBFS_1_NO_EVENT_PENDING;
1912:Generated_Source\PSoC5/USBFS_1.c **** 
1913:Generated_Source\PSoC5/USBFS_1.c ****             if ((pData != NULL) && (length > 0u))
1914:Generated_Source\PSoC5/USBFS_1.c ****             {
1915:Generated_Source\PSoC5/USBFS_1.c ****                 uint32 channelNum = (uint32) USBFS_1_DmaChan[epNumber];
1916:Generated_Source\PSoC5/USBFS_1.c **** 
1917:Generated_Source\PSoC5/USBFS_1.c ****                 /* Disable DMA channel: start configuration. */
1918:Generated_Source\PSoC5/USBFS_1.c ****                 USBFS_1_CyDmaChDisable(channelNum);
1919:Generated_Source\PSoC5/USBFS_1.c **** 
1920:Generated_Source\PSoC5/USBFS_1.c ****                 /* Configure source and destination. */
1921:Generated_Source\PSoC5/USBFS_1.c ****                 USBFS_1_CyDmaSetSrcAddress(channelNum, USBFS_1_DMA_DESCR0, (void*) pData);
1922:Generated_Source\PSoC5/USBFS_1.c ****                 USBFS_1_CyDmaSetDstAddress(channelNum, USBFS_1_DMA_DESCR0, (void*) &USBFS_1_ARB_EP1
1923:Generated_Source\PSoC5/USBFS_1.c **** 
1924:Generated_Source\PSoC5/USBFS_1.c ****                 /* Configure DMA descriptor. */
1925:Generated_Source\PSoC5/USBFS_1.c ****                 length = (length >> 1u) - 1u;
1926:Generated_Source\PSoC5/USBFS_1.c ****                 USBFS_1_CyDmaSetConfiguration(channelNum, USBFS_1_DMA_DESCR0, USBFS_1_DMA_COMMON_CF
1927:Generated_Source\PSoC5/USBFS_1.c ****                                                         CYDMA_HALFWORD | CYDMA_ELEMENT_WORD | CYDMA
1928:Generated_Source\PSoC5/USBFS_1.c **** 
1929:Generated_Source\PSoC5/USBFS_1.c ****                 /* Validate descriptor to execute on following DMA request. */
1930:Generated_Source\PSoC5/USBFS_1.c ****                 USBFS_1_CyDmaValidateDescriptor(channelNum, USBFS_1_DMA_DESCR0);
1931:Generated_Source\PSoC5/USBFS_1.c **** 
1932:Generated_Source\PSoC5/USBFS_1.c ****                 /* Enable DMA channel: configuration complete. */
1933:Generated_Source\PSoC5/USBFS_1.c ****                 USBFS_1_CyDmaChEnable(channelNum);
1934:Generated_Source\PSoC5/USBFS_1.c **** 
1935:Generated_Source\PSoC5/USBFS_1.c ****                 /* Generate DMA request. */
1936:Generated_Source\PSoC5/USBFS_1.c ****                 USBFS_1_ARB_EP_BASE.arbEp[epNumber].epCfg |=  (uint32)  USBFS_1_ARB_EPX_CFG_DMA_REQ
1937:Generated_Source\PSoC5/USBFS_1.c ****                 USBFS_1_ARB_EP_BASE.arbEp[epNumber].epCfg &=  (uint32) ~USBFS_1_ARB_EPX_CFG_DMA_REQ
1938:Generated_Source\PSoC5/USBFS_1.c **** 
1939:Generated_Source\PSoC5/USBFS_1.c ****                 /* IN endpoint will be armed in ARB_ISR(source: IN_BUF_FULL) after first DMA transf
1940:Generated_Source\PSoC5/USBFS_1.c ****             }
1941:Generated_Source\PSoC5/USBFS_1.c ****             else
1942:Generated_Source\PSoC5/USBFS_1.c ****             {
1943:Generated_Source\PSoC5/USBFS_1.c ****                 /* When zero-length packet: arm IN endpoint directly. */
1944:Generated_Source\PSoC5/USBFS_1.c ****                 USBFS_1_SIE_EP_BASE.sieEp[epNumber].epCr0 = USBFS_1_EP[epNumber].epMode;
1945:Generated_Source\PSoC5/USBFS_1.c ****             }
1946:Generated_Source\PSoC5/USBFS_1.c ****         #endif /* (USBFS_1_EP_MANAGEMENT_DMA_MANUAL) */
1947:Generated_Source\PSoC5/USBFS_1.c **** 
ARM GAS  C:\Users\oars0\AppData\Local\Temp\ccNqJowk.s 			page 59


1948:Generated_Source\PSoC5/USBFS_1.c ****         #if (USBFS_1_EP_MANAGEMENT_DMA_AUTO)
1949:Generated_Source\PSoC5/USBFS_1.c ****             if (pData != NULL)
1950:Generated_Source\PSoC5/USBFS_1.c ****             {
1951:Generated_Source\PSoC5/USBFS_1.c ****                 uint32 channelNum = (uint32) USBFS_1_DmaChan[epNumber];
1952:Generated_Source\PSoC5/USBFS_1.c **** 
1953:Generated_Source\PSoC5/USBFS_1.c ****                 /* Store address of buffer. */
1954:Generated_Source\PSoC5/USBFS_1.c ****                 USBFS_1_DmaEpBufferAddrBackup[epNumber] = (uint32) pData;
1955:Generated_Source\PSoC5/USBFS_1.c **** 
1956:Generated_Source\PSoC5/USBFS_1.c ****                 /* Disable DMA channel: start configuration. */
1957:Generated_Source\PSoC5/USBFS_1.c ****                 USBFS_1_CyDmaChDisable(channelNum);
1958:Generated_Source\PSoC5/USBFS_1.c **** 
1959:Generated_Source\PSoC5/USBFS_1.c ****                 /* Set destination address. */
1960:Generated_Source\PSoC5/USBFS_1.c ****                 USBFS_1_CyDmaSetDstAddress(channelNum, USBFS_1_DMA_DESCR0, (void*) &USBFS_1_ARB_EP1
1961:Generated_Source\PSoC5/USBFS_1.c ****                 USBFS_1_CyDmaSetDstAddress(channelNum, USBFS_1_DMA_DESCR1, (void*) &USBFS_1_ARB_EP1
1962:Generated_Source\PSoC5/USBFS_1.c **** 
1963:Generated_Source\PSoC5/USBFS_1.c ****                 /* Configure DMA descriptor. */
1964:Generated_Source\PSoC5/USBFS_1.c ****                 USBFS_1_CyDmaSetConfiguration(channelNum, USBFS_1_DMA_DESCR0, USBFS_1_DMA_COMMON_CF
1965:Generated_Source\PSoC5/USBFS_1.c ****                                                         CYDMA_HALFWORD | CYDMA_ELEMENT_WORD | CYDMA
1966:Generated_Source\PSoC5/USBFS_1.c **** 
1967:Generated_Source\PSoC5/USBFS_1.c ****                 /* Configure DMA descriptor. */
1968:Generated_Source\PSoC5/USBFS_1.c ****                 USBFS_1_CyDmaSetConfiguration(channelNum, USBFS_1_DMA_DESCR1, USBFS_1_DMA_COMMON_CF
1969:Generated_Source\PSoC5/USBFS_1.c ****                                                         CYDMA_HALFWORD | CYDMA_ELEMENT_WORD | CYDMA
1970:Generated_Source\PSoC5/USBFS_1.c **** 
1971:Generated_Source\PSoC5/USBFS_1.c ****                 /* Enable interrupt from DMA channel. */
1972:Generated_Source\PSoC5/USBFS_1.c ****                 USBFS_1_CyDmaSetInterruptMask(channelNum);
1973:Generated_Source\PSoC5/USBFS_1.c **** 
1974:Generated_Source\PSoC5/USBFS_1.c ****                 /* Enable DMA channel: configuration complete. */
1975:Generated_Source\PSoC5/USBFS_1.c ****                 USBFS_1_CyDmaChEnable(channelNum);
1976:Generated_Source\PSoC5/USBFS_1.c ****             }
1977:Generated_Source\PSoC5/USBFS_1.c ****             else
1978:Generated_Source\PSoC5/USBFS_1.c ****             {
1979:Generated_Source\PSoC5/USBFS_1.c ****                 /* IN endpoint buffer (32 bytes) will shortly be preloaded by DMA. */
1980:Generated_Source\PSoC5/USBFS_1.c ****                 USBFS_1_EP[epNumber].apiEpState = USBFS_1_NO_EVENT_PENDING;
1981:Generated_Source\PSoC5/USBFS_1.c **** 
1982:Generated_Source\PSoC5/USBFS_1.c ****                 if (length > 0u)
1983:Generated_Source\PSoC5/USBFS_1.c ****                 {
1984:Generated_Source\PSoC5/USBFS_1.c ****                     uint32 lengthDescr0, lengthDescr1;
1985:Generated_Source\PSoC5/USBFS_1.c ****                     uint32 channelNum = (uint32) USBFS_1_DmaChan[epNumber];
1986:Generated_Source\PSoC5/USBFS_1.c **** 
1987:Generated_Source\PSoC5/USBFS_1.c ****                     /* Get number of full bursts. */
1988:Generated_Source\PSoC5/USBFS_1.c ****                     USBFS_1_DmaEpBurstCnt[epNumber] = (uint8) (length / USBFS_1_DMA_BYTES_PER_BURST
1989:Generated_Source\PSoC5/USBFS_1.c **** 
1990:Generated_Source\PSoC5/USBFS_1.c ****                     /* Get number of elements in the last burst. */
1991:Generated_Source\PSoC5/USBFS_1.c ****                     USBFS_1_DmaEpLastBurstEl[epNumber] = (uint8) (length % USBFS_1_DMA_BYTES_PER_BU
1992:Generated_Source\PSoC5/USBFS_1.c **** 
1993:Generated_Source\PSoC5/USBFS_1.c ****                     /* Get total number of bursts. */
1994:Generated_Source\PSoC5/USBFS_1.c ****                     USBFS_1_DmaEpBurstCnt[epNumber] += (0u != USBFS_1_DmaEpLastBurstEl[epNumber]) ?
1995:Generated_Source\PSoC5/USBFS_1.c **** 
1996:Generated_Source\PSoC5/USBFS_1.c ****                     /* Adjust number of data elements transferred in last burst. */
1997:Generated_Source\PSoC5/USBFS_1.c ****                     USBFS_1_DmaEpLastBurstEl[epNumber] = (0u != USBFS_1_DmaEpLastBurstEl[epNumber])
1998:Generated_Source\PSoC5/USBFS_1.c ****                                                                           ((USBFS_1_DmaEpLastBurstE
1999:Generated_Source\PSoC5/USBFS_1.c ****                                                                            (USBFS_1_DMA_HALFWORDS_P
2000:Generated_Source\PSoC5/USBFS_1.c **** 
2001:Generated_Source\PSoC5/USBFS_1.c ****                     /* Get number of data elements to transfer for descriptor 0 and 1. */
2002:Generated_Source\PSoC5/USBFS_1.c ****                     lengthDescr0 = (1u == USBFS_1_DmaEpBurstCnt[epNumber]) ? USBFS_1_DmaEpLastBurst
2003:Generated_Source\PSoC5/USBFS_1.c ****                     lengthDescr1 = (2u == USBFS_1_DmaEpBurstCnt[epNumber]) ? USBFS_1_DmaEpLastBurst
2004:Generated_Source\PSoC5/USBFS_1.c **** 
ARM GAS  C:\Users\oars0\AppData\Local\Temp\ccNqJowk.s 			page 60


2005:Generated_Source\PSoC5/USBFS_1.c ****                     /* Mark which descriptor is last one to execute. */
2006:Generated_Source\PSoC5/USBFS_1.c ****                     USBFS_1_DmaEpLastBurstEl[epNumber] |= (0u != (USBFS_1_DmaEpBurstCnt[epNumber] &
2007:Generated_Source\PSoC5/USBFS_1.c ****                                                                             USBFS_1_DMA_DESCR0_MASK
2008:Generated_Source\PSoC5/USBFS_1.c **** 
2009:Generated_Source\PSoC5/USBFS_1.c ****                     /* Restore DMA settings for current transfer. */
2010:Generated_Source\PSoC5/USBFS_1.c ****                     USBFS_1_CyDmaChDisable(channelNum);
2011:Generated_Source\PSoC5/USBFS_1.c **** 
2012:Generated_Source\PSoC5/USBFS_1.c ****                     /* Restore destination address for input endpoint. */
2013:Generated_Source\PSoC5/USBFS_1.c ****                     USBFS_1_CyDmaSetSrcAddress(channelNum, USBFS_1_DMA_DESCR0, (void*) ((uint32) US
2014:Generated_Source\PSoC5/USBFS_1.c ****                     USBFS_1_CyDmaSetSrcAddress(channelNum, USBFS_1_DMA_DESCR1, (void*) ((uint32) US
2015:Generated_Source\PSoC5/USBFS_1.c ****                                                                                                    
2016:Generated_Source\PSoC5/USBFS_1.c **** 
2017:Generated_Source\PSoC5/USBFS_1.c ****                     /* Set number of elements to transfer. */
2018:Generated_Source\PSoC5/USBFS_1.c ****                     USBFS_1_CyDmaSetNumDataElements(channelNum, USBFS_1_DMA_DESCR0, lengthDescr0);
2019:Generated_Source\PSoC5/USBFS_1.c ****                     USBFS_1_CyDmaSetNumDataElements(channelNum, USBFS_1_DMA_DESCR1, lengthDescr1);
2020:Generated_Source\PSoC5/USBFS_1.c **** 
2021:Generated_Source\PSoC5/USBFS_1.c ****                     /* Validate descriptor 0 and command to start with it. */
2022:Generated_Source\PSoC5/USBFS_1.c ****                     USBFS_1_CyDmaValidateDescriptor(channelNum, USBFS_1_DMA_DESCR0);
2023:Generated_Source\PSoC5/USBFS_1.c ****                     USBFS_1_CyDmaSetDescriptor0Next(channelNum);
2024:Generated_Source\PSoC5/USBFS_1.c **** 
2025:Generated_Source\PSoC5/USBFS_1.c ****                     /* Validate descriptor 1. */
2026:Generated_Source\PSoC5/USBFS_1.c ****                     if (USBFS_1_DmaEpBurstCnt[epNumber] > 1u)
2027:Generated_Source\PSoC5/USBFS_1.c ****                     {
2028:Generated_Source\PSoC5/USBFS_1.c ****                         USBFS_1_CyDmaValidateDescriptor(channelNum, USBFS_1_DMA_DESCR1);
2029:Generated_Source\PSoC5/USBFS_1.c ****                     }
2030:Generated_Source\PSoC5/USBFS_1.c **** 
2031:Generated_Source\PSoC5/USBFS_1.c ****                     /* Adjust burst counter taking to account: 2 valid descriptors and interrupt tr
2032:Generated_Source\PSoC5/USBFS_1.c ****                     USBFS_1_DmaEpBurstCnt[epNumber] = USBFS_1_DMA_GET_BURST_CNT(USBFS_1_DmaEpBurstC
2033:Generated_Source\PSoC5/USBFS_1.c **** 
2034:Generated_Source\PSoC5/USBFS_1.c ****                     /* Enable DMA channel: configuration complete. */
2035:Generated_Source\PSoC5/USBFS_1.c ****                     USBFS_1_CyDmaChEnable(channelNum);
2036:Generated_Source\PSoC5/USBFS_1.c **** 
2037:Generated_Source\PSoC5/USBFS_1.c ****                 #if !defined (USBFS_1_MANUAL_IN_EP_ARM)
2038:Generated_Source\PSoC5/USBFS_1.c ****                     /* Set IN data ready to generate DMA request to load data into endpoint buffer.
2039:Generated_Source\PSoC5/USBFS_1.c ****                     USBFS_1_ARB_EP_BASE.arbEp[epNumber].epCfg |= USBFS_1_ARB_EPX_CFG_IN_DATA_RDY;
2040:Generated_Source\PSoC5/USBFS_1.c ****                 #endif  /* (USBFS_1_MANUAL_IN_EP_ARM) */
2041:Generated_Source\PSoC5/USBFS_1.c **** 
2042:Generated_Source\PSoC5/USBFS_1.c ****                     /* IN endpoint will be armed in ARB_ISR(source: IN_BUF_FULL) after first DMA tr
2043:Generated_Source\PSoC5/USBFS_1.c ****                 }
2044:Generated_Source\PSoC5/USBFS_1.c ****                 else
2045:Generated_Source\PSoC5/USBFS_1.c ****                 {
2046:Generated_Source\PSoC5/USBFS_1.c ****                     /* When zero-length packet: arm IN endpoint directly. */
2047:Generated_Source\PSoC5/USBFS_1.c ****                     USBFS_1_SIE_EP_BASE.sieEp[epNumber].epCr0 = USBFS_1_EP[epNumber].epMode;
2048:Generated_Source\PSoC5/USBFS_1.c ****                 }
2049:Generated_Source\PSoC5/USBFS_1.c ****             }
2050:Generated_Source\PSoC5/USBFS_1.c ****         #endif /* (USBFS_1_EP_MANAGEMENT_DMA_AUTO) */
2051:Generated_Source\PSoC5/USBFS_1.c ****     #endif /* (USBFS_1_EP_MANAGEMENT_MANUAL) */
2052:Generated_Source\PSoC5/USBFS_1.c ****     }
2053:Generated_Source\PSoC5/USBFS_1.c **** }
2054:Generated_Source\PSoC5/USBFS_1.c **** 
2055:Generated_Source\PSoC5/USBFS_1.c **** 
2056:Generated_Source\PSoC5/USBFS_1.c **** /*******************************************************************************
2057:Generated_Source\PSoC5/USBFS_1.c **** * Function Name: USBFS_1_ReadOutEP16
2058:Generated_Source\PSoC5/USBFS_1.c **** ****************************************************************************//**
2059:Generated_Source\PSoC5/USBFS_1.c **** *
2060:Generated_Source\PSoC5/USBFS_1.c **** *   This function performs different functionality depending on the Component’s
2061:Generated_Source\PSoC5/USBFS_1.c **** *   configured Endpoint Buffer Management. This parameter is defined in the
ARM GAS  C:\Users\oars0\AppData\Local\Temp\ccNqJowk.s 			page 61


2062:Generated_Source\PSoC5/USBFS_1.c **** *   Descriptor Root in Component Configure window.
2063:Generated_Source\PSoC5/USBFS_1.c **** *
2064:Generated_Source\PSoC5/USBFS_1.c **** *   *Manual (Static/Dynamic Allocation):*
2065:Generated_Source\PSoC5/USBFS_1.c **** *   This function moves the specified number of bytes from endpoint buffer to
2066:Generated_Source\PSoC5/USBFS_1.c **** *   system RAM. The number of bytes actually transferred from endpoint buffer to
2067:Generated_Source\PSoC5/USBFS_1.c **** *   system RAM is the lesser of the actual number of bytes sent by the host or
2068:Generated_Source\PSoC5/USBFS_1.c **** *   the number of bytes requested by the length parameter.
2069:Generated_Source\PSoC5/USBFS_1.c **** *
2070:Generated_Source\PSoC5/USBFS_1.c **** *   *DMA with Manual Buffer Management:*
2071:Generated_Source\PSoC5/USBFS_1.c **** *   Configure DMA to transfer data from endpoint buffer to system RAM. Generate
2072:Generated_Source\PSoC5/USBFS_1.c **** *   a DMA request. The firmware must wait until the DMA completes the data
2073:Generated_Source\PSoC5/USBFS_1.c **** *   transfer after calling the USBFS_1_ReadOutEP() API. For example,
2074:Generated_Source\PSoC5/USBFS_1.c **** *   by checking EPstate:
2075:Generated_Source\PSoC5/USBFS_1.c **** *
2076:Generated_Source\PSoC5/USBFS_1.c **** *   \snippet /USBFS_sut_02.cydsn/main.c checking EPstatey
2077:Generated_Source\PSoC5/USBFS_1.c **** *
2078:Generated_Source\PSoC5/USBFS_1.c **** *   The USBFS_EnableOutEP() has to be called to allow host to write data into
2079:Generated_Source\PSoC5/USBFS_1.c **** *   the endpoint buffer after DMA has completed transfer data from OUT endpoint
2080:Generated_Source\PSoC5/USBFS_1.c **** *   buffer to SRAM.
2081:Generated_Source\PSoC5/USBFS_1.c **** *
2082:Generated_Source\PSoC5/USBFS_1.c **** *   *DMA with Automatic Buffer Management:*
2083:Generated_Source\PSoC5/USBFS_1.c **** *   Configure DMA. This is required only once and automatically generates DMA
2084:Generated_Source\PSoC5/USBFS_1.c **** *   requests as data arrives
2085:Generated_Source\PSoC5/USBFS_1.c **** *
2086:Generated_Source\PSoC5/USBFS_1.c **** *  \param epNumber: Contains the data endpoint number.
2087:Generated_Source\PSoC5/USBFS_1.c **** *         Valid values are between 1 and 8.
2088:Generated_Source\PSoC5/USBFS_1.c **** *  \param pData: A pointer to a data array into which the data for the endpoint
2089:Generated_Source\PSoC5/USBFS_1.c **** *         space is copied. It shall be ensured that this pointer address is
2090:Generated_Source\PSoC5/USBFS_1.c **** *         even to ensure the 16-bit transfer is aligned to even address. Else,
2091:Generated_Source\PSoC5/USBFS_1.c **** *         a hard fault condition can occur.
2092:Generated_Source\PSoC5/USBFS_1.c **** *  \param length: The number of bytes to transfer from the USB Out endpoint and
2093:Generated_Source\PSoC5/USBFS_1.c **** *         loads it into data array. Valid values are between 0 and 1023. The
2094:Generated_Source\PSoC5/USBFS_1.c **** *         function moves fewer than the requested number of bytes if the host
2095:Generated_Source\PSoC5/USBFS_1.c **** *         sends fewer bytes than requested.
2096:Generated_Source\PSoC5/USBFS_1.c **** *
2097:Generated_Source\PSoC5/USBFS_1.c **** * \return
2098:Generated_Source\PSoC5/USBFS_1.c **** *  Number of bytes received, 0 for an invalid endpoint.
2099:Generated_Source\PSoC5/USBFS_1.c **** *
2100:Generated_Source\PSoC5/USBFS_1.c **** * \reentrant
2101:Generated_Source\PSoC5/USBFS_1.c **** *  No.
2102:Generated_Source\PSoC5/USBFS_1.c **** *
2103:Generated_Source\PSoC5/USBFS_1.c **** *******************************************************************************/
2104:Generated_Source\PSoC5/USBFS_1.c **** uint16 USBFS_1_ReadOutEP16(uint8 epNumber, uint8 pData[], uint16 length)
2105:Generated_Source\PSoC5/USBFS_1.c **** {
2106:Generated_Source\PSoC5/USBFS_1.c ****     uint32 adjLength;
2107:Generated_Source\PSoC5/USBFS_1.c **** 
2108:Generated_Source\PSoC5/USBFS_1.c ****     /* Check array alignment on half-word boundary */
2109:Generated_Source\PSoC5/USBFS_1.c ****     CYASSERT(0u == (((uint32) pData) & 0x01u));
2110:Generated_Source\PSoC5/USBFS_1.c **** 
2111:Generated_Source\PSoC5/USBFS_1.c ****     if ((pData != NULL) && (epNumber > USBFS_1_EP0) && (epNumber < USBFS_1_MAX_EP))
2112:Generated_Source\PSoC5/USBFS_1.c ****     {
2113:Generated_Source\PSoC5/USBFS_1.c ****     #if (!USBFS_1_EP_MANAGEMENT_DMA_AUTO)
2114:Generated_Source\PSoC5/USBFS_1.c ****         /* Adjust requested length to available data. */
2115:Generated_Source\PSoC5/USBFS_1.c ****         length = (length > USBFS_1_GetEPCount(epNumber)) ? USBFS_1_GetEPCount(epNumber) : length;
2116:Generated_Source\PSoC5/USBFS_1.c ****     #endif /* (!USBFS_1_EP_MANAGEMENT_DMA_AUTO) */
2117:Generated_Source\PSoC5/USBFS_1.c **** 
2118:Generated_Source\PSoC5/USBFS_1.c ****     /* Adjust requested length: 2 bytes are handled at one data register access. */
ARM GAS  C:\Users\oars0\AppData\Local\Temp\ccNqJowk.s 			page 62


2119:Generated_Source\PSoC5/USBFS_1.c ****     adjLength =  length + ((uint32)length & 1u);
2120:Generated_Source\PSoC5/USBFS_1.c **** 
2121:Generated_Source\PSoC5/USBFS_1.c ****     #if (USBFS_1_EP_MANAGEMENT_MANUAL)
2122:Generated_Source\PSoC5/USBFS_1.c ****         {
2123:Generated_Source\PSoC5/USBFS_1.c ****             /* Convert uint8 array to uint16. */
2124:Generated_Source\PSoC5/USBFS_1.c ****             uint16 *dataBuf = (uint16 *) pData;
2125:Generated_Source\PSoC5/USBFS_1.c **** 
2126:Generated_Source\PSoC5/USBFS_1.c ****             /* Copy data using 16-bits arbiter data register. */
2127:Generated_Source\PSoC5/USBFS_1.c ****             uint16 i;
2128:Generated_Source\PSoC5/USBFS_1.c ****             for (i = 0u; i < (adjLength >> 1u); ++i)
2129:Generated_Source\PSoC5/USBFS_1.c ****             {
2130:Generated_Source\PSoC5/USBFS_1.c ****                 dataBuf[i] = (uint16) USBFS_1_ARB_EP16_BASE.arbEp[epNumber].rwDr16;
2131:Generated_Source\PSoC5/USBFS_1.c ****             }
2132:Generated_Source\PSoC5/USBFS_1.c ****         }
2133:Generated_Source\PSoC5/USBFS_1.c **** 
2134:Generated_Source\PSoC5/USBFS_1.c ****         /* Arm OUT endpoint after data has been read from endpoint buffer. */
2135:Generated_Source\PSoC5/USBFS_1.c ****         USBFS_1_EnableOutEP(epNumber);
2136:Generated_Source\PSoC5/USBFS_1.c ****     #else
2137:Generated_Source\PSoC5/USBFS_1.c **** 
2138:Generated_Source\PSoC5/USBFS_1.c ****         #if (USBFS_1_EP_MANAGEMENT_DMA_MANUAL)
2139:Generated_Source\PSoC5/USBFS_1.c ****         {
2140:Generated_Source\PSoC5/USBFS_1.c ****             uint32 channelNum = (uint32) USBFS_1_DmaChan[epNumber];
2141:Generated_Source\PSoC5/USBFS_1.c **** 
2142:Generated_Source\PSoC5/USBFS_1.c ****             /* Disable DMA channel: start configuration. */
2143:Generated_Source\PSoC5/USBFS_1.c ****             USBFS_1_CyDmaChDisable(channelNum);
2144:Generated_Source\PSoC5/USBFS_1.c **** 
2145:Generated_Source\PSoC5/USBFS_1.c ****             /* Configure source and destination. */
2146:Generated_Source\PSoC5/USBFS_1.c ****             USBFS_1_CyDmaSetSrcAddress(channelNum, USBFS_1_DMA_DESCR0, (void*) &USBFS_1_ARB_EP16_BA
2147:Generated_Source\PSoC5/USBFS_1.c ****             USBFS_1_CyDmaSetDstAddress(channelNum, USBFS_1_DMA_DESCR0, (void*) pData);
2148:Generated_Source\PSoC5/USBFS_1.c **** 
2149:Generated_Source\PSoC5/USBFS_1.c ****             /* Configure DMA descriptor. */
2150:Generated_Source\PSoC5/USBFS_1.c ****             USBFS_1_CyDmaSetConfiguration(channelNum, USBFS_1_DMA_DESCR0, USBFS_1_DMA_COMMON_CFG | 
2151:Generated_Source\PSoC5/USBFS_1.c ****                                                     CYDMA_HALFWORD | CYDMA_WORD_ELEMENT | CYDMA_INC
2152:Generated_Source\PSoC5/USBFS_1.c **** 
2153:Generated_Source\PSoC5/USBFS_1.c ****             /* Validate descriptor to execute on following DMA request. */
2154:Generated_Source\PSoC5/USBFS_1.c ****             USBFS_1_CyDmaValidateDescriptor(channelNum, USBFS_1_DMA_DESCR0);
2155:Generated_Source\PSoC5/USBFS_1.c **** 
2156:Generated_Source\PSoC5/USBFS_1.c ****             /* Enable DMA channel: configuration complete. */
2157:Generated_Source\PSoC5/USBFS_1.c ****             USBFS_1_CyDmaChEnable(channelNum);
2158:Generated_Source\PSoC5/USBFS_1.c **** 
2159:Generated_Source\PSoC5/USBFS_1.c ****             /* Generate DMA request. */
2160:Generated_Source\PSoC5/USBFS_1.c ****             USBFS_1_ARB_EP_BASE.arbEp[epNumber].epCfg |=  (uint32)  USBFS_1_ARB_EPX_CFG_DMA_REQ;
2161:Generated_Source\PSoC5/USBFS_1.c ****             USBFS_1_ARB_EP_BASE.arbEp[epNumber].epCfg &=  (uint32) ~USBFS_1_ARB_EPX_CFG_DMA_REQ;
2162:Generated_Source\PSoC5/USBFS_1.c **** 
2163:Generated_Source\PSoC5/USBFS_1.c ****             /* OUT endpoint has to be armed again by user when DMA transfers have been completed.
2164:Generated_Source\PSoC5/USBFS_1.c ****             * NO_EVENT_PENDING: notifies that data has been copied from endpoint buffer.
2165:Generated_Source\PSoC5/USBFS_1.c ****             */
2166:Generated_Source\PSoC5/USBFS_1.c ****         }
2167:Generated_Source\PSoC5/USBFS_1.c ****         #endif /* (USBFS_1_EP_MANAGEMENT_DMA_MANUAL) */
2168:Generated_Source\PSoC5/USBFS_1.c **** 
2169:Generated_Source\PSoC5/USBFS_1.c ****         #if (USBFS_1_EP_MANAGEMENT_DMA_AUTO)
2170:Generated_Source\PSoC5/USBFS_1.c ****         {
2171:Generated_Source\PSoC5/USBFS_1.c ****             uint32 lengthDescr0, lengthDescr1;
2172:Generated_Source\PSoC5/USBFS_1.c ****             uint32 channelNum = (uint32) USBFS_1_DmaChan[epNumber];
2173:Generated_Source\PSoC5/USBFS_1.c **** 
2174:Generated_Source\PSoC5/USBFS_1.c ****             /* Get number of full bursts. */
2175:Generated_Source\PSoC5/USBFS_1.c ****             USBFS_1_DmaEpBurstCnt[epNumber] = (uint8) (adjLength / USBFS_1_DMA_BYTES_PER_BURST);
ARM GAS  C:\Users\oars0\AppData\Local\Temp\ccNqJowk.s 			page 63


2176:Generated_Source\PSoC5/USBFS_1.c **** 
2177:Generated_Source\PSoC5/USBFS_1.c ****             /* Get number of elements in last burst. */
2178:Generated_Source\PSoC5/USBFS_1.c ****             USBFS_1_DmaEpLastBurstEl[epNumber] = (uint8) (adjLength % USBFS_1_DMA_BYTES_PER_BURST);
2179:Generated_Source\PSoC5/USBFS_1.c **** 
2180:Generated_Source\PSoC5/USBFS_1.c ****             /* Get total number of bursts. */
2181:Generated_Source\PSoC5/USBFS_1.c ****             USBFS_1_DmaEpBurstCnt[epNumber] += (0u != USBFS_1_DmaEpLastBurstEl[epNumber]) ? 1u : 0u
2182:Generated_Source\PSoC5/USBFS_1.c **** 
2183:Generated_Source\PSoC5/USBFS_1.c ****             /* Adjust number of data elements transferred in last burst. */
2184:Generated_Source\PSoC5/USBFS_1.c ****             USBFS_1_DmaEpLastBurstEl[epNumber] = (0u != USBFS_1_DmaEpLastBurstEl[epNumber]) ?
2185:Generated_Source\PSoC5/USBFS_1.c ****                                                                   ((USBFS_1_DmaEpLastBurstEl[epNumb
2186:Generated_Source\PSoC5/USBFS_1.c ****                                                                    (USBFS_1_DMA_HALFWORDS_PER_BURST
2187:Generated_Source\PSoC5/USBFS_1.c **** 
2188:Generated_Source\PSoC5/USBFS_1.c ****             /* Get number of data elements to transfer for descriptor 0 and 1. */
2189:Generated_Source\PSoC5/USBFS_1.c ****             lengthDescr0 = (1u == USBFS_1_DmaEpBurstCnt[epNumber]) ? USBFS_1_DmaEpLastBurstEl[epNum
2190:Generated_Source\PSoC5/USBFS_1.c ****             lengthDescr1 = (2u == USBFS_1_DmaEpBurstCnt[epNumber]) ? USBFS_1_DmaEpLastBurstEl[epNum
2191:Generated_Source\PSoC5/USBFS_1.c **** 
2192:Generated_Source\PSoC5/USBFS_1.c ****             /* Mark last descriptor to be executed. */
2193:Generated_Source\PSoC5/USBFS_1.c ****             USBFS_1_DmaEpLastBurstEl[epNumber] |= (0u != (USBFS_1_DmaEpBurstCnt[epNumber] & 0x1u)) 
2194:Generated_Source\PSoC5/USBFS_1.c ****                                                                     USBFS_1_DMA_DESCR0_MASK : USBFS
2195:Generated_Source\PSoC5/USBFS_1.c **** 
2196:Generated_Source\PSoC5/USBFS_1.c ****             /* Mark if revert number of data elements in descriptor after transfer completion. */
2197:Generated_Source\PSoC5/USBFS_1.c ****             USBFS_1_DmaEpLastBurstEl[epNumber] |= (USBFS_1_DmaEpBurstCnt[epNumber] > 2u) ? USBFS_1_
2198:Generated_Source\PSoC5/USBFS_1.c **** 
2199:Generated_Source\PSoC5/USBFS_1.c ****             /* Mark that 16-bits access to data register is performed. */
2200:Generated_Source\PSoC5/USBFS_1.c ****             USBFS_1_DmaEpLastBurstEl[epNumber] |= USBFS_1_DMA_DESCR_16BITS;
2201:Generated_Source\PSoC5/USBFS_1.c **** 
2202:Generated_Source\PSoC5/USBFS_1.c ****             /* Store address of buffer and burst counter for endpoint. */
2203:Generated_Source\PSoC5/USBFS_1.c ****             USBFS_1_DmaEpBufferAddrBackup[epNumber] = (uint32) pData;
2204:Generated_Source\PSoC5/USBFS_1.c ****             USBFS_1_DmaEpBurstCntBackup[epNumber]   = USBFS_1_DmaEpBurstCnt[epNumber];
2205:Generated_Source\PSoC5/USBFS_1.c **** 
2206:Generated_Source\PSoC5/USBFS_1.c ****             /* Adjust burst counter taking to account: 2 valid descriptors and interrupt trigger af
2207:Generated_Source\PSoC5/USBFS_1.c ****             USBFS_1_DmaEpBurstCnt[epNumber] = USBFS_1_DMA_GET_BURST_CNT(USBFS_1_DmaEpBurstCnt[epNum
2208:Generated_Source\PSoC5/USBFS_1.c **** 
2209:Generated_Source\PSoC5/USBFS_1.c ****             /* Disable DMA channel: start configuration. */
2210:Generated_Source\PSoC5/USBFS_1.c ****             USBFS_1_CyDmaChDisable(channelNum);
2211:Generated_Source\PSoC5/USBFS_1.c **** 
2212:Generated_Source\PSoC5/USBFS_1.c ****             /* Set destination address. */
2213:Generated_Source\PSoC5/USBFS_1.c ****             USBFS_1_CyDmaSetSrcAddress(channelNum, USBFS_1_DMA_DESCR0, (void*) &USBFS_1_ARB_EP16_BA
2214:Generated_Source\PSoC5/USBFS_1.c ****             USBFS_1_CyDmaSetSrcAddress(channelNum, USBFS_1_DMA_DESCR1, (void*) &USBFS_1_ARB_EP16_BA
2215:Generated_Source\PSoC5/USBFS_1.c **** 
2216:Generated_Source\PSoC5/USBFS_1.c ****             USBFS_1_CyDmaSetDstAddress(channelNum, USBFS_1_DMA_DESCR0, (void*) ((uint32) pData));
2217:Generated_Source\PSoC5/USBFS_1.c ****             USBFS_1_CyDmaSetDstAddress(channelNum, USBFS_1_DMA_DESCR1, (void*) ((uint32) pData + US
2218:Generated_Source\PSoC5/USBFS_1.c **** 
2219:Generated_Source\PSoC5/USBFS_1.c ****             /* Configure DMA descriptor 0. */
2220:Generated_Source\PSoC5/USBFS_1.c ****             USBFS_1_CyDmaSetConfiguration(channelNum, USBFS_1_DMA_DESCR0, USBFS_1_DMA_COMMON_CFG  |
2221:Generated_Source\PSoC5/USBFS_1.c ****                                                     CYDMA_HALFWORD | CYDMA_WORD_ELEMENT | CYDMA_INC
2222:Generated_Source\PSoC5/USBFS_1.c **** 
2223:Generated_Source\PSoC5/USBFS_1.c ****             /* Configure DMA descriptor 1. */
2224:Generated_Source\PSoC5/USBFS_1.c ****             USBFS_1_CyDmaSetConfiguration(channelNum, USBFS_1_DMA_DESCR1, USBFS_1_DMA_COMMON_CFG  |
2225:Generated_Source\PSoC5/USBFS_1.c ****                                                     CYDMA_HALFWORD | CYDMA_WORD_ELEMENT | CYDMA_INC
2226:Generated_Source\PSoC5/USBFS_1.c **** 
2227:Generated_Source\PSoC5/USBFS_1.c ****             /* Enable interrupt from DMA channel. */
2228:Generated_Source\PSoC5/USBFS_1.c ****             USBFS_1_CyDmaSetInterruptMask(channelNum);
2229:Generated_Source\PSoC5/USBFS_1.c **** 
2230:Generated_Source\PSoC5/USBFS_1.c ****             /* Validate DMA descriptor 0 and 1. */
2231:Generated_Source\PSoC5/USBFS_1.c ****             USBFS_1_CyDmaValidateDescriptor(channelNum, USBFS_1_DMA_DESCR0);
2232:Generated_Source\PSoC5/USBFS_1.c ****             
ARM GAS  C:\Users\oars0\AppData\Local\Temp\ccNqJowk.s 			page 64


2233:Generated_Source\PSoC5/USBFS_1.c ****             if (USBFS_1_DmaEpBurstCntBackup[epNumber] > 1u)
2234:Generated_Source\PSoC5/USBFS_1.c ****             {
2235:Generated_Source\PSoC5/USBFS_1.c ****                 USBFS_1_CyDmaValidateDescriptor(channelNum, USBFS_1_DMA_DESCR1);
2236:Generated_Source\PSoC5/USBFS_1.c ****             }
2237:Generated_Source\PSoC5/USBFS_1.c **** 
2238:Generated_Source\PSoC5/USBFS_1.c ****             /* Enable DMA channel: configuration complete. */
2239:Generated_Source\PSoC5/USBFS_1.c ****             USBFS_1_CyDmaChEnable(channelNum);
2240:Generated_Source\PSoC5/USBFS_1.c **** 
2241:Generated_Source\PSoC5/USBFS_1.c ****             /* OUT endpoint has to be armed again by user when DMA transfers have been completed.
2242:Generated_Source\PSoC5/USBFS_1.c ****             * NO_EVENT_PENDING: notifies that data has been copied from endpoint buffer.
2243:Generated_Source\PSoC5/USBFS_1.c ****             */
2244:Generated_Source\PSoC5/USBFS_1.c ****         }
2245:Generated_Source\PSoC5/USBFS_1.c ****         #endif /* (USBFS_1_EP_MANAGEMENT_DMA_AUTO) */
2246:Generated_Source\PSoC5/USBFS_1.c ****     #endif /* (USBFS_1_EP_MANAGEMENT_MANUAL) */
2247:Generated_Source\PSoC5/USBFS_1.c ****     }
2248:Generated_Source\PSoC5/USBFS_1.c ****     else
2249:Generated_Source\PSoC5/USBFS_1.c ****     {
2250:Generated_Source\PSoC5/USBFS_1.c ****         length = 0u;
2251:Generated_Source\PSoC5/USBFS_1.c ****     }
2252:Generated_Source\PSoC5/USBFS_1.c **** 
2253:Generated_Source\PSoC5/USBFS_1.c ****     return (length);
2254:Generated_Source\PSoC5/USBFS_1.c **** }
2255:Generated_Source\PSoC5/USBFS_1.c **** #endif /* (USBFS_1_16BITS_EP_ACCESS_ENABLE) */
2256:Generated_Source\PSoC5/USBFS_1.c **** 
2257:Generated_Source\PSoC5/USBFS_1.c **** 
2258:Generated_Source\PSoC5/USBFS_1.c **** /*******************************************************************************
2259:Generated_Source\PSoC5/USBFS_1.c **** * Function Name: USBFS_1_EnableOutEP
2260:Generated_Source\PSoC5/USBFS_1.c **** ****************************************************************************//**
2261:Generated_Source\PSoC5/USBFS_1.c **** *
2262:Generated_Source\PSoC5/USBFS_1.c **** *  This function enables the specified endpoint for OUT transfers. Do not call
2263:Generated_Source\PSoC5/USBFS_1.c **** *  this function for IN endpoints.
2264:Generated_Source\PSoC5/USBFS_1.c **** *
2265:Generated_Source\PSoC5/USBFS_1.c **** *  \param epNumber: Contains the data endpoint number. Valid values are between
2266:Generated_Source\PSoC5/USBFS_1.c **** *  1 and 8.
2267:Generated_Source\PSoC5/USBFS_1.c **** *
2268:Generated_Source\PSoC5/USBFS_1.c **** * \globalvars
2269:Generated_Source\PSoC5/USBFS_1.c **** *
2270:Generated_Source\PSoC5/USBFS_1.c **** *  \ref USBFS_1_EP[epNumber].apiEpState - set to NO_EVENT_PENDING
2271:Generated_Source\PSoC5/USBFS_1.c **** *
2272:Generated_Source\PSoC5/USBFS_1.c **** * \reentrant
2273:Generated_Source\PSoC5/USBFS_1.c **** *  No.
2274:Generated_Source\PSoC5/USBFS_1.c **** *
2275:Generated_Source\PSoC5/USBFS_1.c **** *******************************************************************************/
2276:Generated_Source\PSoC5/USBFS_1.c **** void USBFS_1_EnableOutEP(uint8 epNumber) 
2277:Generated_Source\PSoC5/USBFS_1.c **** {
 1352              		.loc 1 2277 0
 1353              		.cfi_startproc
 1354              		@ args = 0, pretend = 0, frame = 8
 1355              		@ frame_needed = 1, uses_anonymous_args = 0
 1356              		@ link register save eliminated.
 1357 0000 90B4     		push	{r4, r7}
 1358              		.cfi_def_cfa_offset 8
 1359              		.cfi_offset 4, -8
 1360              		.cfi_offset 7, -4
 1361 0002 82B0     		sub	sp, sp, #8
 1362              		.cfi_def_cfa_offset 16
 1363 0004 00AF     		add	r7, sp, #0
ARM GAS  C:\Users\oars0\AppData\Local\Temp\ccNqJowk.s 			page 65


 1364              		.cfi_def_cfa_register 7
 1365 0006 0346     		mov	r3, r0
 1366 0008 FB71     		strb	r3, [r7, #7]
2278:Generated_Source\PSoC5/USBFS_1.c ****     if ((epNumber > USBFS_1_EP0) && (epNumber < USBFS_1_MAX_EP))
 1367              		.loc 1 2278 0
 1368 000a FB79     		ldrb	r3, [r7, #7]	@ zero_extendqisi2
 1369 000c 002B     		cmp	r3, #0
 1370 000e 1CD0     		beq	.L75
 1371              		.loc 1 2278 0 is_stmt 0 discriminator 1
 1372 0010 FB79     		ldrb	r3, [r7, #7]	@ zero_extendqisi2
 1373 0012 082B     		cmp	r3, #8
 1374 0014 19D8     		bhi	.L75
2279:Generated_Source\PSoC5/USBFS_1.c ****     {
2280:Generated_Source\PSoC5/USBFS_1.c ****         USBFS_1_EP[epNumber].apiEpState = USBFS_1_NO_EVENT_PENDING;
 1375              		.loc 1 2280 0 is_stmt 1
 1376 0016 FA79     		ldrb	r2, [r7, #7]	@ zero_extendqisi2
 1377 0018 0E49     		ldr	r1, .L76
 1378 001a 1346     		mov	r3, r2
 1379 001c 5B00     		lsls	r3, r3, #1
 1380 001e 1344     		add	r3, r3, r2
 1381 0020 9B00     		lsls	r3, r3, #2
 1382 0022 0B44     		add	r3, r3, r1
 1383 0024 0133     		adds	r3, r3, #1
 1384 0026 0022     		movs	r2, #0
 1385 0028 1A70     		strb	r2, [r3]
2281:Generated_Source\PSoC5/USBFS_1.c **** 
2282:Generated_Source\PSoC5/USBFS_1.c ****         /* Enable OUT endpoint to be written by Host. */
2283:Generated_Source\PSoC5/USBFS_1.c ****         USBFS_1_SIE_EP_BASE.sieEp[epNumber].epCr0 = USBFS_1_EP[epNumber].epMode;
 1386              		.loc 1 2283 0
 1387 002a 0B48     		ldr	r0, .L76+4
 1388 002c F979     		ldrb	r1, [r7, #7]	@ zero_extendqisi2
 1389 002e FA79     		ldrb	r2, [r7, #7]	@ zero_extendqisi2
 1390 0030 084C     		ldr	r4, .L76
 1391 0032 1346     		mov	r3, r2
 1392 0034 5B00     		lsls	r3, r3, #1
 1393 0036 1344     		add	r3, r3, r2
 1394 0038 9B00     		lsls	r3, r3, #2
 1395 003a 2344     		add	r3, r3, r4
 1396 003c 0533     		adds	r3, r3, #5
 1397 003e 1B78     		ldrb	r3, [r3]
 1398 0040 DAB2     		uxtb	r2, r3
 1399 0042 0B01     		lsls	r3, r1, #4
 1400 0044 0344     		add	r3, r3, r0
 1401 0046 0233     		adds	r3, r3, #2
 1402 0048 1A70     		strb	r2, [r3]
 1403              	.L75:
2284:Generated_Source\PSoC5/USBFS_1.c ****         
2285:Generated_Source\PSoC5/USBFS_1.c ****     }
2286:Generated_Source\PSoC5/USBFS_1.c **** }
 1404              		.loc 1 2286 0
 1405 004a 00BF     		nop
 1406 004c 0837     		adds	r7, r7, #8
 1407              		.cfi_def_cfa_offset 8
 1408 004e BD46     		mov	sp, r7
 1409              		.cfi_def_cfa_register 13
 1410              		@ sp needed
 1411 0050 90BC     		pop	{r4, r7}
ARM GAS  C:\Users\oars0\AppData\Local\Temp\ccNqJowk.s 			page 66


 1412              		.cfi_restore 7
 1413              		.cfi_restore 4
 1414              		.cfi_def_cfa_offset 0
 1415 0052 7047     		bx	lr
 1416              	.L77:
 1417              		.align	2
 1418              	.L76:
 1419 0054 00000000 		.word	USBFS_1_EP
 1420 0058 FC5F0040 		.word	1073766396
 1421              		.cfi_endproc
 1422              	.LFE13:
 1423              		.size	USBFS_1_EnableOutEP, .-USBFS_1_EnableOutEP
 1424              		.section	.text.USBFS_1_DisableOutEP,"ax",%progbits
 1425              		.align	2
 1426              		.global	USBFS_1_DisableOutEP
 1427              		.thumb
 1428              		.thumb_func
 1429              		.type	USBFS_1_DisableOutEP, %function
 1430              	USBFS_1_DisableOutEP:
 1431              	.LFB14:
2287:Generated_Source\PSoC5/USBFS_1.c **** 
2288:Generated_Source\PSoC5/USBFS_1.c **** 
2289:Generated_Source\PSoC5/USBFS_1.c **** /*******************************************************************************
2290:Generated_Source\PSoC5/USBFS_1.c **** * Function Name: USBFS_1_DisableOutEP
2291:Generated_Source\PSoC5/USBFS_1.c **** ****************************************************************************//**
2292:Generated_Source\PSoC5/USBFS_1.c **** *
2293:Generated_Source\PSoC5/USBFS_1.c **** *  This function disables the specified USBFS OUT endpoint. Do not call this
2294:Generated_Source\PSoC5/USBFS_1.c **** *  function for IN endpoints.
2295:Generated_Source\PSoC5/USBFS_1.c **** *
2296:Generated_Source\PSoC5/USBFS_1.c **** *  \param epNumber: Contains the data endpoint number.
2297:Generated_Source\PSoC5/USBFS_1.c **** *            Valid values are between 1 and 8.
2298:Generated_Source\PSoC5/USBFS_1.c **** *
2299:Generated_Source\PSoC5/USBFS_1.c **** *******************************************************************************/
2300:Generated_Source\PSoC5/USBFS_1.c **** void USBFS_1_DisableOutEP(uint8 epNumber) 
2301:Generated_Source\PSoC5/USBFS_1.c **** {
 1432              		.loc 1 2301 0
 1433              		.cfi_startproc
 1434              		@ args = 0, pretend = 0, frame = 8
 1435              		@ frame_needed = 1, uses_anonymous_args = 0
 1436              		@ link register save eliminated.
 1437 0000 80B4     		push	{r7}
 1438              		.cfi_def_cfa_offset 4
 1439              		.cfi_offset 7, -4
 1440 0002 83B0     		sub	sp, sp, #12
 1441              		.cfi_def_cfa_offset 16
 1442 0004 00AF     		add	r7, sp, #0
 1443              		.cfi_def_cfa_register 7
 1444 0006 0346     		mov	r3, r0
 1445 0008 FB71     		strb	r3, [r7, #7]
2302:Generated_Source\PSoC5/USBFS_1.c ****     if ((epNumber > USBFS_1_EP0) && (epNumber < USBFS_1_MAX_EP))
 1446              		.loc 1 2302 0
 1447 000a FB79     		ldrb	r3, [r7, #7]	@ zero_extendqisi2
 1448 000c 002B     		cmp	r3, #0
 1449 000e 09D0     		beq	.L80
 1450              		.loc 1 2302 0 is_stmt 0 discriminator 1
 1451 0010 FB79     		ldrb	r3, [r7, #7]	@ zero_extendqisi2
 1452 0012 082B     		cmp	r3, #8
ARM GAS  C:\Users\oars0\AppData\Local\Temp\ccNqJowk.s 			page 67


 1453 0014 06D8     		bhi	.L80
2303:Generated_Source\PSoC5/USBFS_1.c ****     {
2304:Generated_Source\PSoC5/USBFS_1.c ****         /* Set NAK response for OUT endpoint. */
2305:Generated_Source\PSoC5/USBFS_1.c ****         USBFS_1_SIE_EP_BASE.sieEp[epNumber].epCr0 = USBFS_1_MODE_NAK_OUT;
 1454              		.loc 1 2305 0 is_stmt 1
 1455 0016 064A     		ldr	r2, .L81
 1456 0018 FB79     		ldrb	r3, [r7, #7]	@ zero_extendqisi2
 1457 001a 1B01     		lsls	r3, r3, #4
 1458 001c 1344     		add	r3, r3, r2
 1459 001e 0233     		adds	r3, r3, #2
 1460 0020 0822     		movs	r2, #8
 1461 0022 1A70     		strb	r2, [r3]
 1462              	.L80:
2306:Generated_Source\PSoC5/USBFS_1.c ****     }
2307:Generated_Source\PSoC5/USBFS_1.c **** }
 1463              		.loc 1 2307 0
 1464 0024 00BF     		nop
 1465 0026 0C37     		adds	r7, r7, #12
 1466              		.cfi_def_cfa_offset 4
 1467 0028 BD46     		mov	sp, r7
 1468              		.cfi_def_cfa_register 13
 1469              		@ sp needed
 1470 002a 80BC     		pop	{r7}
 1471              		.cfi_restore 7
 1472              		.cfi_def_cfa_offset 0
 1473 002c 7047     		bx	lr
 1474              	.L82:
 1475 002e 00BF     		.align	2
 1476              	.L81:
 1477 0030 FC5F0040 		.word	1073766396
 1478              		.cfi_endproc
 1479              	.LFE14:
 1480              		.size	USBFS_1_DisableOutEP, .-USBFS_1_DisableOutEP
 1481              		.section	.text.USBFS_1_Force,"ax",%progbits
 1482              		.align	2
 1483              		.global	USBFS_1_Force
 1484              		.thumb
 1485              		.thumb_func
 1486              		.type	USBFS_1_Force, %function
 1487              	USBFS_1_Force:
 1488              	.LFB15:
2308:Generated_Source\PSoC5/USBFS_1.c **** 
2309:Generated_Source\PSoC5/USBFS_1.c **** 
2310:Generated_Source\PSoC5/USBFS_1.c **** /*******************************************************************************
2311:Generated_Source\PSoC5/USBFS_1.c **** * Function Name: USBFS_1_Force
2312:Generated_Source\PSoC5/USBFS_1.c **** ****************************************************************************//**
2313:Generated_Source\PSoC5/USBFS_1.c **** *
2314:Generated_Source\PSoC5/USBFS_1.c **** *  This function forces a USB J, K, or SE0 state on the D+/D– lines. It provides
2315:Generated_Source\PSoC5/USBFS_1.c **** *  the necessary mechanism for a USB device application to perform a USB Remote
2316:Generated_Source\PSoC5/USBFS_1.c **** *  Wakeup. For more information, see the USB 2.0 Specification for details on
2317:Generated_Source\PSoC5/USBFS_1.c **** *  Suspend and Resume.
2318:Generated_Source\PSoC5/USBFS_1.c **** *
2319:Generated_Source\PSoC5/USBFS_1.c **** *  \param state A byte indicating which of the four bus states to enable.
2320:Generated_Source\PSoC5/USBFS_1.c **** *        Symbolic names  and their associated values are listed here:
2321:Generated_Source\PSoC5/USBFS_1.c **** *    State                      |Description
2322:Generated_Source\PSoC5/USBFS_1.c **** *    ---------------------------|----------------------------------------------
2323:Generated_Source\PSoC5/USBFS_1.c **** *    USBFS_1_FORCE_J   | Force a J State onto the D+/D– lines
ARM GAS  C:\Users\oars0\AppData\Local\Temp\ccNqJowk.s 			page 68


2324:Generated_Source\PSoC5/USBFS_1.c **** *    USBFS_1_FORCE_K   | Force a K State onto the D+/D– lines
2325:Generated_Source\PSoC5/USBFS_1.c **** *    USBFS_1_FORCE_SE0 | Force a Single Ended 0 onto the D+/D– lines
2326:Generated_Source\PSoC5/USBFS_1.c **** *    USBFS_1_FORCE_NONE| Return bus to SIE control
2327:Generated_Source\PSoC5/USBFS_1.c **** *
2328:Generated_Source\PSoC5/USBFS_1.c **** *
2329:Generated_Source\PSoC5/USBFS_1.c **** *******************************************************************************/
2330:Generated_Source\PSoC5/USBFS_1.c **** void USBFS_1_Force(uint8 bState) 
2331:Generated_Source\PSoC5/USBFS_1.c **** {
 1489              		.loc 1 2331 0
 1490              		.cfi_startproc
 1491              		@ args = 0, pretend = 0, frame = 8
 1492              		@ frame_needed = 1, uses_anonymous_args = 0
 1493              		@ link register save eliminated.
 1494 0000 80B4     		push	{r7}
 1495              		.cfi_def_cfa_offset 4
 1496              		.cfi_offset 7, -4
 1497 0002 83B0     		sub	sp, sp, #12
 1498              		.cfi_def_cfa_offset 16
 1499 0004 00AF     		add	r7, sp, #0
 1500              		.cfi_def_cfa_register 7
 1501 0006 0346     		mov	r3, r0
 1502 0008 FB71     		strb	r3, [r7, #7]
2332:Generated_Source\PSoC5/USBFS_1.c ****     /* This registers is used only for manual control of SIE (no masking is
2333:Generated_Source\PSoC5/USBFS_1.c ****     * needed before write into it).
2334:Generated_Source\PSoC5/USBFS_1.c ****     */
2335:Generated_Source\PSoC5/USBFS_1.c ****     USBFS_1_USBIO_CR0_REG = bState;
 1503              		.loc 1 2335 0
 1504 000a 044A     		ldr	r2, .L84
 1505 000c FB79     		ldrb	r3, [r7, #7]
 1506 000e 1370     		strb	r3, [r2]
2336:Generated_Source\PSoC5/USBFS_1.c **** }
 1507              		.loc 1 2336 0
 1508 0010 00BF     		nop
 1509 0012 0C37     		adds	r7, r7, #12
 1510              		.cfi_def_cfa_offset 4
 1511 0014 BD46     		mov	sp, r7
 1512              		.cfi_def_cfa_register 13
 1513              		@ sp needed
 1514 0016 80BC     		pop	{r7}
 1515              		.cfi_restore 7
 1516              		.cfi_def_cfa_offset 0
 1517 0018 7047     		bx	lr
 1518              	.L85:
 1519 001a 00BF     		.align	2
 1520              	.L84:
 1521 001c 10600040 		.word	1073766416
 1522              		.cfi_endproc
 1523              	.LFE15:
 1524              		.size	USBFS_1_Force, .-USBFS_1_Force
 1525              		.section	.text.USBFS_1_GetEPAckState,"ax",%progbits
 1526              		.align	2
 1527              		.global	USBFS_1_GetEPAckState
 1528              		.thumb
 1529              		.thumb_func
 1530              		.type	USBFS_1_GetEPAckState, %function
 1531              	USBFS_1_GetEPAckState:
 1532              	.LFB16:
ARM GAS  C:\Users\oars0\AppData\Local\Temp\ccNqJowk.s 			page 69


2337:Generated_Source\PSoC5/USBFS_1.c **** 
2338:Generated_Source\PSoC5/USBFS_1.c **** 
2339:Generated_Source\PSoC5/USBFS_1.c **** /*******************************************************************************
2340:Generated_Source\PSoC5/USBFS_1.c **** * Function Name: USBFS_1_GetEPAckState
2341:Generated_Source\PSoC5/USBFS_1.c **** ****************************************************************************//**
2342:Generated_Source\PSoC5/USBFS_1.c **** *
2343:Generated_Source\PSoC5/USBFS_1.c **** *  This function determines whether an ACK transaction occurred on this endpoint
2344:Generated_Source\PSoC5/USBFS_1.c **** *  by reading the ACK bit in the control register of the endpoint. It does not
2345:Generated_Source\PSoC5/USBFS_1.c **** *  clear the ACK bit.
2346:Generated_Source\PSoC5/USBFS_1.c **** *
2347:Generated_Source\PSoC5/USBFS_1.c **** *  \param epNumber Contains the data endpoint number.
2348:Generated_Source\PSoC5/USBFS_1.c **** *            Valid values are between 1 and 8.
2349:Generated_Source\PSoC5/USBFS_1.c **** *
2350:Generated_Source\PSoC5/USBFS_1.c **** *  \return
2351:Generated_Source\PSoC5/USBFS_1.c **** *  If an ACKed transaction occurred, this function returns a non-zero value.
2352:Generated_Source\PSoC5/USBFS_1.c **** *  Otherwise, it returns zero.
2353:Generated_Source\PSoC5/USBFS_1.c **** *
2354:Generated_Source\PSoC5/USBFS_1.c **** *******************************************************************************/
2355:Generated_Source\PSoC5/USBFS_1.c **** uint8 USBFS_1_GetEPAckState(uint8 epNumber) 
2356:Generated_Source\PSoC5/USBFS_1.c **** {
 1533              		.loc 1 2356 0
 1534              		.cfi_startproc
 1535              		@ args = 0, pretend = 0, frame = 16
 1536              		@ frame_needed = 1, uses_anonymous_args = 0
 1537              		@ link register save eliminated.
 1538 0000 80B4     		push	{r7}
 1539              		.cfi_def_cfa_offset 4
 1540              		.cfi_offset 7, -4
 1541 0002 85B0     		sub	sp, sp, #20
 1542              		.cfi_def_cfa_offset 24
 1543 0004 00AF     		add	r7, sp, #0
 1544              		.cfi_def_cfa_register 7
 1545 0006 0346     		mov	r3, r0
 1546 0008 FB71     		strb	r3, [r7, #7]
2357:Generated_Source\PSoC5/USBFS_1.c ****     uint8 cr = 0u;
 1547              		.loc 1 2357 0
 1548 000a 0023     		movs	r3, #0
 1549 000c FB73     		strb	r3, [r7, #15]
2358:Generated_Source\PSoC5/USBFS_1.c **** 
2359:Generated_Source\PSoC5/USBFS_1.c ****     if ((epNumber > USBFS_1_EP0) && (epNumber < USBFS_1_MAX_EP))
 1550              		.loc 1 2359 0
 1551 000e FB79     		ldrb	r3, [r7, #7]	@ zero_extendqisi2
 1552 0010 002B     		cmp	r3, #0
 1553 0012 0CD0     		beq	.L87
 1554              		.loc 1 2359 0 is_stmt 0 discriminator 1
 1555 0014 FB79     		ldrb	r3, [r7, #7]	@ zero_extendqisi2
 1556 0016 082B     		cmp	r3, #8
 1557 0018 09D8     		bhi	.L87
2360:Generated_Source\PSoC5/USBFS_1.c ****     {
2361:Generated_Source\PSoC5/USBFS_1.c ****         cr = USBFS_1_SIE_EP_BASE.sieEp[epNumber].epCr0 & USBFS_1_MODE_ACKD;
 1558              		.loc 1 2361 0 is_stmt 1
 1559 001a 084A     		ldr	r2, .L89
 1560 001c FB79     		ldrb	r3, [r7, #7]	@ zero_extendqisi2
 1561 001e 1B01     		lsls	r3, r3, #4
 1562 0020 1344     		add	r3, r3, r2
 1563 0022 0233     		adds	r3, r3, #2
 1564 0024 1B78     		ldrb	r3, [r3]
ARM GAS  C:\Users\oars0\AppData\Local\Temp\ccNqJowk.s 			page 70


 1565 0026 DBB2     		uxtb	r3, r3
 1566 0028 03F01003 		and	r3, r3, #16
 1567 002c FB73     		strb	r3, [r7, #15]
 1568              	.L87:
2362:Generated_Source\PSoC5/USBFS_1.c ****     }
2363:Generated_Source\PSoC5/USBFS_1.c **** 
2364:Generated_Source\PSoC5/USBFS_1.c ****     return ((uint8) cr);
 1569              		.loc 1 2364 0
 1570 002e FB7B     		ldrb	r3, [r7, #15]	@ zero_extendqisi2
2365:Generated_Source\PSoC5/USBFS_1.c **** }
 1571              		.loc 1 2365 0
 1572 0030 1846     		mov	r0, r3
 1573 0032 1437     		adds	r7, r7, #20
 1574              		.cfi_def_cfa_offset 4
 1575 0034 BD46     		mov	sp, r7
 1576              		.cfi_def_cfa_register 13
 1577              		@ sp needed
 1578 0036 80BC     		pop	{r7}
 1579              		.cfi_restore 7
 1580              		.cfi_def_cfa_offset 0
 1581 0038 7047     		bx	lr
 1582              	.L90:
 1583 003a 00BF     		.align	2
 1584              	.L89:
 1585 003c FC5F0040 		.word	1073766396
 1586              		.cfi_endproc
 1587              	.LFE16:
 1588              		.size	USBFS_1_GetEPAckState, .-USBFS_1_GetEPAckState
 1589              		.section	.text.USBFS_1_SetPowerStatus,"ax",%progbits
 1590              		.align	2
 1591              		.global	USBFS_1_SetPowerStatus
 1592              		.thumb
 1593              		.thumb_func
 1594              		.type	USBFS_1_SetPowerStatus, %function
 1595              	USBFS_1_SetPowerStatus:
 1596              	.LFB17:
2366:Generated_Source\PSoC5/USBFS_1.c **** 
2367:Generated_Source\PSoC5/USBFS_1.c **** 
2368:Generated_Source\PSoC5/USBFS_1.c **** /*******************************************************************************
2369:Generated_Source\PSoC5/USBFS_1.c **** * Function Name: USBFS_1_SetPowerStatus
2370:Generated_Source\PSoC5/USBFS_1.c **** ****************************************************************************//**
2371:Generated_Source\PSoC5/USBFS_1.c **** *
2372:Generated_Source\PSoC5/USBFS_1.c **** *  This function sets the current power status. The device replies to USB
2373:Generated_Source\PSoC5/USBFS_1.c **** *  GET_STATUS requests based on this value. This allows the device to properly
2374:Generated_Source\PSoC5/USBFS_1.c **** *  report its status for USB Chapter 9 compliance. Devices can change their
2375:Generated_Source\PSoC5/USBFS_1.c **** *  power source from self powered to bus powered at any time and report their
2376:Generated_Source\PSoC5/USBFS_1.c **** *  current power source as part of the device status. You should call this
2377:Generated_Source\PSoC5/USBFS_1.c **** *  function any time your device changes from self powered to bus powered or
2378:Generated_Source\PSoC5/USBFS_1.c **** *  vice versa, and set the status appropriately.
2379:Generated_Source\PSoC5/USBFS_1.c **** *
2380:Generated_Source\PSoC5/USBFS_1.c **** *  \param powerStatus: Contains the desired power status, one for self powered
2381:Generated_Source\PSoC5/USBFS_1.c **** *        or zero for bus powered. Symbolic names and their associated values are
2382:Generated_Source\PSoC5/USBFS_1.c **** *        given here:
2383:Generated_Source\PSoC5/USBFS_1.c **** *  Power Status                                |Description
2384:Generated_Source\PSoC5/USBFS_1.c **** *  --------------------------------------------|---------------------------
2385:Generated_Source\PSoC5/USBFS_1.c **** *  USBFS_1_DEVICE_STATUS_BUS_POWERED  | Set the device to bus powered
2386:Generated_Source\PSoC5/USBFS_1.c **** *  USBFS_1_DEVICE_STATUS_SELF_POWERED | Set the device to self powered
ARM GAS  C:\Users\oars0\AppData\Local\Temp\ccNqJowk.s 			page 71


2387:Generated_Source\PSoC5/USBFS_1.c **** *
2388:Generated_Source\PSoC5/USBFS_1.c **** * \globalvars
2389:Generated_Source\PSoC5/USBFS_1.c **** *
2390:Generated_Source\PSoC5/USBFS_1.c **** *  \ref USBFS_1_deviceStatus - set power status
2391:Generated_Source\PSoC5/USBFS_1.c **** *
2392:Generated_Source\PSoC5/USBFS_1.c **** * \reentrant
2393:Generated_Source\PSoC5/USBFS_1.c **** *  No.
2394:Generated_Source\PSoC5/USBFS_1.c **** *
2395:Generated_Source\PSoC5/USBFS_1.c **** *******************************************************************************/
2396:Generated_Source\PSoC5/USBFS_1.c **** void USBFS_1_SetPowerStatus(uint8 powerStatus) 
2397:Generated_Source\PSoC5/USBFS_1.c **** {
 1597              		.loc 1 2397 0
 1598              		.cfi_startproc
 1599              		@ args = 0, pretend = 0, frame = 8
 1600              		@ frame_needed = 1, uses_anonymous_args = 0
 1601              		@ link register save eliminated.
 1602 0000 80B4     		push	{r7}
 1603              		.cfi_def_cfa_offset 4
 1604              		.cfi_offset 7, -4
 1605 0002 83B0     		sub	sp, sp, #12
 1606              		.cfi_def_cfa_offset 16
 1607 0004 00AF     		add	r7, sp, #0
 1608              		.cfi_def_cfa_register 7
 1609 0006 0346     		mov	r3, r0
 1610 0008 FB71     		strb	r3, [r7, #7]
2398:Generated_Source\PSoC5/USBFS_1.c ****     if (powerStatus != USBFS_1_DEVICE_STATUS_BUS_POWERED)
 1611              		.loc 1 2398 0
 1612 000a FB79     		ldrb	r3, [r7, #7]	@ zero_extendqisi2
 1613 000c 002B     		cmp	r3, #0
 1614 000e 08D0     		beq	.L92
2399:Generated_Source\PSoC5/USBFS_1.c ****     {
2400:Generated_Source\PSoC5/USBFS_1.c ****         USBFS_1_deviceStatus |= (uint8)  USBFS_1_DEVICE_STATUS_SELF_POWERED;
 1615              		.loc 1 2400 0
 1616 0010 0A4B     		ldr	r3, .L95
 1617 0012 1B78     		ldrb	r3, [r3]
 1618 0014 DBB2     		uxtb	r3, r3
 1619 0016 43F00103 		orr	r3, r3, #1
 1620 001a DAB2     		uxtb	r2, r3
 1621 001c 074B     		ldr	r3, .L95
 1622 001e 1A70     		strb	r2, [r3]
2401:Generated_Source\PSoC5/USBFS_1.c ****     }
2402:Generated_Source\PSoC5/USBFS_1.c ****     else
2403:Generated_Source\PSoC5/USBFS_1.c ****     {
2404:Generated_Source\PSoC5/USBFS_1.c ****         USBFS_1_deviceStatus &= (uint8) ~USBFS_1_DEVICE_STATUS_SELF_POWERED;
2405:Generated_Source\PSoC5/USBFS_1.c ****     }
2406:Generated_Source\PSoC5/USBFS_1.c **** }
 1623              		.loc 1 2406 0
 1624 0020 07E0     		b	.L94
 1625              	.L92:
2404:Generated_Source\PSoC5/USBFS_1.c ****     }
 1626              		.loc 1 2404 0
 1627 0022 064B     		ldr	r3, .L95
 1628 0024 1B78     		ldrb	r3, [r3]
 1629 0026 DBB2     		uxtb	r3, r3
 1630 0028 23F00103 		bic	r3, r3, #1
 1631 002c DAB2     		uxtb	r2, r3
 1632 002e 034B     		ldr	r3, .L95
ARM GAS  C:\Users\oars0\AppData\Local\Temp\ccNqJowk.s 			page 72


 1633 0030 1A70     		strb	r2, [r3]
 1634              	.L94:
 1635              		.loc 1 2406 0
 1636 0032 00BF     		nop
 1637 0034 0C37     		adds	r7, r7, #12
 1638              		.cfi_def_cfa_offset 4
 1639 0036 BD46     		mov	sp, r7
 1640              		.cfi_def_cfa_register 13
 1641              		@ sp needed
 1642 0038 80BC     		pop	{r7}
 1643              		.cfi_restore 7
 1644              		.cfi_def_cfa_offset 0
 1645 003a 7047     		bx	lr
 1646              	.L96:
 1647              		.align	2
 1648              	.L95:
 1649 003c 00000000 		.word	USBFS_1_deviceStatus
 1650              		.cfi_endproc
 1651              	.LFE17:
 1652              		.size	USBFS_1_SetPowerStatus, .-USBFS_1_SetPowerStatus
 1653              		.section	.text.USBFS_1_RWUEnabled,"ax",%progbits
 1654              		.align	2
 1655              		.global	USBFS_1_RWUEnabled
 1656              		.thumb
 1657              		.thumb_func
 1658              		.type	USBFS_1_RWUEnabled, %function
 1659              	USBFS_1_RWUEnabled:
 1660              	.LFB18:
2407:Generated_Source\PSoC5/USBFS_1.c **** 
2408:Generated_Source\PSoC5/USBFS_1.c **** 
2409:Generated_Source\PSoC5/USBFS_1.c **** #if (USBFS_1_VBUS_MONITORING_ENABLE)
2410:Generated_Source\PSoC5/USBFS_1.c ****     /***************************************************************************
2411:Generated_Source\PSoC5/USBFS_1.c ****     * Function Name: USBFS_1_VBusPresent
2412:Generated_Source\PSoC5/USBFS_1.c ****     ************************************************************************//**
2413:Generated_Source\PSoC5/USBFS_1.c ****     *
2414:Generated_Source\PSoC5/USBFS_1.c ****     *  Determines VBUS presence for self-powered devices. This function is
2415:Generated_Source\PSoC5/USBFS_1.c ****     *  available when the VBUS Monitoring option is enabled in the Advanced tab.
2416:Generated_Source\PSoC5/USBFS_1.c ****     *
2417:Generated_Source\PSoC5/USBFS_1.c ****     * \return
2418:Generated_Source\PSoC5/USBFS_1.c ****     *  The return value can be the following:
2419:Generated_Source\PSoC5/USBFS_1.c ****     *  Return Value | Description
2420:Generated_Source\PSoC5/USBFS_1.c ****     *  -------------|-----------------
2421:Generated_Source\PSoC5/USBFS_1.c ****     *  1            | VBUS is present
2422:Generated_Source\PSoC5/USBFS_1.c ****     *  0            | VBUS is absent
2423:Generated_Source\PSoC5/USBFS_1.c ****     *
2424:Generated_Source\PSoC5/USBFS_1.c ****     *
2425:Generated_Source\PSoC5/USBFS_1.c ****     ***************************************************************************/
2426:Generated_Source\PSoC5/USBFS_1.c ****     uint8 USBFS_1_VBusPresent(void) 
2427:Generated_Source\PSoC5/USBFS_1.c ****     {
2428:Generated_Source\PSoC5/USBFS_1.c ****         return ((0u != (USBFS_1_VBUS_STATUS_REG & USBFS_1_VBUS_VALID)) ? (uint8) 1u : (uint8) 0u);
2429:Generated_Source\PSoC5/USBFS_1.c ****     }
2430:Generated_Source\PSoC5/USBFS_1.c **** #endif /* (USBFS_1_VBUS_MONITORING_ENABLE) */
2431:Generated_Source\PSoC5/USBFS_1.c **** 
2432:Generated_Source\PSoC5/USBFS_1.c **** 
2433:Generated_Source\PSoC5/USBFS_1.c **** /*******************************************************************************
2434:Generated_Source\PSoC5/USBFS_1.c **** * Function Name: USBFS_1_RWUEnabled
2435:Generated_Source\PSoC5/USBFS_1.c **** ****************************************************************************//**
ARM GAS  C:\Users\oars0\AppData\Local\Temp\ccNqJowk.s 			page 73


2436:Generated_Source\PSoC5/USBFS_1.c **** *
2437:Generated_Source\PSoC5/USBFS_1.c **** *  This function returns the current remote wakeup status.
2438:Generated_Source\PSoC5/USBFS_1.c **** *  If the device supports remote wakeup, the application should use this
2439:Generated_Source\PSoC5/USBFS_1.c **** *  function to determine if remote wakeup was enabled by the host. When the
2440:Generated_Source\PSoC5/USBFS_1.c **** *  device is suspended and it determines the conditions to initiate a remote
2441:Generated_Source\PSoC5/USBFS_1.c **** *  wakeup are met, the application should use the USBFS_Force() function to
2442:Generated_Source\PSoC5/USBFS_1.c **** *  force the appropriate J and K states onto the USB bus, signaling a remote
2443:Generated_Source\PSoC5/USBFS_1.c **** *  wakeup.
2444:Generated_Source\PSoC5/USBFS_1.c **** *
2445:Generated_Source\PSoC5/USBFS_1.c **** *
2446:Generated_Source\PSoC5/USBFS_1.c **** * \return
2447:Generated_Source\PSoC5/USBFS_1.c **** *  Returns non-zero value if remote wakeup is enabled and zero otherwise.
2448:Generated_Source\PSoC5/USBFS_1.c **** *
2449:Generated_Source\PSoC5/USBFS_1.c **** * \globalvars
2450:Generated_Source\PSoC5/USBFS_1.c **** *  USBFS_1_deviceStatus - checked to determine remote status
2451:Generated_Source\PSoC5/USBFS_1.c **** *
2452:Generated_Source\PSoC5/USBFS_1.c **** *******************************************************************************/
2453:Generated_Source\PSoC5/USBFS_1.c **** uint8 USBFS_1_RWUEnabled(void) 
2454:Generated_Source\PSoC5/USBFS_1.c **** {
 1661              		.loc 1 2454 0
 1662              		.cfi_startproc
 1663              		@ args = 0, pretend = 0, frame = 8
 1664              		@ frame_needed = 1, uses_anonymous_args = 0
 1665              		@ link register save eliminated.
 1666 0000 80B4     		push	{r7}
 1667              		.cfi_def_cfa_offset 4
 1668              		.cfi_offset 7, -4
 1669 0002 83B0     		sub	sp, sp, #12
 1670              		.cfi_def_cfa_offset 16
 1671 0004 00AF     		add	r7, sp, #0
 1672              		.cfi_def_cfa_register 7
2455:Generated_Source\PSoC5/USBFS_1.c ****     uint8 result = USBFS_1_FALSE;
 1673              		.loc 1 2455 0
 1674 0006 0023     		movs	r3, #0
 1675 0008 FB71     		strb	r3, [r7, #7]
2456:Generated_Source\PSoC5/USBFS_1.c **** 
2457:Generated_Source\PSoC5/USBFS_1.c ****     if (0u != (USBFS_1_deviceStatus & USBFS_1_DEVICE_STATUS_REMOTE_WAKEUP))
 1676              		.loc 1 2457 0
 1677 000a 074B     		ldr	r3, .L100
 1678 000c 1B78     		ldrb	r3, [r3]
 1679 000e DBB2     		uxtb	r3, r3
 1680 0010 03F00203 		and	r3, r3, #2
 1681 0014 002B     		cmp	r3, #0
 1682 0016 01D0     		beq	.L98
2458:Generated_Source\PSoC5/USBFS_1.c ****     {
2459:Generated_Source\PSoC5/USBFS_1.c ****         result = USBFS_1_TRUE;
 1683              		.loc 1 2459 0
 1684 0018 0123     		movs	r3, #1
 1685 001a FB71     		strb	r3, [r7, #7]
 1686              	.L98:
2460:Generated_Source\PSoC5/USBFS_1.c ****     }
2461:Generated_Source\PSoC5/USBFS_1.c **** 
2462:Generated_Source\PSoC5/USBFS_1.c ****     return (result);
 1687              		.loc 1 2462 0
 1688 001c FB79     		ldrb	r3, [r7, #7]	@ zero_extendqisi2
2463:Generated_Source\PSoC5/USBFS_1.c **** }
 1689              		.loc 1 2463 0
ARM GAS  C:\Users\oars0\AppData\Local\Temp\ccNqJowk.s 			page 74


 1690 001e 1846     		mov	r0, r3
 1691 0020 0C37     		adds	r7, r7, #12
 1692              		.cfi_def_cfa_offset 4
 1693 0022 BD46     		mov	sp, r7
 1694              		.cfi_def_cfa_register 13
 1695              		@ sp needed
 1696 0024 80BC     		pop	{r7}
 1697              		.cfi_restore 7
 1698              		.cfi_def_cfa_offset 0
 1699 0026 7047     		bx	lr
 1700              	.L101:
 1701              		.align	2
 1702              	.L100:
 1703 0028 00000000 		.word	USBFS_1_deviceStatus
 1704              		.cfi_endproc
 1705              	.LFE18:
 1706              		.size	USBFS_1_RWUEnabled, .-USBFS_1_RWUEnabled
 1707              		.section	.text.USBFS_1_GetDeviceAddress,"ax",%progbits
 1708              		.align	2
 1709              		.global	USBFS_1_GetDeviceAddress
 1710              		.thumb
 1711              		.thumb_func
 1712              		.type	USBFS_1_GetDeviceAddress, %function
 1713              	USBFS_1_GetDeviceAddress:
 1714              	.LFB19:
2464:Generated_Source\PSoC5/USBFS_1.c **** 
2465:Generated_Source\PSoC5/USBFS_1.c **** 
2466:Generated_Source\PSoC5/USBFS_1.c **** /*******************************************************************************
2467:Generated_Source\PSoC5/USBFS_1.c **** * Function Name: USBFS_1_GetDeviceAddress
2468:Generated_Source\PSoC5/USBFS_1.c **** ****************************************************************************//**
2469:Generated_Source\PSoC5/USBFS_1.c **** *
2470:Generated_Source\PSoC5/USBFS_1.c **** *  This function returns the currently assigned address for the USB device.
2471:Generated_Source\PSoC5/USBFS_1.c **** *
2472:Generated_Source\PSoC5/USBFS_1.c **** * \return
2473:Generated_Source\PSoC5/USBFS_1.c **** *  Returns the currently assigned address.
2474:Generated_Source\PSoC5/USBFS_1.c **** *  Returns 0 if the device has not yet been assigned an address.
2475:Generated_Source\PSoC5/USBFS_1.c **** *
2476:Generated_Source\PSoC5/USBFS_1.c **** *******************************************************************************/
2477:Generated_Source\PSoC5/USBFS_1.c **** uint8 USBFS_1_GetDeviceAddress(void) 
2478:Generated_Source\PSoC5/USBFS_1.c **** {
 1715              		.loc 1 2478 0
 1716              		.cfi_startproc
 1717              		@ args = 0, pretend = 0, frame = 0
 1718              		@ frame_needed = 1, uses_anonymous_args = 0
 1719              		@ link register save eliminated.
 1720 0000 80B4     		push	{r7}
 1721              		.cfi_def_cfa_offset 4
 1722              		.cfi_offset 7, -4
 1723 0002 00AF     		add	r7, sp, #0
 1724              		.cfi_def_cfa_register 7
2479:Generated_Source\PSoC5/USBFS_1.c ****     return (uint8)(USBFS_1_CR0_REG & USBFS_1_CR0_DEVICE_ADDRESS_MASK);
 1725              		.loc 1 2479 0
 1726 0004 044B     		ldr	r3, .L104
 1727 0006 1B78     		ldrb	r3, [r3]
 1728 0008 DBB2     		uxtb	r3, r3
 1729 000a 03F07F03 		and	r3, r3, #127
 1730 000e DBB2     		uxtb	r3, r3
ARM GAS  C:\Users\oars0\AppData\Local\Temp\ccNqJowk.s 			page 75


2480:Generated_Source\PSoC5/USBFS_1.c **** }
 1731              		.loc 1 2480 0
 1732 0010 1846     		mov	r0, r3
 1733 0012 BD46     		mov	sp, r7
 1734              		.cfi_def_cfa_register 13
 1735              		@ sp needed
 1736 0014 80BC     		pop	{r7}
 1737              		.cfi_restore 7
 1738              		.cfi_def_cfa_offset 0
 1739 0016 7047     		bx	lr
 1740              	.L105:
 1741              		.align	2
 1742              	.L104:
 1743 0018 08600040 		.word	1073766408
 1744              		.cfi_endproc
 1745              	.LFE19:
 1746              		.size	USBFS_1_GetDeviceAddress, .-USBFS_1_GetDeviceAddress
 1747              		.section	.text.USBFS_1_EnableSofInt,"ax",%progbits
 1748              		.align	2
 1749              		.global	USBFS_1_EnableSofInt
 1750              		.thumb
 1751              		.thumb_func
 1752              		.type	USBFS_1_EnableSofInt, %function
 1753              	USBFS_1_EnableSofInt:
 1754              	.LFB20:
2481:Generated_Source\PSoC5/USBFS_1.c **** 
2482:Generated_Source\PSoC5/USBFS_1.c **** 
2483:Generated_Source\PSoC5/USBFS_1.c **** /*******************************************************************************
2484:Generated_Source\PSoC5/USBFS_1.c **** * Function Name: USBFS_1_EnableSofInt
2485:Generated_Source\PSoC5/USBFS_1.c **** ****************************************************************************//**
2486:Generated_Source\PSoC5/USBFS_1.c **** *
2487:Generated_Source\PSoC5/USBFS_1.c **** *  This function enables interrupt generation when a Start-of-Frame (SOF)
2488:Generated_Source\PSoC5/USBFS_1.c **** *  packet is received from the host.
2489:Generated_Source\PSoC5/USBFS_1.c **** *
2490:Generated_Source\PSoC5/USBFS_1.c **** *******************************************************************************/
2491:Generated_Source\PSoC5/USBFS_1.c **** void USBFS_1_EnableSofInt(void) 
2492:Generated_Source\PSoC5/USBFS_1.c **** {
 1755              		.loc 1 2492 0
 1756              		.cfi_startproc
 1757              		@ args = 0, pretend = 0, frame = 0
 1758              		@ frame_needed = 1, uses_anonymous_args = 0
 1759              		@ link register save eliminated.
 1760 0000 80B4     		push	{r7}
 1761              		.cfi_def_cfa_offset 4
 1762              		.cfi_offset 7, -4
 1763 0002 00AF     		add	r7, sp, #0
 1764              		.cfi_def_cfa_register 7
2493:Generated_Source\PSoC5/USBFS_1.c **** #if (CY_PSOC4)
2494:Generated_Source\PSoC5/USBFS_1.c ****     /* Enable SOF interrupt interrupt source. */
2495:Generated_Source\PSoC5/USBFS_1.c ****     USBFS_1_INTR_SIE_MASK_REG |= (uint32) USBFS_1_INTR_SIE_SOF_INTR;
2496:Generated_Source\PSoC5/USBFS_1.c **** #else
2497:Generated_Source\PSoC5/USBFS_1.c ****     /* Enable SOF interrupt if it is present. */
2498:Generated_Source\PSoC5/USBFS_1.c ****     #if (USBFS_1_SOF_ISR_ACTIVE)
2499:Generated_Source\PSoC5/USBFS_1.c ****         CyIntEnable(USBFS_1_SOF_VECT_NUM);
 1765              		.loc 1 2499 0
 1766 0004 034B     		ldr	r3, .L107
 1767 0006 4FF40012 		mov	r2, #2097152
ARM GAS  C:\Users\oars0\AppData\Local\Temp\ccNqJowk.s 			page 76


 1768 000a 1A60     		str	r2, [r3]
2500:Generated_Source\PSoC5/USBFS_1.c ****     #endif /* (USBFS_1_SOF_ISR_ACTIVE) */
2501:Generated_Source\PSoC5/USBFS_1.c **** #endif /* (CY_PSOC4) */
2502:Generated_Source\PSoC5/USBFS_1.c **** }
 1769              		.loc 1 2502 0
 1770 000c 00BF     		nop
 1771 000e BD46     		mov	sp, r7
 1772              		.cfi_def_cfa_register 13
 1773              		@ sp needed
 1774 0010 80BC     		pop	{r7}
 1775              		.cfi_restore 7
 1776              		.cfi_def_cfa_offset 0
 1777 0012 7047     		bx	lr
 1778              	.L108:
 1779              		.align	2
 1780              	.L107:
 1781 0014 00E100E0 		.word	-536813312
 1782              		.cfi_endproc
 1783              	.LFE20:
 1784              		.size	USBFS_1_EnableSofInt, .-USBFS_1_EnableSofInt
 1785              		.section	.text.USBFS_1_DisableSofInt,"ax",%progbits
 1786              		.align	2
 1787              		.global	USBFS_1_DisableSofInt
 1788              		.thumb
 1789              		.thumb_func
 1790              		.type	USBFS_1_DisableSofInt, %function
 1791              	USBFS_1_DisableSofInt:
 1792              	.LFB21:
2503:Generated_Source\PSoC5/USBFS_1.c **** 
2504:Generated_Source\PSoC5/USBFS_1.c **** 
2505:Generated_Source\PSoC5/USBFS_1.c **** /*******************************************************************************
2506:Generated_Source\PSoC5/USBFS_1.c **** * Function Name: USBFS_1_DisableSofInt
2507:Generated_Source\PSoC5/USBFS_1.c **** ****************************************************************************//**
2508:Generated_Source\PSoC5/USBFS_1.c **** *
2509:Generated_Source\PSoC5/USBFS_1.c **** *  This function disables interrupt generation when a Start-of-Frame (SOF)
2510:Generated_Source\PSoC5/USBFS_1.c **** *  packet is received from the host.
2511:Generated_Source\PSoC5/USBFS_1.c **** *
2512:Generated_Source\PSoC5/USBFS_1.c **** *******************************************************************************/
2513:Generated_Source\PSoC5/USBFS_1.c **** void USBFS_1_DisableSofInt(void) 
2514:Generated_Source\PSoC5/USBFS_1.c **** {
 1793              		.loc 1 2514 0
 1794              		.cfi_startproc
 1795              		@ args = 0, pretend = 0, frame = 0
 1796              		@ frame_needed = 1, uses_anonymous_args = 0
 1797              		@ link register save eliminated.
 1798 0000 80B4     		push	{r7}
 1799              		.cfi_def_cfa_offset 4
 1800              		.cfi_offset 7, -4
 1801 0002 00AF     		add	r7, sp, #0
 1802              		.cfi_def_cfa_register 7
2515:Generated_Source\PSoC5/USBFS_1.c **** #if (CY_PSOC4)
2516:Generated_Source\PSoC5/USBFS_1.c ****     /* Disable SOF interrupt interrupt source. */
2517:Generated_Source\PSoC5/USBFS_1.c ****     USBFS_1_INTR_SIE_MASK_REG &= (uint32) ~USBFS_1_INTR_SIE_SOF_INTR;
2518:Generated_Source\PSoC5/USBFS_1.c **** #else
2519:Generated_Source\PSoC5/USBFS_1.c ****     /* Disable SOF interrupt if it is present. */
2520:Generated_Source\PSoC5/USBFS_1.c ****     #if (USBFS_1_SOF_ISR_ACTIVE)
2521:Generated_Source\PSoC5/USBFS_1.c ****         CyIntDisable(USBFS_1_SOF_VECT_NUM);
ARM GAS  C:\Users\oars0\AppData\Local\Temp\ccNqJowk.s 			page 77


 1803              		.loc 1 2521 0
 1804 0004 034B     		ldr	r3, .L110
 1805 0006 4FF40012 		mov	r2, #2097152
 1806 000a 1A60     		str	r2, [r3]
2522:Generated_Source\PSoC5/USBFS_1.c ****     #endif /* (USBFS_1_SOF_ISR_ACTIVE) */
2523:Generated_Source\PSoC5/USBFS_1.c **** #endif /* (CY_PSOC4) */
2524:Generated_Source\PSoC5/USBFS_1.c **** }
 1807              		.loc 1 2524 0
 1808 000c 00BF     		nop
 1809 000e BD46     		mov	sp, r7
 1810              		.cfi_def_cfa_register 13
 1811              		@ sp needed
 1812 0010 80BC     		pop	{r7}
 1813              		.cfi_restore 7
 1814              		.cfi_def_cfa_offset 0
 1815 0012 7047     		bx	lr
 1816              	.L111:
 1817              		.align	2
 1818              	.L110:
 1819 0014 80E100E0 		.word	-536813184
 1820              		.cfi_endproc
 1821              	.LFE21:
 1822              		.size	USBFS_1_DisableSofInt, .-USBFS_1_DisableSofInt
 1823              		.text
 1824              	.Letext0:
 1825              		.file 2 "Generated_Source\\PSoC5\\cytypes.h"
 1826              		.file 3 "Generated_Source\\PSoC5\\USBFS_1.h"
 1827              		.file 4 "Generated_Source\\PSoC5\\USBFS_1_pvt.h"
 1828              		.section	.debug_info,"",%progbits
 1829              	.Ldebug_info0:
 1830 0000 43070000 		.4byte	0x743
 1831 0004 0400     		.2byte	0x4
 1832 0006 00000000 		.4byte	.Ldebug_abbrev0
 1833 000a 04       		.byte	0x4
 1834 000b 01       		.uleb128 0x1
 1835 000c 44000000 		.4byte	.LASF93
 1836 0010 0C       		.byte	0xc
 1837 0011 B0040000 		.4byte	.LASF94
 1838 0015 07040000 		.4byte	.LASF95
 1839 0019 00000000 		.4byte	.Ldebug_ranges0+0
 1840 001d 00000000 		.4byte	0
 1841 0021 00000000 		.4byte	.Ldebug_line0
 1842 0025 02       		.uleb128 0x2
 1843 0026 01       		.byte	0x1
 1844 0027 06       		.byte	0x6
 1845 0028 43010000 		.4byte	.LASF0
 1846 002c 02       		.uleb128 0x2
 1847 002d 01       		.byte	0x1
 1848 002e 08       		.byte	0x8
 1849 002f A2040000 		.4byte	.LASF1
 1850 0033 02       		.uleb128 0x2
 1851 0034 02       		.byte	0x2
 1852 0035 05       		.byte	0x5
 1853 0036 D1040000 		.4byte	.LASF2
 1854 003a 02       		.uleb128 0x2
 1855 003b 02       		.byte	0x2
 1856 003c 07       		.byte	0x7
ARM GAS  C:\Users\oars0\AppData\Local\Temp\ccNqJowk.s 			page 78


 1857 003d C8020000 		.4byte	.LASF3
 1858 0041 02       		.uleb128 0x2
 1859 0042 04       		.byte	0x4
 1860 0043 05       		.byte	0x5
 1861 0044 54010000 		.4byte	.LASF4
 1862 0048 02       		.uleb128 0x2
 1863 0049 04       		.byte	0x4
 1864 004a 07       		.byte	0x7
 1865 004b 54020000 		.4byte	.LASF5
 1866 004f 02       		.uleb128 0x2
 1867 0050 08       		.byte	0x8
 1868 0051 05       		.byte	0x5
 1869 0052 35010000 		.4byte	.LASF6
 1870 0056 02       		.uleb128 0x2
 1871 0057 08       		.byte	0x8
 1872 0058 07       		.byte	0x7
 1873 0059 E2000000 		.4byte	.LASF7
 1874 005d 03       		.uleb128 0x3
 1875 005e 04       		.byte	0x4
 1876 005f 05       		.byte	0x5
 1877 0060 696E7400 		.ascii	"int\000"
 1878 0064 02       		.uleb128 0x2
 1879 0065 04       		.byte	0x4
 1880 0066 07       		.byte	0x7
 1881 0067 1B020000 		.4byte	.LASF8
 1882 006b 04       		.uleb128 0x4
 1883 006c 83010000 		.4byte	.LASF9
 1884 0070 02       		.byte	0x2
 1885 0071 E401     		.2byte	0x1e4
 1886 0073 2C000000 		.4byte	0x2c
 1887 0077 04       		.uleb128 0x4
 1888 0078 00000000 		.4byte	.LASF10
 1889 007c 02       		.byte	0x2
 1890 007d E501     		.2byte	0x1e5
 1891 007f 3A000000 		.4byte	0x3a
 1892 0083 04       		.uleb128 0x4
 1893 0084 CB010000 		.4byte	.LASF11
 1894 0088 02       		.byte	0x2
 1895 0089 E601     		.2byte	0x1e6
 1896 008b 48000000 		.4byte	0x48
 1897 008f 02       		.uleb128 0x2
 1898 0090 04       		.byte	0x4
 1899 0091 04       		.byte	0x4
 1900 0092 DD030000 		.4byte	.LASF12
 1901 0096 02       		.uleb128 0x2
 1902 0097 08       		.byte	0x8
 1903 0098 04       		.byte	0x4
 1904 0099 9E010000 		.4byte	.LASF13
 1905 009d 02       		.uleb128 0x2
 1906 009e 01       		.byte	0x1
 1907 009f 08       		.byte	0x8
 1908 00a0 4C050000 		.4byte	.LASF14
 1909 00a4 04       		.uleb128 0x4
 1910 00a5 9D040000 		.4byte	.LASF15
 1911 00a9 02       		.byte	0x2
 1912 00aa 8E02     		.2byte	0x28e
 1913 00ac B0000000 		.4byte	0xb0
ARM GAS  C:\Users\oars0\AppData\Local\Temp\ccNqJowk.s 			page 79


 1914 00b0 05       		.uleb128 0x5
 1915 00b1 6B000000 		.4byte	0x6b
 1916 00b5 04       		.uleb128 0x4
 1917 00b6 34030000 		.4byte	.LASF16
 1918 00ba 02       		.byte	0x2
 1919 00bb 9002     		.2byte	0x290
 1920 00bd C1000000 		.4byte	0xc1
 1921 00c1 05       		.uleb128 0x5
 1922 00c2 83000000 		.4byte	0x83
 1923 00c6 02       		.uleb128 0x2
 1924 00c7 08       		.byte	0x8
 1925 00c8 04       		.byte	0x4
 1926 00c9 79030000 		.4byte	.LASF17
 1927 00cd 02       		.uleb128 0x2
 1928 00ce 04       		.byte	0x4
 1929 00cf 07       		.byte	0x7
 1930 00d0 5D030000 		.4byte	.LASF18
 1931 00d4 06       		.uleb128 0x6
 1932 00d5 0C       		.byte	0xc
 1933 00d6 03       		.byte	0x3
 1934 00d7 90       		.byte	0x90
 1935 00d8 49010000 		.4byte	0x149
 1936 00dc 07       		.uleb128 0x7
 1937 00dd 85030000 		.4byte	.LASF19
 1938 00e1 03       		.byte	0x3
 1939 00e2 92       		.byte	0x92
 1940 00e3 6B000000 		.4byte	0x6b
 1941 00e7 00       		.byte	0
 1942 00e8 07       		.uleb128 0x7
 1943 00e9 E3030000 		.4byte	.LASF20
 1944 00ed 03       		.byte	0x3
 1945 00ee 93       		.byte	0x93
 1946 00ef 6B000000 		.4byte	0x6b
 1947 00f3 01       		.byte	0x1
 1948 00f4 07       		.uleb128 0x7
 1949 00f5 3A030000 		.4byte	.LASF21
 1950 00f9 03       		.byte	0x3
 1951 00fa 94       		.byte	0x94
 1952 00fb 6B000000 		.4byte	0x6b
 1953 00ff 02       		.byte	0x2
 1954 0100 07       		.uleb128 0x7
 1955 0101 89010000 		.4byte	.LASF22
 1956 0105 03       		.byte	0x3
 1957 0106 95       		.byte	0x95
 1958 0107 6B000000 		.4byte	0x6b
 1959 010b 03       		.byte	0x3
 1960 010c 07       		.uleb128 0x7
 1961 010d 0F010000 		.4byte	.LASF23
 1962 0111 03       		.byte	0x3
 1963 0112 96       		.byte	0x96
 1964 0113 6B000000 		.4byte	0x6b
 1965 0117 04       		.byte	0x4
 1966 0118 07       		.uleb128 0x7
 1967 0119 DE010000 		.4byte	.LASF24
 1968 011d 03       		.byte	0x3
 1969 011e 97       		.byte	0x97
 1970 011f 6B000000 		.4byte	0x6b
ARM GAS  C:\Users\oars0\AppData\Local\Temp\ccNqJowk.s 			page 80


 1971 0123 05       		.byte	0x5
 1972 0124 07       		.uleb128 0x7
 1973 0125 61050000 		.4byte	.LASF25
 1974 0129 03       		.byte	0x3
 1975 012a 98       		.byte	0x98
 1976 012b 77000000 		.4byte	0x77
 1977 012f 06       		.byte	0x6
 1978 0130 07       		.uleb128 0x7
 1979 0131 56050000 		.4byte	.LASF26
 1980 0135 03       		.byte	0x3
 1981 0136 99       		.byte	0x99
 1982 0137 77000000 		.4byte	0x77
 1983 013b 08       		.byte	0x8
 1984 013c 07       		.uleb128 0x7
 1985 013d 23030000 		.4byte	.LASF27
 1986 0141 03       		.byte	0x3
 1987 0142 9A       		.byte	0x9a
 1988 0143 6B000000 		.4byte	0x6b
 1989 0147 0A       		.byte	0xa
 1990 0148 00       		.byte	0
 1991 0149 08       		.uleb128 0x8
 1992 014a DB020000 		.4byte	.LASF28
 1993 014e 03       		.byte	0x3
 1994 014f 9B       		.byte	0x9b
 1995 0150 D4000000 		.4byte	0xd4
 1996 0154 06       		.uleb128 0x6
 1997 0155 10       		.byte	0x10
 1998 0156 03       		.byte	0x3
 1999 0157 D7       		.byte	0xd7
 2000 0158 8D010000 		.4byte	0x18d
 2001 015c 07       		.uleb128 0x7
 2002 015d B3030000 		.4byte	.LASF29
 2003 0161 03       		.byte	0x3
 2004 0162 D9       		.byte	0xd9
 2005 0163 6B000000 		.4byte	0x6b
 2006 0167 00       		.byte	0
 2007 0168 07       		.uleb128 0x7
 2008 0169 BA030000 		.4byte	.LASF30
 2009 016d 03       		.byte	0x3
 2010 016e DA       		.byte	0xda
 2011 016f 6B000000 		.4byte	0x6b
 2012 0173 01       		.byte	0x1
 2013 0174 07       		.uleb128 0x7
 2014 0175 D7030000 		.4byte	.LASF31
 2015 0179 03       		.byte	0x3
 2016 017a DB       		.byte	0xdb
 2017 017b 6B000000 		.4byte	0x6b
 2018 017f 02       		.byte	0x2
 2019 0180 09       		.uleb128 0x9
 2020 0181 67617000 		.ascii	"gap\000"
 2021 0185 03       		.byte	0x3
 2022 0186 DC       		.byte	0xdc
 2023 0187 8D010000 		.4byte	0x18d
 2024 018b 03       		.byte	0x3
 2025 018c 00       		.byte	0
 2026 018d 0A       		.uleb128 0xa
 2027 018e 6B000000 		.4byte	0x6b
ARM GAS  C:\Users\oars0\AppData\Local\Temp\ccNqJowk.s 			page 81


 2028 0192 9D010000 		.4byte	0x19d
 2029 0196 0B       		.uleb128 0xb
 2030 0197 CD000000 		.4byte	0xcd
 2031 019b 0C       		.byte	0xc
 2032 019c 00       		.byte	0
 2033 019d 08       		.uleb128 0x8
 2034 019e C1030000 		.4byte	.LASF32
 2035 01a2 03       		.byte	0x3
 2036 01a3 DD       		.byte	0xdd
 2037 01a4 54010000 		.4byte	0x154
 2038 01a8 06       		.uleb128 0x6
 2039 01a9 10       		.byte	0x10
 2040 01aa 03       		.byte	0x3
 2041 01ab E9       		.byte	0xe9
 2042 01ac 29020000 		.4byte	0x229
 2043 01b0 07       		.uleb128 0x7
 2044 01b1 14010000 		.4byte	.LASF33
 2045 01b5 03       		.byte	0x3
 2046 01b6 EB       		.byte	0xeb
 2047 01b7 6B000000 		.4byte	0x6b
 2048 01bb 00       		.byte	0
 2049 01bc 07       		.uleb128 0x7
 2050 01bd ED050000 		.4byte	.LASF34
 2051 01c1 03       		.byte	0x3
 2052 01c2 EC       		.byte	0xec
 2053 01c3 6B000000 		.4byte	0x6b
 2054 01c7 01       		.byte	0x1
 2055 01c8 07       		.uleb128 0x7
 2056 01c9 C6010000 		.4byte	.LASF35
 2057 01cd 03       		.byte	0x3
 2058 01ce ED       		.byte	0xed
 2059 01cf 6B000000 		.4byte	0x6b
 2060 01d3 02       		.byte	0x2
 2061 01d4 07       		.uleb128 0x7
 2062 01d5 FD010000 		.4byte	.LASF36
 2063 01d9 03       		.byte	0x3
 2064 01da EE       		.byte	0xee
 2065 01db 6B000000 		.4byte	0x6b
 2066 01df 03       		.byte	0x3
 2067 01e0 07       		.uleb128 0x7
 2068 01e1 92010000 		.4byte	.LASF37
 2069 01e5 03       		.byte	0x3
 2070 01e6 EF       		.byte	0xef
 2071 01e7 6B000000 		.4byte	0x6b
 2072 01eb 04       		.byte	0x4
 2073 01ec 07       		.uleb128 0x7
 2074 01ed FD040000 		.4byte	.LASF38
 2075 01f1 03       		.byte	0x3
 2076 01f2 F0       		.byte	0xf0
 2077 01f3 6B000000 		.4byte	0x6b
 2078 01f7 05       		.byte	0x5
 2079 01f8 07       		.uleb128 0x7
 2080 01f9 F8040000 		.4byte	.LASF39
 2081 01fd 03       		.byte	0x3
 2082 01fe F1       		.byte	0xf1
 2083 01ff 6B000000 		.4byte	0x6b
 2084 0203 06       		.byte	0x6
ARM GAS  C:\Users\oars0\AppData\Local\Temp\ccNqJowk.s 			page 82


 2085 0204 07       		.uleb128 0x7
 2086 0205 AB030000 		.4byte	.LASF40
 2087 0209 03       		.byte	0x3
 2088 020a F2       		.byte	0xf2
 2089 020b 6B000000 		.4byte	0x6b
 2090 020f 07       		.byte	0x7
 2091 0210 07       		.uleb128 0x7
 2092 0211 D3050000 		.4byte	.LASF41
 2093 0215 03       		.byte	0x3
 2094 0216 F3       		.byte	0xf3
 2095 0217 6B000000 		.4byte	0x6b
 2096 021b 08       		.byte	0x8
 2097 021c 09       		.uleb128 0x9
 2098 021d 67617000 		.ascii	"gap\000"
 2099 0221 03       		.byte	0x3
 2100 0222 F4       		.byte	0xf4
 2101 0223 29020000 		.4byte	0x229
 2102 0227 09       		.byte	0x9
 2103 0228 00       		.byte	0
 2104 0229 0A       		.uleb128 0xa
 2105 022a 6B000000 		.4byte	0x6b
 2106 022e 39020000 		.4byte	0x239
 2107 0232 0B       		.uleb128 0xb
 2108 0233 CD000000 		.4byte	0xcd
 2109 0237 06       		.byte	0x6
 2110 0238 00       		.byte	0
 2111 0239 08       		.uleb128 0x8
 2112 023a 3E020000 		.4byte	.LASF42
 2113 023e 03       		.byte	0x3
 2114 023f F5       		.byte	0xf5
 2115 0240 A8010000 		.4byte	0x1a8
 2116 0244 0C       		.uleb128 0xc
 2117 0245 90       		.byte	0x90
 2118 0246 03       		.byte	0x3
 2119 0247 1101     		.2byte	0x111
 2120 0249 5B020000 		.4byte	0x25b
 2121 024d 0D       		.uleb128 0xd
 2122 024e D8010000 		.4byte	.LASF43
 2123 0252 03       		.byte	0x3
 2124 0253 1301     		.2byte	0x113
 2125 0255 5B020000 		.4byte	0x25b
 2126 0259 00       		.byte	0
 2127 025a 00       		.byte	0
 2128 025b 0A       		.uleb128 0xa
 2129 025c 9D010000 		.4byte	0x19d
 2130 0260 6B020000 		.4byte	0x26b
 2131 0264 0B       		.uleb128 0xb
 2132 0265 CD000000 		.4byte	0xcd
 2133 0269 08       		.byte	0x8
 2134 026a 00       		.byte	0
 2135 026b 04       		.uleb128 0x4
 2136 026c 73020000 		.4byte	.LASF44
 2137 0270 03       		.byte	0x3
 2138 0271 1401     		.2byte	0x114
 2139 0273 44020000 		.4byte	0x244
 2140 0277 0C       		.uleb128 0xc
 2141 0278 90       		.byte	0x90
ARM GAS  C:\Users\oars0\AppData\Local\Temp\ccNqJowk.s 			page 83


 2142 0279 03       		.byte	0x3
 2143 027a 1701     		.2byte	0x117
 2144 027c 8E020000 		.4byte	0x28e
 2145 0280 0D       		.uleb128 0xd
 2146 0281 1D030000 		.4byte	.LASF45
 2147 0285 03       		.byte	0x3
 2148 0286 1901     		.2byte	0x119
 2149 0288 8E020000 		.4byte	0x28e
 2150 028c 00       		.byte	0
 2151 028d 00       		.byte	0
 2152 028e 0A       		.uleb128 0xa
 2153 028f 39020000 		.4byte	0x239
 2154 0293 9E020000 		.4byte	0x29e
 2155 0297 0B       		.uleb128 0xb
 2156 0298 CD000000 		.4byte	0xcd
 2157 029c 08       		.byte	0x8
 2158 029d 00       		.byte	0
 2159 029e 04       		.uleb128 0x4
 2160 029f 8A020000 		.4byte	.LASF46
 2161 02a3 03       		.byte	0x3
 2162 02a4 1A01     		.2byte	0x11a
 2163 02a6 77020000 		.4byte	0x277
 2164 02aa 0E       		.uleb128 0xe
 2165 02ab BA020000 		.4byte	.LASF49
 2166 02af 01       		.byte	0x1
 2167 02b0 BA       		.byte	0xba
 2168 02b1 00000000 		.4byte	.LFB0
 2169 02b5 3C000000 		.4byte	.LFE0-.LFB0
 2170 02b9 01       		.uleb128 0x1
 2171 02ba 9C       		.byte	0x9c
 2172 02bb DC020000 		.4byte	0x2dc
 2173 02bf 0F       		.uleb128 0xf
 2174 02c0 2E010000 		.4byte	.LASF47
 2175 02c4 01       		.byte	0x1
 2176 02c5 BA       		.byte	0xba
 2177 02c6 6B000000 		.4byte	0x6b
 2178 02ca 02       		.uleb128 0x2
 2179 02cb 91       		.byte	0x91
 2180 02cc 77       		.sleb128 -9
 2181 02cd 0F       		.uleb128 0xf
 2182 02ce 51050000 		.4byte	.LASF48
 2183 02d2 01       		.byte	0x1
 2184 02d3 BA       		.byte	0xba
 2185 02d4 6B000000 		.4byte	0x6b
 2186 02d8 02       		.uleb128 0x2
 2187 02d9 91       		.byte	0x91
 2188 02da 76       		.sleb128 -10
 2189 02db 00       		.byte	0
 2190 02dc 0E       		.uleb128 0xe
 2191 02dd 3F050000 		.4byte	.LASF50
 2192 02e1 01       		.byte	0x1
 2193 02e2 D3       		.byte	0xd3
 2194 02e3 00000000 		.4byte	.LFB1
 2195 02e7 7C010000 		.4byte	.LFE1-.LFB1
 2196 02eb 01       		.uleb128 0x1
 2197 02ec 9C       		.byte	0x9c
 2198 02ed 00030000 		.4byte	0x300
ARM GAS  C:\Users\oars0\AppData\Local\Temp\ccNqJowk.s 			page 84


 2199 02f1 10       		.uleb128 0x10
 2200 02f2 C2050000 		.4byte	.LASF52
 2201 02f6 01       		.byte	0x1
 2202 02f7 FA       		.byte	0xfa
 2203 02f8 6B000000 		.4byte	0x6b
 2204 02fc 02       		.uleb128 0x2
 2205 02fd 91       		.byte	0x91
 2206 02fe 77       		.sleb128 -9
 2207 02ff 00       		.byte	0
 2208 0300 11       		.uleb128 0x11
 2209 0301 29050000 		.4byte	.LASF51
 2210 0305 01       		.byte	0x1
 2211 0306 CC01     		.2byte	0x1cc
 2212 0308 00000000 		.4byte	.LFB2
 2213 030c 14010000 		.4byte	.LFE2-.LFB2
 2214 0310 01       		.uleb128 0x1
 2215 0311 9C       		.byte	0x9c
 2216 0312 42030000 		.4byte	0x342
 2217 0316 12       		.uleb128 0x12
 2218 0317 2E010000 		.4byte	.LASF47
 2219 031b 01       		.byte	0x1
 2220 031c CC01     		.2byte	0x1cc
 2221 031e 6B000000 		.4byte	0x6b
 2222 0322 02       		.uleb128 0x2
 2223 0323 91       		.byte	0x91
 2224 0324 6F       		.sleb128 -17
 2225 0325 12       		.uleb128 0x12
 2226 0326 51050000 		.4byte	.LASF48
 2227 032a 01       		.byte	0x1
 2228 032b CC01     		.2byte	0x1cc
 2229 032d 6B000000 		.4byte	0x6b
 2230 0331 02       		.uleb128 0x2
 2231 0332 91       		.byte	0x91
 2232 0333 6E       		.sleb128 -18
 2233 0334 13       		.uleb128 0x13
 2234 0335 6900     		.ascii	"i\000"
 2235 0337 01       		.byte	0x1
 2236 0338 D301     		.2byte	0x1d3
 2237 033a 6B000000 		.4byte	0x6b
 2238 033e 02       		.uleb128 0x2
 2239 033f 91       		.byte	0x91
 2240 0340 77       		.sleb128 -9
 2241 0341 00       		.byte	0
 2242 0342 14       		.uleb128 0x14
 2243 0343 28060000 		.4byte	.LASF53
 2244 0347 01       		.byte	0x1
 2245 0348 9F02     		.2byte	0x29f
 2246 034a 00000000 		.4byte	.LFB3
 2247 034e 88000000 		.4byte	.LFE3-.LFB3
 2248 0352 01       		.uleb128 0x1
 2249 0353 9C       		.byte	0x9c
 2250 0354 66030000 		.4byte	0x366
 2251 0358 13       		.uleb128 0x13
 2252 0359 6900     		.ascii	"i\000"
 2253 035b 01       		.byte	0x1
 2254 035c A502     		.2byte	0x2a5
 2255 035e 6B000000 		.4byte	0x6b
ARM GAS  C:\Users\oars0\AppData\Local\Temp\ccNqJowk.s 			page 85


 2256 0362 02       		.uleb128 0x2
 2257 0363 91       		.byte	0x91
 2258 0364 77       		.sleb128 -9
 2259 0365 00       		.byte	0
 2260 0366 11       		.uleb128 0x11
 2261 0367 66020000 		.4byte	.LASF54
 2262 036b 01       		.byte	0x1
 2263 036c D902     		.2byte	0x2d9
 2264 036e 00000000 		.4byte	.LFB4
 2265 0372 00010000 		.4byte	.LFE4-.LFB4
 2266 0376 01       		.uleb128 0x1
 2267 0377 9C       		.byte	0x9c
 2268 0378 8C030000 		.4byte	0x38c
 2269 037c 15       		.uleb128 0x15
 2270 037d C2050000 		.4byte	.LASF52
 2271 0381 01       		.byte	0x1
 2272 0382 DB02     		.2byte	0x2db
 2273 0384 6B000000 		.4byte	0x6b
 2274 0388 02       		.uleb128 0x2
 2275 0389 91       		.byte	0x91
 2276 038a 77       		.sleb128 -9
 2277 038b 00       		.byte	0
 2278 038c 16       		.uleb128 0x16
 2279 038d 2E000000 		.4byte	.LASF56
 2280 0391 01       		.byte	0x1
 2281 0392 5103     		.2byte	0x351
 2282 0394 6B000000 		.4byte	0x6b
 2283 0398 00000000 		.4byte	.LFB5
 2284 039c 38000000 		.4byte	.LFE5-.LFB5
 2285 03a0 01       		.uleb128 0x1
 2286 03a1 9C       		.byte	0x9c
 2287 03a2 B6030000 		.4byte	0x3b6
 2288 03a6 15       		.uleb128 0x15
 2289 03a7 2D030000 		.4byte	.LASF55
 2290 03ab 01       		.byte	0x1
 2291 03ac 5303     		.2byte	0x353
 2292 03ae 6B000000 		.4byte	0x6b
 2293 03b2 02       		.uleb128 0x2
 2294 03b3 91       		.byte	0x91
 2295 03b4 77       		.sleb128 -9
 2296 03b5 00       		.byte	0
 2297 03b6 17       		.uleb128 0x17
 2298 03b7 44030000 		.4byte	.LASF77
 2299 03bb 01       		.byte	0x1
 2300 03bc 6803     		.2byte	0x368
 2301 03be 6B000000 		.4byte	0x6b
 2302 03c2 00000000 		.4byte	.LFB6
 2303 03c6 18000000 		.4byte	.LFE6-.LFB6
 2304 03ca 01       		.uleb128 0x1
 2305 03cb 9C       		.byte	0x9c
 2306 03cc 16       		.uleb128 0x16
 2307 03cd 8C030000 		.4byte	.LASF57
 2308 03d1 01       		.byte	0x1
 2309 03d2 8203     		.2byte	0x382
 2310 03d4 6B000000 		.4byte	0x6b
 2311 03d8 00000000 		.4byte	.LFB7
 2312 03dc 30000000 		.4byte	.LFE7-.LFB7
ARM GAS  C:\Users\oars0\AppData\Local\Temp\ccNqJowk.s 			page 86


 2313 03e0 01       		.uleb128 0x1
 2314 03e1 9C       		.byte	0x9c
 2315 03e2 F6030000 		.4byte	0x3f6
 2316 03e6 13       		.uleb128 0x13
 2317 03e7 72657300 		.ascii	"res\000"
 2318 03eb 01       		.byte	0x1
 2319 03ec 8403     		.2byte	0x384
 2320 03ee 6B000000 		.4byte	0x6b
 2321 03f2 02       		.uleb128 0x2
 2322 03f3 91       		.byte	0x91
 2323 03f4 77       		.sleb128 -9
 2324 03f5 00       		.byte	0
 2325 03f6 16       		.uleb128 0x16
 2326 03f7 0C060000 		.4byte	.LASF58
 2327 03fb 01       		.byte	0x1
 2328 03fc 9F03     		.2byte	0x39f
 2329 03fe 6B000000 		.4byte	0x6b
 2330 0402 00000000 		.4byte	.LFB8
 2331 0406 20000000 		.4byte	.LFE8-.LFB8
 2332 040a 01       		.uleb128 0x1
 2333 040b 9C       		.byte	0x9c
 2334 040c 20040000 		.4byte	0x420
 2335 0410 12       		.uleb128 0x12
 2336 0411 6C050000 		.4byte	.LASF59
 2337 0415 01       		.byte	0x1
 2338 0416 9F03     		.2byte	0x39f
 2339 0418 6B000000 		.4byte	0x6b
 2340 041c 02       		.uleb128 0x2
 2341 041d 91       		.byte	0x91
 2342 041e 77       		.sleb128 -9
 2343 041f 00       		.byte	0
 2344 0420 16       		.uleb128 0x16
 2345 0421 66030000 		.4byte	.LASF60
 2346 0425 01       		.byte	0x1
 2347 0426 BF03     		.2byte	0x3bf
 2348 0428 6B000000 		.4byte	0x6b
 2349 042c 00000000 		.4byte	.LFB9
 2350 0430 2C000000 		.4byte	.LFE9-.LFB9
 2351 0434 01       		.uleb128 0x1
 2352 0435 9C       		.byte	0x9c
 2353 0436 4A040000 		.4byte	0x44a
 2354 043a 12       		.uleb128 0x12
 2355 043b 25010000 		.4byte	.LASF61
 2356 043f 01       		.byte	0x1
 2357 0440 BF03     		.2byte	0x3bf
 2358 0442 6B000000 		.4byte	0x6b
 2359 0446 02       		.uleb128 0x2
 2360 0447 91       		.byte	0x91
 2361 0448 77       		.sleb128 -9
 2362 0449 00       		.byte	0
 2363 044a 16       		.uleb128 0x16
 2364 044b 8A040000 		.4byte	.LASF62
 2365 044f 01       		.byte	0x1
 2366 0450 D603     		.2byte	0x3d6
 2367 0452 77000000 		.4byte	0x77
 2368 0456 00000000 		.4byte	.LFB10
 2369 045a 60000000 		.4byte	.LFE10-.LFB10
ARM GAS  C:\Users\oars0\AppData\Local\Temp\ccNqJowk.s 			page 87


 2370 045e 01       		.uleb128 0x1
 2371 045f 9C       		.byte	0x9c
 2372 0460 83040000 		.4byte	0x483
 2373 0464 12       		.uleb128 0x12
 2374 0465 25010000 		.4byte	.LASF61
 2375 0469 01       		.byte	0x1
 2376 046a D603     		.2byte	0x3d6
 2377 046c 6B000000 		.4byte	0x6b
 2378 0470 02       		.uleb128 0x2
 2379 0471 91       		.byte	0x91
 2380 0472 6F       		.sleb128 -17
 2381 0473 15       		.uleb128 0x15
 2382 0474 4F010000 		.4byte	.LASF63
 2383 0478 01       		.byte	0x1
 2384 0479 D803     		.2byte	0x3d8
 2385 047b 77000000 		.4byte	0x77
 2386 047f 02       		.uleb128 0x2
 2387 0480 91       		.byte	0x91
 2388 0481 76       		.sleb128 -10
 2389 0482 00       		.byte	0
 2390 0483 14       		.uleb128 0x14
 2391 0484 07000000 		.4byte	.LASF64
 2392 0488 01       		.byte	0x1
 2393 0489 3E05     		.2byte	0x53e
 2394 048b 00000000 		.4byte	.LFB11
 2395 048f 08010000 		.4byte	.LFE11-.LFB11
 2396 0493 01       		.uleb128 0x1
 2397 0494 9C       		.byte	0x9c
 2398 0495 DE040000 		.4byte	0x4de
 2399 0499 12       		.uleb128 0x12
 2400 049a 25010000 		.4byte	.LASF61
 2401 049e 01       		.byte	0x1
 2402 049f 3E05     		.2byte	0x53e
 2403 04a1 6B000000 		.4byte	0x6b
 2404 04a5 02       		.uleb128 0x2
 2405 04a6 91       		.byte	0x91
 2406 04a7 67       		.sleb128 -25
 2407 04a8 12       		.uleb128 0x12
 2408 04a9 D2010000 		.4byte	.LASF65
 2409 04ad 01       		.byte	0x1
 2410 04ae 3E05     		.2byte	0x53e
 2411 04b0 DE040000 		.4byte	0x4de
 2412 04b4 02       		.uleb128 0x2
 2413 04b5 91       		.byte	0x91
 2414 04b6 60       		.sleb128 -32
 2415 04b7 12       		.uleb128 0x12
 2416 04b8 BB050000 		.4byte	.LASF66
 2417 04bc 01       		.byte	0x1
 2418 04bd 3E05     		.2byte	0x53e
 2419 04bf 77000000 		.4byte	0x77
 2420 04c3 02       		.uleb128 0x2
 2421 04c4 91       		.byte	0x91
 2422 04c5 64       		.sleb128 -28
 2423 04c6 18       		.uleb128 0x18
 2424 04c7 96000000 		.4byte	.LBB2
 2425 04cb 28000000 		.4byte	.LBE2-.LBB2
 2426 04cf 13       		.uleb128 0x13
ARM GAS  C:\Users\oars0\AppData\Local\Temp\ccNqJowk.s 			page 88


 2427 04d0 6900     		.ascii	"i\000"
 2428 04d2 01       		.byte	0x1
 2429 04d3 5305     		.2byte	0x553
 2430 04d5 77000000 		.4byte	0x77
 2431 04d9 02       		.uleb128 0x2
 2432 04da 91       		.byte	0x91
 2433 04db 6E       		.sleb128 -18
 2434 04dc 00       		.byte	0
 2435 04dd 00       		.byte	0
 2436 04de 19       		.uleb128 0x19
 2437 04df 04       		.byte	0x4
 2438 04e0 E4040000 		.4byte	0x4e4
 2439 04e4 1A       		.uleb128 0x1a
 2440 04e5 6B000000 		.4byte	0x6b
 2441 04e9 1B       		.uleb128 0x1b
 2442 04ea 71010000 		.4byte	.LASF67
 2443 04ee 01       		.byte	0x1
 2444 04ef 7506     		.2byte	0x675
 2445 04f1 77000000 		.4byte	0x77
 2446 04f5 00000000 		.4byte	.LFB12
 2447 04f9 8C000000 		.4byte	.LFE12-.LFB12
 2448 04fd 01       		.uleb128 0x1
 2449 04fe 9C       		.byte	0x9c
 2450 04ff 48050000 		.4byte	0x548
 2451 0503 12       		.uleb128 0x12
 2452 0504 25010000 		.4byte	.LASF61
 2453 0508 01       		.byte	0x1
 2454 0509 7506     		.2byte	0x675
 2455 050b 6B000000 		.4byte	0x6b
 2456 050f 02       		.uleb128 0x2
 2457 0510 91       		.byte	0x91
 2458 0511 6F       		.sleb128 -17
 2459 0512 12       		.uleb128 0x12
 2460 0513 D2010000 		.4byte	.LASF65
 2461 0517 01       		.byte	0x1
 2462 0518 7506     		.2byte	0x675
 2463 051a 48050000 		.4byte	0x548
 2464 051e 02       		.uleb128 0x2
 2465 051f 91       		.byte	0x91
 2466 0520 68       		.sleb128 -24
 2467 0521 12       		.uleb128 0x12
 2468 0522 BB050000 		.4byte	.LASF66
 2469 0526 01       		.byte	0x1
 2470 0527 7506     		.2byte	0x675
 2471 0529 77000000 		.4byte	0x77
 2472 052d 02       		.uleb128 0x2
 2473 052e 91       		.byte	0x91
 2474 052f 6C       		.sleb128 -20
 2475 0530 18       		.uleb128 0x18
 2476 0531 44000000 		.4byte	.LBB3
 2477 0535 2A000000 		.4byte	.LBE3-.LBB3
 2478 0539 13       		.uleb128 0x13
 2479 053a 6900     		.ascii	"i\000"
 2480 053c 01       		.byte	0x1
 2481 053d 8206     		.2byte	0x682
 2482 053f 77000000 		.4byte	0x77
 2483 0543 02       		.uleb128 0x2
ARM GAS  C:\Users\oars0\AppData\Local\Temp\ccNqJowk.s 			page 89


 2484 0544 91       		.byte	0x91
 2485 0545 76       		.sleb128 -10
 2486 0546 00       		.byte	0
 2487 0547 00       		.byte	0
 2488 0548 19       		.uleb128 0x19
 2489 0549 04       		.byte	0x4
 2490 054a 6B000000 		.4byte	0x6b
 2491 054e 14       		.uleb128 0x14
 2492 054f 09030000 		.4byte	.LASF68
 2493 0553 01       		.byte	0x1
 2494 0554 E408     		.2byte	0x8e4
 2495 0556 00000000 		.4byte	.LFB13
 2496 055a 5C000000 		.4byte	.LFE13-.LFB13
 2497 055e 01       		.uleb128 0x1
 2498 055f 9C       		.byte	0x9c
 2499 0560 74050000 		.4byte	0x574
 2500 0564 12       		.uleb128 0x12
 2501 0565 25010000 		.4byte	.LASF61
 2502 0569 01       		.byte	0x1
 2503 056a E408     		.2byte	0x8e4
 2504 056c 6B000000 		.4byte	0x6b
 2505 0570 02       		.uleb128 0x2
 2506 0571 91       		.byte	0x91
 2507 0572 77       		.sleb128 -9
 2508 0573 00       		.byte	0
 2509 0574 14       		.uleb128 0x14
 2510 0575 06020000 		.4byte	.LASF69
 2511 0579 01       		.byte	0x1
 2512 057a FC08     		.2byte	0x8fc
 2513 057c 00000000 		.4byte	.LFB14
 2514 0580 34000000 		.4byte	.LFE14-.LFB14
 2515 0584 01       		.uleb128 0x1
 2516 0585 9C       		.byte	0x9c
 2517 0586 9A050000 		.4byte	0x59a
 2518 058a 12       		.uleb128 0x12
 2519 058b 25010000 		.4byte	.LASF61
 2520 058f 01       		.byte	0x1
 2521 0590 FC08     		.2byte	0x8fc
 2522 0592 6B000000 		.4byte	0x6b
 2523 0596 02       		.uleb128 0x2
 2524 0597 91       		.byte	0x91
 2525 0598 77       		.sleb128 -9
 2526 0599 00       		.byte	0
 2527 059a 14       		.uleb128 0x14
 2528 059b EA040000 		.4byte	.LASF70
 2529 059f 01       		.byte	0x1
 2530 05a0 1A09     		.2byte	0x91a
 2531 05a2 00000000 		.4byte	.LFB15
 2532 05a6 20000000 		.4byte	.LFE15-.LFB15
 2533 05aa 01       		.uleb128 0x1
 2534 05ab 9C       		.byte	0x9c
 2535 05ac C0050000 		.4byte	0x5c0
 2536 05b0 12       		.uleb128 0x12
 2537 05b1 05050000 		.4byte	.LASF71
 2538 05b5 01       		.byte	0x1
 2539 05b6 1A09     		.2byte	0x91a
 2540 05b8 6B000000 		.4byte	0x6b
ARM GAS  C:\Users\oars0\AppData\Local\Temp\ccNqJowk.s 			page 90


 2541 05bc 02       		.uleb128 0x2
 2542 05bd 91       		.byte	0x91
 2543 05be 77       		.sleb128 -9
 2544 05bf 00       		.byte	0
 2545 05c0 16       		.uleb128 0x16
 2546 05c1 18000000 		.4byte	.LASF72
 2547 05c5 01       		.byte	0x1
 2548 05c6 3309     		.2byte	0x933
 2549 05c8 6B000000 		.4byte	0x6b
 2550 05cc 00000000 		.4byte	.LFB16
 2551 05d0 40000000 		.4byte	.LFE16-.LFB16
 2552 05d4 01       		.uleb128 0x1
 2553 05d5 9C       		.byte	0x9c
 2554 05d6 F8050000 		.4byte	0x5f8
 2555 05da 12       		.uleb128 0x12
 2556 05db 25010000 		.4byte	.LASF61
 2557 05df 01       		.byte	0x1
 2558 05e0 3309     		.2byte	0x933
 2559 05e2 6B000000 		.4byte	0x6b
 2560 05e6 02       		.uleb128 0x2
 2561 05e7 91       		.byte	0x91
 2562 05e8 6F       		.sleb128 -17
 2563 05e9 13       		.uleb128 0x13
 2564 05ea 637200   		.ascii	"cr\000"
 2565 05ed 01       		.byte	0x1
 2566 05ee 3509     		.2byte	0x935
 2567 05f0 6B000000 		.4byte	0x6b
 2568 05f4 02       		.uleb128 0x2
 2569 05f5 91       		.byte	0x91
 2570 05f6 77       		.sleb128 -9
 2571 05f7 00       		.byte	0
 2572 05f8 14       		.uleb128 0x14
 2573 05f9 F2020000 		.4byte	.LASF73
 2574 05fd 01       		.byte	0x1
 2575 05fe 5C09     		.2byte	0x95c
 2576 0600 00000000 		.4byte	.LFB17
 2577 0604 40000000 		.4byte	.LFE17-.LFB17
 2578 0608 01       		.uleb128 0x1
 2579 0609 9C       		.byte	0x9c
 2580 060a 1E060000 		.4byte	0x61e
 2581 060e 12       		.uleb128 0x12
 2582 060f A5010000 		.4byte	.LASF74
 2583 0613 01       		.byte	0x1
 2584 0614 5C09     		.2byte	0x95c
 2585 0616 6B000000 		.4byte	0x6b
 2586 061a 02       		.uleb128 0x2
 2587 061b 91       		.byte	0x91
 2588 061c 77       		.sleb128 -9
 2589 061d 00       		.byte	0
 2590 061e 16       		.uleb128 0x16
 2591 061f 92050000 		.4byte	.LASF75
 2592 0623 01       		.byte	0x1
 2593 0624 9509     		.2byte	0x995
 2594 0626 6B000000 		.4byte	0x6b
 2595 062a 00000000 		.4byte	.LFB18
 2596 062e 2C000000 		.4byte	.LFE18-.LFB18
 2597 0632 01       		.uleb128 0x1
ARM GAS  C:\Users\oars0\AppData\Local\Temp\ccNqJowk.s 			page 91


 2598 0633 9C       		.byte	0x9c
 2599 0634 48060000 		.4byte	0x648
 2600 0638 15       		.uleb128 0x15
 2601 0639 97010000 		.4byte	.LASF76
 2602 063d 01       		.byte	0x1
 2603 063e 9709     		.2byte	0x997
 2604 0640 6B000000 		.4byte	0x6b
 2605 0644 02       		.uleb128 0x2
 2606 0645 91       		.byte	0x91
 2607 0646 77       		.sleb128 -9
 2608 0647 00       		.byte	0
 2609 0648 17       		.uleb128 0x17
 2610 0649 A1020000 		.4byte	.LASF78
 2611 064d 01       		.byte	0x1
 2612 064e AD09     		.2byte	0x9ad
 2613 0650 6B000000 		.4byte	0x6b
 2614 0654 00000000 		.4byte	.LFB19
 2615 0658 1C000000 		.4byte	.LFE19-.LFB19
 2616 065c 01       		.uleb128 0x1
 2617 065d 9C       		.byte	0x9c
 2618 065e 1C       		.uleb128 0x1c
 2619 065f D8050000 		.4byte	.LASF79
 2620 0663 01       		.byte	0x1
 2621 0664 BB09     		.2byte	0x9bb
 2622 0666 00000000 		.4byte	.LFB20
 2623 066a 18000000 		.4byte	.LFE20-.LFB20
 2624 066e 01       		.uleb128 0x1
 2625 066f 9C       		.byte	0x9c
 2626 0670 1C       		.uleb128 0x1c
 2627 0671 F9000000 		.4byte	.LASF80
 2628 0675 01       		.byte	0x1
 2629 0676 D109     		.2byte	0x9d1
 2630 0678 00000000 		.4byte	.LFB21
 2631 067c 18000000 		.4byte	.LFE21-.LFB21
 2632 0680 01       		.uleb128 0x1
 2633 0681 9C       		.byte	0x9c
 2634 0682 1D       		.uleb128 0x1d
 2635 0683 D2000000 		.4byte	.LASF81
 2636 0687 01       		.byte	0x1
 2637 0688 28       		.byte	0x28
 2638 0689 6B000000 		.4byte	0x6b
 2639 068d 05       		.uleb128 0x5
 2640 068e 03       		.byte	0x3
 2641 068f 00000000 		.4byte	USBFS_1_initVar
 2642 0693 1E       		.uleb128 0x1e
 2643 0694 DB040000 		.4byte	.LASF82
 2644 0698 03       		.byte	0x3
 2645 0699 D502     		.2byte	0x2d5
 2646 069b B0000000 		.4byte	0xb0
 2647 069f 1E       		.uleb128 0x1e
 2648 06a0 7C050000 		.4byte	.LASF83
 2649 06a4 03       		.byte	0x3
 2650 06a5 D602     		.2byte	0x2d6
 2651 06a7 B0000000 		.4byte	0xb0
 2652 06ab 1E       		.uleb128 0x1e
 2653 06ac 28020000 		.4byte	.LASF84
 2654 06b0 03       		.byte	0x3
ARM GAS  C:\Users\oars0\AppData\Local\Temp\ccNqJowk.s 			page 92


 2655 06b1 D702     		.2byte	0x2d7
 2656 06b3 B0000000 		.4byte	0xb0
 2657 06b7 1E       		.uleb128 0x1e
 2658 06b8 0C050000 		.4byte	.LASF85
 2659 06bc 03       		.byte	0x3
 2660 06bd D802     		.2byte	0x2d8
 2661 06bf B0000000 		.4byte	0xb0
 2662 06c3 1E       		.uleb128 0x1e
 2663 06c4 B1010000 		.4byte	.LASF86
 2664 06c8 03       		.byte	0x3
 2665 06c9 D902     		.2byte	0x2d9
 2666 06cb B0000000 		.4byte	0xb0
 2667 06cf 0A       		.uleb128 0xa
 2668 06d0 B0000000 		.4byte	0xb0
 2669 06d4 DF060000 		.4byte	0x6df
 2670 06d8 0B       		.uleb128 0xb
 2671 06d9 CD000000 		.4byte	0xcd
 2672 06dd 00       		.byte	0
 2673 06de 00       		.byte	0
 2674 06df 1E       		.uleb128 0x1e
 2675 06e0 5D010000 		.4byte	.LASF87
 2676 06e4 03       		.byte	0x3
 2677 06e5 E202     		.2byte	0x2e2
 2678 06e7 EB060000 		.4byte	0x6eb
 2679 06eb 05       		.uleb128 0x5
 2680 06ec CF060000 		.4byte	0x6cf
 2681 06f0 1F       		.uleb128 0x1f
 2682 06f1 E5010000 		.4byte	.LASF88
 2683 06f5 04       		.byte	0x4
 2684 06f6 78       		.byte	0x78
 2685 06f7 B0000000 		.4byte	0xb0
 2686 06fb 1F       		.uleb128 0x1f
 2687 06fc EE030000 		.4byte	.LASF89
 2688 0700 04       		.byte	0x4
 2689 0701 79       		.byte	0x79
 2690 0702 06070000 		.4byte	0x706
 2691 0706 05       		.uleb128 0x5
 2692 0707 CF060000 		.4byte	0x6cf
 2693 070b 1F       		.uleb128 0x1f
 2694 070c A5050000 		.4byte	.LASF90
 2695 0710 04       		.byte	0x4
 2696 0711 7B       		.byte	0x7b
 2697 0712 B0000000 		.4byte	0xb0
 2698 0716 0A       		.uleb128 0xa
 2699 0717 26070000 		.4byte	0x726
 2700 071b 26070000 		.4byte	0x726
 2701 071f 0B       		.uleb128 0xb
 2702 0720 CD000000 		.4byte	0xcd
 2703 0724 08       		.byte	0x8
 2704 0725 00       		.byte	0
 2705 0726 05       		.uleb128 0x5
 2706 0727 49010000 		.4byte	0x149
 2707 072b 1F       		.uleb128 0x1f
 2708 072c 1A010000 		.4byte	.LASF91
 2709 0730 04       		.byte	0x4
 2710 0731 7F       		.byte	0x7f
 2711 0732 36070000 		.4byte	0x736
ARM GAS  C:\Users\oars0\AppData\Local\Temp\ccNqJowk.s 			page 93


 2712 0736 05       		.uleb128 0x5
 2713 0737 16070000 		.4byte	0x716
 2714 073b 1F       		.uleb128 0x1f
 2715 073c F5050000 		.4byte	.LASF92
 2716 0740 04       		.byte	0x4
 2717 0741 A1       		.byte	0xa1
 2718 0742 B0000000 		.4byte	0xb0
 2719 0746 00       		.byte	0
 2720              		.section	.debug_abbrev,"",%progbits
 2721              	.Ldebug_abbrev0:
 2722 0000 01       		.uleb128 0x1
 2723 0001 11       		.uleb128 0x11
 2724 0002 01       		.byte	0x1
 2725 0003 25       		.uleb128 0x25
 2726 0004 0E       		.uleb128 0xe
 2727 0005 13       		.uleb128 0x13
 2728 0006 0B       		.uleb128 0xb
 2729 0007 03       		.uleb128 0x3
 2730 0008 0E       		.uleb128 0xe
 2731 0009 1B       		.uleb128 0x1b
 2732 000a 0E       		.uleb128 0xe
 2733 000b 55       		.uleb128 0x55
 2734 000c 17       		.uleb128 0x17
 2735 000d 11       		.uleb128 0x11
 2736 000e 01       		.uleb128 0x1
 2737 000f 10       		.uleb128 0x10
 2738 0010 17       		.uleb128 0x17
 2739 0011 00       		.byte	0
 2740 0012 00       		.byte	0
 2741 0013 02       		.uleb128 0x2
 2742 0014 24       		.uleb128 0x24
 2743 0015 00       		.byte	0
 2744 0016 0B       		.uleb128 0xb
 2745 0017 0B       		.uleb128 0xb
 2746 0018 3E       		.uleb128 0x3e
 2747 0019 0B       		.uleb128 0xb
 2748 001a 03       		.uleb128 0x3
 2749 001b 0E       		.uleb128 0xe
 2750 001c 00       		.byte	0
 2751 001d 00       		.byte	0
 2752 001e 03       		.uleb128 0x3
 2753 001f 24       		.uleb128 0x24
 2754 0020 00       		.byte	0
 2755 0021 0B       		.uleb128 0xb
 2756 0022 0B       		.uleb128 0xb
 2757 0023 3E       		.uleb128 0x3e
 2758 0024 0B       		.uleb128 0xb
 2759 0025 03       		.uleb128 0x3
 2760 0026 08       		.uleb128 0x8
 2761 0027 00       		.byte	0
 2762 0028 00       		.byte	0
 2763 0029 04       		.uleb128 0x4
 2764 002a 16       		.uleb128 0x16
 2765 002b 00       		.byte	0
 2766 002c 03       		.uleb128 0x3
 2767 002d 0E       		.uleb128 0xe
 2768 002e 3A       		.uleb128 0x3a
ARM GAS  C:\Users\oars0\AppData\Local\Temp\ccNqJowk.s 			page 94


 2769 002f 0B       		.uleb128 0xb
 2770 0030 3B       		.uleb128 0x3b
 2771 0031 05       		.uleb128 0x5
 2772 0032 49       		.uleb128 0x49
 2773 0033 13       		.uleb128 0x13
 2774 0034 00       		.byte	0
 2775 0035 00       		.byte	0
 2776 0036 05       		.uleb128 0x5
 2777 0037 35       		.uleb128 0x35
 2778 0038 00       		.byte	0
 2779 0039 49       		.uleb128 0x49
 2780 003a 13       		.uleb128 0x13
 2781 003b 00       		.byte	0
 2782 003c 00       		.byte	0
 2783 003d 06       		.uleb128 0x6
 2784 003e 13       		.uleb128 0x13
 2785 003f 01       		.byte	0x1
 2786 0040 0B       		.uleb128 0xb
 2787 0041 0B       		.uleb128 0xb
 2788 0042 3A       		.uleb128 0x3a
 2789 0043 0B       		.uleb128 0xb
 2790 0044 3B       		.uleb128 0x3b
 2791 0045 0B       		.uleb128 0xb
 2792 0046 01       		.uleb128 0x1
 2793 0047 13       		.uleb128 0x13
 2794 0048 00       		.byte	0
 2795 0049 00       		.byte	0
 2796 004a 07       		.uleb128 0x7
 2797 004b 0D       		.uleb128 0xd
 2798 004c 00       		.byte	0
 2799 004d 03       		.uleb128 0x3
 2800 004e 0E       		.uleb128 0xe
 2801 004f 3A       		.uleb128 0x3a
 2802 0050 0B       		.uleb128 0xb
 2803 0051 3B       		.uleb128 0x3b
 2804 0052 0B       		.uleb128 0xb
 2805 0053 49       		.uleb128 0x49
 2806 0054 13       		.uleb128 0x13
 2807 0055 38       		.uleb128 0x38
 2808 0056 0B       		.uleb128 0xb
 2809 0057 00       		.byte	0
 2810 0058 00       		.byte	0
 2811 0059 08       		.uleb128 0x8
 2812 005a 16       		.uleb128 0x16
 2813 005b 00       		.byte	0
 2814 005c 03       		.uleb128 0x3
 2815 005d 0E       		.uleb128 0xe
 2816 005e 3A       		.uleb128 0x3a
 2817 005f 0B       		.uleb128 0xb
 2818 0060 3B       		.uleb128 0x3b
 2819 0061 0B       		.uleb128 0xb
 2820 0062 49       		.uleb128 0x49
 2821 0063 13       		.uleb128 0x13
 2822 0064 00       		.byte	0
 2823 0065 00       		.byte	0
 2824 0066 09       		.uleb128 0x9
 2825 0067 0D       		.uleb128 0xd
ARM GAS  C:\Users\oars0\AppData\Local\Temp\ccNqJowk.s 			page 95


 2826 0068 00       		.byte	0
 2827 0069 03       		.uleb128 0x3
 2828 006a 08       		.uleb128 0x8
 2829 006b 3A       		.uleb128 0x3a
 2830 006c 0B       		.uleb128 0xb
 2831 006d 3B       		.uleb128 0x3b
 2832 006e 0B       		.uleb128 0xb
 2833 006f 49       		.uleb128 0x49
 2834 0070 13       		.uleb128 0x13
 2835 0071 38       		.uleb128 0x38
 2836 0072 0B       		.uleb128 0xb
 2837 0073 00       		.byte	0
 2838 0074 00       		.byte	0
 2839 0075 0A       		.uleb128 0xa
 2840 0076 01       		.uleb128 0x1
 2841 0077 01       		.byte	0x1
 2842 0078 49       		.uleb128 0x49
 2843 0079 13       		.uleb128 0x13
 2844 007a 01       		.uleb128 0x1
 2845 007b 13       		.uleb128 0x13
 2846 007c 00       		.byte	0
 2847 007d 00       		.byte	0
 2848 007e 0B       		.uleb128 0xb
 2849 007f 21       		.uleb128 0x21
 2850 0080 00       		.byte	0
 2851 0081 49       		.uleb128 0x49
 2852 0082 13       		.uleb128 0x13
 2853 0083 2F       		.uleb128 0x2f
 2854 0084 0B       		.uleb128 0xb
 2855 0085 00       		.byte	0
 2856 0086 00       		.byte	0
 2857 0087 0C       		.uleb128 0xc
 2858 0088 13       		.uleb128 0x13
 2859 0089 01       		.byte	0x1
 2860 008a 0B       		.uleb128 0xb
 2861 008b 0B       		.uleb128 0xb
 2862 008c 3A       		.uleb128 0x3a
 2863 008d 0B       		.uleb128 0xb
 2864 008e 3B       		.uleb128 0x3b
 2865 008f 05       		.uleb128 0x5
 2866 0090 01       		.uleb128 0x1
 2867 0091 13       		.uleb128 0x13
 2868 0092 00       		.byte	0
 2869 0093 00       		.byte	0
 2870 0094 0D       		.uleb128 0xd
 2871 0095 0D       		.uleb128 0xd
 2872 0096 00       		.byte	0
 2873 0097 03       		.uleb128 0x3
 2874 0098 0E       		.uleb128 0xe
 2875 0099 3A       		.uleb128 0x3a
 2876 009a 0B       		.uleb128 0xb
 2877 009b 3B       		.uleb128 0x3b
 2878 009c 05       		.uleb128 0x5
 2879 009d 49       		.uleb128 0x49
 2880 009e 13       		.uleb128 0x13
 2881 009f 38       		.uleb128 0x38
 2882 00a0 0B       		.uleb128 0xb
ARM GAS  C:\Users\oars0\AppData\Local\Temp\ccNqJowk.s 			page 96


 2883 00a1 00       		.byte	0
 2884 00a2 00       		.byte	0
 2885 00a3 0E       		.uleb128 0xe
 2886 00a4 2E       		.uleb128 0x2e
 2887 00a5 01       		.byte	0x1
 2888 00a6 3F       		.uleb128 0x3f
 2889 00a7 19       		.uleb128 0x19
 2890 00a8 03       		.uleb128 0x3
 2891 00a9 0E       		.uleb128 0xe
 2892 00aa 3A       		.uleb128 0x3a
 2893 00ab 0B       		.uleb128 0xb
 2894 00ac 3B       		.uleb128 0x3b
 2895 00ad 0B       		.uleb128 0xb
 2896 00ae 27       		.uleb128 0x27
 2897 00af 19       		.uleb128 0x19
 2898 00b0 11       		.uleb128 0x11
 2899 00b1 01       		.uleb128 0x1
 2900 00b2 12       		.uleb128 0x12
 2901 00b3 06       		.uleb128 0x6
 2902 00b4 40       		.uleb128 0x40
 2903 00b5 18       		.uleb128 0x18
 2904 00b6 9642     		.uleb128 0x2116
 2905 00b8 19       		.uleb128 0x19
 2906 00b9 01       		.uleb128 0x1
 2907 00ba 13       		.uleb128 0x13
 2908 00bb 00       		.byte	0
 2909 00bc 00       		.byte	0
 2910 00bd 0F       		.uleb128 0xf
 2911 00be 05       		.uleb128 0x5
 2912 00bf 00       		.byte	0
 2913 00c0 03       		.uleb128 0x3
 2914 00c1 0E       		.uleb128 0xe
 2915 00c2 3A       		.uleb128 0x3a
 2916 00c3 0B       		.uleb128 0xb
 2917 00c4 3B       		.uleb128 0x3b
 2918 00c5 0B       		.uleb128 0xb
 2919 00c6 49       		.uleb128 0x49
 2920 00c7 13       		.uleb128 0x13
 2921 00c8 02       		.uleb128 0x2
 2922 00c9 18       		.uleb128 0x18
 2923 00ca 00       		.byte	0
 2924 00cb 00       		.byte	0
 2925 00cc 10       		.uleb128 0x10
 2926 00cd 34       		.uleb128 0x34
 2927 00ce 00       		.byte	0
 2928 00cf 03       		.uleb128 0x3
 2929 00d0 0E       		.uleb128 0xe
 2930 00d1 3A       		.uleb128 0x3a
 2931 00d2 0B       		.uleb128 0xb
 2932 00d3 3B       		.uleb128 0x3b
 2933 00d4 0B       		.uleb128 0xb
 2934 00d5 49       		.uleb128 0x49
 2935 00d6 13       		.uleb128 0x13
 2936 00d7 02       		.uleb128 0x2
 2937 00d8 18       		.uleb128 0x18
 2938 00d9 00       		.byte	0
 2939 00da 00       		.byte	0
ARM GAS  C:\Users\oars0\AppData\Local\Temp\ccNqJowk.s 			page 97


 2940 00db 11       		.uleb128 0x11
 2941 00dc 2E       		.uleb128 0x2e
 2942 00dd 01       		.byte	0x1
 2943 00de 3F       		.uleb128 0x3f
 2944 00df 19       		.uleb128 0x19
 2945 00e0 03       		.uleb128 0x3
 2946 00e1 0E       		.uleb128 0xe
 2947 00e2 3A       		.uleb128 0x3a
 2948 00e3 0B       		.uleb128 0xb
 2949 00e4 3B       		.uleb128 0x3b
 2950 00e5 05       		.uleb128 0x5
 2951 00e6 27       		.uleb128 0x27
 2952 00e7 19       		.uleb128 0x19
 2953 00e8 11       		.uleb128 0x11
 2954 00e9 01       		.uleb128 0x1
 2955 00ea 12       		.uleb128 0x12
 2956 00eb 06       		.uleb128 0x6
 2957 00ec 40       		.uleb128 0x40
 2958 00ed 18       		.uleb128 0x18
 2959 00ee 9642     		.uleb128 0x2116
 2960 00f0 19       		.uleb128 0x19
 2961 00f1 01       		.uleb128 0x1
 2962 00f2 13       		.uleb128 0x13
 2963 00f3 00       		.byte	0
 2964 00f4 00       		.byte	0
 2965 00f5 12       		.uleb128 0x12
 2966 00f6 05       		.uleb128 0x5
 2967 00f7 00       		.byte	0
 2968 00f8 03       		.uleb128 0x3
 2969 00f9 0E       		.uleb128 0xe
 2970 00fa 3A       		.uleb128 0x3a
 2971 00fb 0B       		.uleb128 0xb
 2972 00fc 3B       		.uleb128 0x3b
 2973 00fd 05       		.uleb128 0x5
 2974 00fe 49       		.uleb128 0x49
 2975 00ff 13       		.uleb128 0x13
 2976 0100 02       		.uleb128 0x2
 2977 0101 18       		.uleb128 0x18
 2978 0102 00       		.byte	0
 2979 0103 00       		.byte	0
 2980 0104 13       		.uleb128 0x13
 2981 0105 34       		.uleb128 0x34
 2982 0106 00       		.byte	0
 2983 0107 03       		.uleb128 0x3
 2984 0108 08       		.uleb128 0x8
 2985 0109 3A       		.uleb128 0x3a
 2986 010a 0B       		.uleb128 0xb
 2987 010b 3B       		.uleb128 0x3b
 2988 010c 05       		.uleb128 0x5
 2989 010d 49       		.uleb128 0x49
 2990 010e 13       		.uleb128 0x13
 2991 010f 02       		.uleb128 0x2
 2992 0110 18       		.uleb128 0x18
 2993 0111 00       		.byte	0
 2994 0112 00       		.byte	0
 2995 0113 14       		.uleb128 0x14
 2996 0114 2E       		.uleb128 0x2e
ARM GAS  C:\Users\oars0\AppData\Local\Temp\ccNqJowk.s 			page 98


 2997 0115 01       		.byte	0x1
 2998 0116 3F       		.uleb128 0x3f
 2999 0117 19       		.uleb128 0x19
 3000 0118 03       		.uleb128 0x3
 3001 0119 0E       		.uleb128 0xe
 3002 011a 3A       		.uleb128 0x3a
 3003 011b 0B       		.uleb128 0xb
 3004 011c 3B       		.uleb128 0x3b
 3005 011d 05       		.uleb128 0x5
 3006 011e 27       		.uleb128 0x27
 3007 011f 19       		.uleb128 0x19
 3008 0120 11       		.uleb128 0x11
 3009 0121 01       		.uleb128 0x1
 3010 0122 12       		.uleb128 0x12
 3011 0123 06       		.uleb128 0x6
 3012 0124 40       		.uleb128 0x40
 3013 0125 18       		.uleb128 0x18
 3014 0126 9742     		.uleb128 0x2117
 3015 0128 19       		.uleb128 0x19
 3016 0129 01       		.uleb128 0x1
 3017 012a 13       		.uleb128 0x13
 3018 012b 00       		.byte	0
 3019 012c 00       		.byte	0
 3020 012d 15       		.uleb128 0x15
 3021 012e 34       		.uleb128 0x34
 3022 012f 00       		.byte	0
 3023 0130 03       		.uleb128 0x3
 3024 0131 0E       		.uleb128 0xe
 3025 0132 3A       		.uleb128 0x3a
 3026 0133 0B       		.uleb128 0xb
 3027 0134 3B       		.uleb128 0x3b
 3028 0135 05       		.uleb128 0x5
 3029 0136 49       		.uleb128 0x49
 3030 0137 13       		.uleb128 0x13
 3031 0138 02       		.uleb128 0x2
 3032 0139 18       		.uleb128 0x18
 3033 013a 00       		.byte	0
 3034 013b 00       		.byte	0
 3035 013c 16       		.uleb128 0x16
 3036 013d 2E       		.uleb128 0x2e
 3037 013e 01       		.byte	0x1
 3038 013f 3F       		.uleb128 0x3f
 3039 0140 19       		.uleb128 0x19
 3040 0141 03       		.uleb128 0x3
 3041 0142 0E       		.uleb128 0xe
 3042 0143 3A       		.uleb128 0x3a
 3043 0144 0B       		.uleb128 0xb
 3044 0145 3B       		.uleb128 0x3b
 3045 0146 05       		.uleb128 0x5
 3046 0147 27       		.uleb128 0x27
 3047 0148 19       		.uleb128 0x19
 3048 0149 49       		.uleb128 0x49
 3049 014a 13       		.uleb128 0x13
 3050 014b 11       		.uleb128 0x11
 3051 014c 01       		.uleb128 0x1
 3052 014d 12       		.uleb128 0x12
 3053 014e 06       		.uleb128 0x6
ARM GAS  C:\Users\oars0\AppData\Local\Temp\ccNqJowk.s 			page 99


 3054 014f 40       		.uleb128 0x40
 3055 0150 18       		.uleb128 0x18
 3056 0151 9742     		.uleb128 0x2117
 3057 0153 19       		.uleb128 0x19
 3058 0154 01       		.uleb128 0x1
 3059 0155 13       		.uleb128 0x13
 3060 0156 00       		.byte	0
 3061 0157 00       		.byte	0
 3062 0158 17       		.uleb128 0x17
 3063 0159 2E       		.uleb128 0x2e
 3064 015a 00       		.byte	0
 3065 015b 3F       		.uleb128 0x3f
 3066 015c 19       		.uleb128 0x19
 3067 015d 03       		.uleb128 0x3
 3068 015e 0E       		.uleb128 0xe
 3069 015f 3A       		.uleb128 0x3a
 3070 0160 0B       		.uleb128 0xb
 3071 0161 3B       		.uleb128 0x3b
 3072 0162 05       		.uleb128 0x5
 3073 0163 27       		.uleb128 0x27
 3074 0164 19       		.uleb128 0x19
 3075 0165 49       		.uleb128 0x49
 3076 0166 13       		.uleb128 0x13
 3077 0167 11       		.uleb128 0x11
 3078 0168 01       		.uleb128 0x1
 3079 0169 12       		.uleb128 0x12
 3080 016a 06       		.uleb128 0x6
 3081 016b 40       		.uleb128 0x40
 3082 016c 18       		.uleb128 0x18
 3083 016d 9742     		.uleb128 0x2117
 3084 016f 19       		.uleb128 0x19
 3085 0170 00       		.byte	0
 3086 0171 00       		.byte	0
 3087 0172 18       		.uleb128 0x18
 3088 0173 0B       		.uleb128 0xb
 3089 0174 01       		.byte	0x1
 3090 0175 11       		.uleb128 0x11
 3091 0176 01       		.uleb128 0x1
 3092 0177 12       		.uleb128 0x12
 3093 0178 06       		.uleb128 0x6
 3094 0179 00       		.byte	0
 3095 017a 00       		.byte	0
 3096 017b 19       		.uleb128 0x19
 3097 017c 0F       		.uleb128 0xf
 3098 017d 00       		.byte	0
 3099 017e 0B       		.uleb128 0xb
 3100 017f 0B       		.uleb128 0xb
 3101 0180 49       		.uleb128 0x49
 3102 0181 13       		.uleb128 0x13
 3103 0182 00       		.byte	0
 3104 0183 00       		.byte	0
 3105 0184 1A       		.uleb128 0x1a
 3106 0185 26       		.uleb128 0x26
 3107 0186 00       		.byte	0
 3108 0187 49       		.uleb128 0x49
 3109 0188 13       		.uleb128 0x13
 3110 0189 00       		.byte	0
ARM GAS  C:\Users\oars0\AppData\Local\Temp\ccNqJowk.s 			page 100


 3111 018a 00       		.byte	0
 3112 018b 1B       		.uleb128 0x1b
 3113 018c 2E       		.uleb128 0x2e
 3114 018d 01       		.byte	0x1
 3115 018e 3F       		.uleb128 0x3f
 3116 018f 19       		.uleb128 0x19
 3117 0190 03       		.uleb128 0x3
 3118 0191 0E       		.uleb128 0xe
 3119 0192 3A       		.uleb128 0x3a
 3120 0193 0B       		.uleb128 0xb
 3121 0194 3B       		.uleb128 0x3b
 3122 0195 05       		.uleb128 0x5
 3123 0196 27       		.uleb128 0x27
 3124 0197 19       		.uleb128 0x19
 3125 0198 49       		.uleb128 0x49
 3126 0199 13       		.uleb128 0x13
 3127 019a 11       		.uleb128 0x11
 3128 019b 01       		.uleb128 0x1
 3129 019c 12       		.uleb128 0x12
 3130 019d 06       		.uleb128 0x6
 3131 019e 40       		.uleb128 0x40
 3132 019f 18       		.uleb128 0x18
 3133 01a0 9642     		.uleb128 0x2116
 3134 01a2 19       		.uleb128 0x19
 3135 01a3 01       		.uleb128 0x1
 3136 01a4 13       		.uleb128 0x13
 3137 01a5 00       		.byte	0
 3138 01a6 00       		.byte	0
 3139 01a7 1C       		.uleb128 0x1c
 3140 01a8 2E       		.uleb128 0x2e
 3141 01a9 00       		.byte	0
 3142 01aa 3F       		.uleb128 0x3f
 3143 01ab 19       		.uleb128 0x19
 3144 01ac 03       		.uleb128 0x3
 3145 01ad 0E       		.uleb128 0xe
 3146 01ae 3A       		.uleb128 0x3a
 3147 01af 0B       		.uleb128 0xb
 3148 01b0 3B       		.uleb128 0x3b
 3149 01b1 05       		.uleb128 0x5
 3150 01b2 27       		.uleb128 0x27
 3151 01b3 19       		.uleb128 0x19
 3152 01b4 11       		.uleb128 0x11
 3153 01b5 01       		.uleb128 0x1
 3154 01b6 12       		.uleb128 0x12
 3155 01b7 06       		.uleb128 0x6
 3156 01b8 40       		.uleb128 0x40
 3157 01b9 18       		.uleb128 0x18
 3158 01ba 9742     		.uleb128 0x2117
 3159 01bc 19       		.uleb128 0x19
 3160 01bd 00       		.byte	0
 3161 01be 00       		.byte	0
 3162 01bf 1D       		.uleb128 0x1d
 3163 01c0 34       		.uleb128 0x34
 3164 01c1 00       		.byte	0
 3165 01c2 03       		.uleb128 0x3
 3166 01c3 0E       		.uleb128 0xe
 3167 01c4 3A       		.uleb128 0x3a
ARM GAS  C:\Users\oars0\AppData\Local\Temp\ccNqJowk.s 			page 101


 3168 01c5 0B       		.uleb128 0xb
 3169 01c6 3B       		.uleb128 0x3b
 3170 01c7 0B       		.uleb128 0xb
 3171 01c8 49       		.uleb128 0x49
 3172 01c9 13       		.uleb128 0x13
 3173 01ca 3F       		.uleb128 0x3f
 3174 01cb 19       		.uleb128 0x19
 3175 01cc 02       		.uleb128 0x2
 3176 01cd 18       		.uleb128 0x18
 3177 01ce 00       		.byte	0
 3178 01cf 00       		.byte	0
 3179 01d0 1E       		.uleb128 0x1e
 3180 01d1 34       		.uleb128 0x34
 3181 01d2 00       		.byte	0
 3182 01d3 03       		.uleb128 0x3
 3183 01d4 0E       		.uleb128 0xe
 3184 01d5 3A       		.uleb128 0x3a
 3185 01d6 0B       		.uleb128 0xb
 3186 01d7 3B       		.uleb128 0x3b
 3187 01d8 05       		.uleb128 0x5
 3188 01d9 49       		.uleb128 0x49
 3189 01da 13       		.uleb128 0x13
 3190 01db 3F       		.uleb128 0x3f
 3191 01dc 19       		.uleb128 0x19
 3192 01dd 3C       		.uleb128 0x3c
 3193 01de 19       		.uleb128 0x19
 3194 01df 00       		.byte	0
 3195 01e0 00       		.byte	0
 3196 01e1 1F       		.uleb128 0x1f
 3197 01e2 34       		.uleb128 0x34
 3198 01e3 00       		.byte	0
 3199 01e4 03       		.uleb128 0x3
 3200 01e5 0E       		.uleb128 0xe
 3201 01e6 3A       		.uleb128 0x3a
 3202 01e7 0B       		.uleb128 0xb
 3203 01e8 3B       		.uleb128 0x3b
 3204 01e9 0B       		.uleb128 0xb
 3205 01ea 49       		.uleb128 0x49
 3206 01eb 13       		.uleb128 0x13
 3207 01ec 3F       		.uleb128 0x3f
 3208 01ed 19       		.uleb128 0x19
 3209 01ee 3C       		.uleb128 0x3c
 3210 01ef 19       		.uleb128 0x19
 3211 01f0 00       		.byte	0
 3212 01f1 00       		.byte	0
 3213 01f2 00       		.byte	0
 3214              		.section	.debug_aranges,"",%progbits
 3215 0000 C4000000 		.4byte	0xc4
 3216 0004 0200     		.2byte	0x2
 3217 0006 00000000 		.4byte	.Ldebug_info0
 3218 000a 04       		.byte	0x4
 3219 000b 00       		.byte	0
 3220 000c 0000     		.2byte	0
 3221 000e 0000     		.2byte	0
 3222 0010 00000000 		.4byte	.LFB0
 3223 0014 3C000000 		.4byte	.LFE0-.LFB0
 3224 0018 00000000 		.4byte	.LFB1
ARM GAS  C:\Users\oars0\AppData\Local\Temp\ccNqJowk.s 			page 102


 3225 001c 7C010000 		.4byte	.LFE1-.LFB1
 3226 0020 00000000 		.4byte	.LFB2
 3227 0024 14010000 		.4byte	.LFE2-.LFB2
 3228 0028 00000000 		.4byte	.LFB3
 3229 002c 88000000 		.4byte	.LFE3-.LFB3
 3230 0030 00000000 		.4byte	.LFB4
 3231 0034 00010000 		.4byte	.LFE4-.LFB4
 3232 0038 00000000 		.4byte	.LFB5
 3233 003c 38000000 		.4byte	.LFE5-.LFB5
 3234 0040 00000000 		.4byte	.LFB6
 3235 0044 18000000 		.4byte	.LFE6-.LFB6
 3236 0048 00000000 		.4byte	.LFB7
 3237 004c 30000000 		.4byte	.LFE7-.LFB7
 3238 0050 00000000 		.4byte	.LFB8
 3239 0054 20000000 		.4byte	.LFE8-.LFB8
 3240 0058 00000000 		.4byte	.LFB9
 3241 005c 2C000000 		.4byte	.LFE9-.LFB9
 3242 0060 00000000 		.4byte	.LFB10
 3243 0064 60000000 		.4byte	.LFE10-.LFB10
 3244 0068 00000000 		.4byte	.LFB11
 3245 006c 08010000 		.4byte	.LFE11-.LFB11
 3246 0070 00000000 		.4byte	.LFB12
 3247 0074 8C000000 		.4byte	.LFE12-.LFB12
 3248 0078 00000000 		.4byte	.LFB13
 3249 007c 5C000000 		.4byte	.LFE13-.LFB13
 3250 0080 00000000 		.4byte	.LFB14
 3251 0084 34000000 		.4byte	.LFE14-.LFB14
 3252 0088 00000000 		.4byte	.LFB15
 3253 008c 20000000 		.4byte	.LFE15-.LFB15
 3254 0090 00000000 		.4byte	.LFB16
 3255 0094 40000000 		.4byte	.LFE16-.LFB16
 3256 0098 00000000 		.4byte	.LFB17
 3257 009c 40000000 		.4byte	.LFE17-.LFB17
 3258 00a0 00000000 		.4byte	.LFB18
 3259 00a4 2C000000 		.4byte	.LFE18-.LFB18
 3260 00a8 00000000 		.4byte	.LFB19
 3261 00ac 1C000000 		.4byte	.LFE19-.LFB19
 3262 00b0 00000000 		.4byte	.LFB20
 3263 00b4 18000000 		.4byte	.LFE20-.LFB20
 3264 00b8 00000000 		.4byte	.LFB21
 3265 00bc 18000000 		.4byte	.LFE21-.LFB21
 3266 00c0 00000000 		.4byte	0
 3267 00c4 00000000 		.4byte	0
 3268              		.section	.debug_ranges,"",%progbits
 3269              	.Ldebug_ranges0:
 3270 0000 00000000 		.4byte	.LFB0
 3271 0004 3C000000 		.4byte	.LFE0
 3272 0008 00000000 		.4byte	.LFB1
 3273 000c 7C010000 		.4byte	.LFE1
 3274 0010 00000000 		.4byte	.LFB2
 3275 0014 14010000 		.4byte	.LFE2
 3276 0018 00000000 		.4byte	.LFB3
 3277 001c 88000000 		.4byte	.LFE3
 3278 0020 00000000 		.4byte	.LFB4
 3279 0024 00010000 		.4byte	.LFE4
 3280 0028 00000000 		.4byte	.LFB5
 3281 002c 38000000 		.4byte	.LFE5
ARM GAS  C:\Users\oars0\AppData\Local\Temp\ccNqJowk.s 			page 103


 3282 0030 00000000 		.4byte	.LFB6
 3283 0034 18000000 		.4byte	.LFE6
 3284 0038 00000000 		.4byte	.LFB7
 3285 003c 30000000 		.4byte	.LFE7
 3286 0040 00000000 		.4byte	.LFB8
 3287 0044 20000000 		.4byte	.LFE8
 3288 0048 00000000 		.4byte	.LFB9
 3289 004c 2C000000 		.4byte	.LFE9
 3290 0050 00000000 		.4byte	.LFB10
 3291 0054 60000000 		.4byte	.LFE10
 3292 0058 00000000 		.4byte	.LFB11
 3293 005c 08010000 		.4byte	.LFE11
 3294 0060 00000000 		.4byte	.LFB12
 3295 0064 8C000000 		.4byte	.LFE12
 3296 0068 00000000 		.4byte	.LFB13
 3297 006c 5C000000 		.4byte	.LFE13
 3298 0070 00000000 		.4byte	.LFB14
 3299 0074 34000000 		.4byte	.LFE14
 3300 0078 00000000 		.4byte	.LFB15
 3301 007c 20000000 		.4byte	.LFE15
 3302 0080 00000000 		.4byte	.LFB16
 3303 0084 40000000 		.4byte	.LFE16
 3304 0088 00000000 		.4byte	.LFB17
 3305 008c 40000000 		.4byte	.LFE17
 3306 0090 00000000 		.4byte	.LFB18
 3307 0094 2C000000 		.4byte	.LFE18
 3308 0098 00000000 		.4byte	.LFB19
 3309 009c 1C000000 		.4byte	.LFE19
 3310 00a0 00000000 		.4byte	.LFB20
 3311 00a4 18000000 		.4byte	.LFE20
 3312 00a8 00000000 		.4byte	.LFB21
 3313 00ac 18000000 		.4byte	.LFE21
 3314 00b0 00000000 		.4byte	0
 3315 00b4 00000000 		.4byte	0
 3316              		.section	.debug_line,"",%progbits
 3317              	.Ldebug_line0:
 3318 0000 1B030000 		.section	.debug_str,"MS",%progbits,1
 3318      02006200 
 3318      00000201 
 3318      FB0E0D00 
 3318      01010101 
 3319              	.LASF10:
 3320 0000 75696E74 		.ascii	"uint16\000"
 3320      313600
 3321              	.LASF64:
 3322 0007 55534246 		.ascii	"USBFS_1_LoadInEP\000"
 3322      535F315F 
 3322      4C6F6164 
 3322      496E4550 
 3322      00
 3323              	.LASF72:
 3324 0018 55534246 		.ascii	"USBFS_1_GetEPAckState\000"
 3324      535F315F 
 3324      47657445 
 3324      5041636B 
 3324      53746174 
 3325              	.LASF56:
ARM GAS  C:\Users\oars0\AppData\Local\Temp\ccNqJowk.s 			page 104


 3326 002e 55534246 		.ascii	"USBFS_1_CheckActivity\000"
 3326      535F315F 
 3326      43686563 
 3326      6B416374 
 3326      69766974 
 3327              	.LASF93:
 3328 0044 474E5520 		.ascii	"GNU C11 5.4.1 20160609 (release) [ARM/embedded-5-br"
 3328      43313120 
 3328      352E342E 
 3328      31203230 
 3328      31363036 
 3329 0077 616E6368 		.ascii	"anch revision 237715] -mcpu=cortex-m3 -mthumb -g -O"
 3329      20726576 
 3329      6973696F 
 3329      6E203233 
 3329      37373135 
 3330 00aa 30202D66 		.ascii	"0 -ffunction-sections -ffat-lto-objects\000"
 3330      66756E63 
 3330      74696F6E 
 3330      2D736563 
 3330      74696F6E 
 3331              	.LASF81:
 3332 00d2 55534246 		.ascii	"USBFS_1_initVar\000"
 3332      535F315F 
 3332      696E6974 
 3332      56617200 
 3333              	.LASF7:
 3334 00e2 6C6F6E67 		.ascii	"long long unsigned int\000"
 3334      206C6F6E 
 3334      6720756E 
 3334      7369676E 
 3334      65642069 
 3335              	.LASF80:
 3336 00f9 55534246 		.ascii	"USBFS_1_DisableSofInt\000"
 3336      535F315F 
 3336      44697361 
 3336      626C6553 
 3336      6F66496E 
 3337              	.LASF23:
 3338 010f 61646472 		.ascii	"addr\000"
 3338      00
 3339              	.LASF33:
 3340 0114 65704366 		.ascii	"epCfg\000"
 3340      6700
 3341              	.LASF91:
 3342 011a 55534246 		.ascii	"USBFS_1_EP\000"
 3342      535F315F 
 3342      455000
 3343              	.LASF61:
 3344 0125 65704E75 		.ascii	"epNumber\000"
 3344      6D626572 
 3344      00
 3345              	.LASF47:
 3346 012e 64657669 		.ascii	"device\000"
 3346      636500
 3347              	.LASF6:
 3348 0135 6C6F6E67 		.ascii	"long long int\000"
ARM GAS  C:\Users\oars0\AppData\Local\Temp\ccNqJowk.s 			page 105


 3348      206C6F6E 
 3348      6720696E 
 3348      7400
 3349              	.LASF0:
 3350 0143 7369676E 		.ascii	"signed char\000"
 3350      65642063 
 3350      68617200 
 3351              	.LASF63:
 3352 014f 636E7472 		.ascii	"cntr\000"
 3352      00
 3353              	.LASF4:
 3354 0154 6C6F6E67 		.ascii	"long int\000"
 3354      20696E74 
 3354      00
 3355              	.LASF87:
 3356 015d 55534246 		.ascii	"USBFS_1_hidProtocol\000"
 3356      535F315F 
 3356      68696450 
 3356      726F746F 
 3356      636F6C00 
 3357              	.LASF67:
 3358 0171 55534246 		.ascii	"USBFS_1_ReadOutEP\000"
 3358      535F315F 
 3358      52656164 
 3358      4F757445 
 3358      5000
 3359              	.LASF9:
 3360 0183 75696E74 		.ascii	"uint8\000"
 3360      3800
 3361              	.LASF22:
 3362 0189 6570546F 		.ascii	"epToggle\000"
 3362      67676C65 
 3362      00
 3363              	.LASF37:
 3364 0192 72775761 		.ascii	"rwWa\000"
 3364      00
 3365              	.LASF76:
 3366 0197 72657375 		.ascii	"result\000"
 3366      6C7400
 3367              	.LASF13:
 3368 019e 646F7562 		.ascii	"double\000"
 3368      6C6500
 3369              	.LASF74:
 3370 01a5 706F7765 		.ascii	"powerStatus\000"
 3370      72537461 
 3370      74757300 
 3371              	.LASF86:
 3372 01b1 55534246 		.ascii	"USBFS_1_deviceStatus\000"
 3372      535F315F 
 3372      64657669 
 3372      63655374 
 3372      61747573 
 3373              	.LASF35:
 3374 01c6 65705372 		.ascii	"epSr\000"
 3374      00
 3375              	.LASF11:
 3376 01cb 75696E74 		.ascii	"uint32\000"
ARM GAS  C:\Users\oars0\AppData\Local\Temp\ccNqJowk.s 			page 106


 3376      333200
 3377              	.LASF65:
 3378 01d2 70446174 		.ascii	"pData\000"
 3378      6100
 3379              	.LASF43:
 3380 01d8 73696545 		.ascii	"sieEp\000"
 3380      7000
 3381              	.LASF24:
 3382 01de 65704D6F 		.ascii	"epMode\000"
 3382      646500
 3383              	.LASF88:
 3384 01e5 55534246 		.ascii	"USBFS_1_interfaceNumber\000"
 3384      535F315F 
 3384      696E7465 
 3384      72666163 
 3384      654E756D 
 3385              	.LASF36:
 3386 01fd 72657365 		.ascii	"reserved\000"
 3386      72766564 
 3386      00
 3387              	.LASF69:
 3388 0206 55534246 		.ascii	"USBFS_1_DisableOutEP\000"
 3388      535F315F 
 3388      44697361 
 3388      626C654F 
 3388      75744550 
 3389              	.LASF8:
 3390 021b 756E7369 		.ascii	"unsigned int\000"
 3390      676E6564 
 3390      20696E74 
 3390      00
 3391              	.LASF84:
 3392 0228 55534246 		.ascii	"USBFS_1_configuration\000"
 3392      535F315F 
 3392      636F6E66 
 3392      69677572 
 3392      6174696F 
 3393              	.LASF42:
 3394 023e 55534246 		.ascii	"USBFS_1_arb_ep_struct\000"
 3394      535F315F 
 3394      6172625F 
 3394      65705F73 
 3394      74727563 
 3395              	.LASF5:
 3396 0254 6C6F6E67 		.ascii	"long unsigned int\000"
 3396      20756E73 
 3396      69676E65 
 3396      6420696E 
 3396      7400
 3397              	.LASF54:
 3398 0266 55534246 		.ascii	"USBFS_1_Stop\000"
 3398      535F315F 
 3398      53746F70 
 3398      00
 3399              	.LASF44:
 3400 0273 55534246 		.ascii	"USBFS_1_sie_eps_struct\000"
 3400      535F315F 
ARM GAS  C:\Users\oars0\AppData\Local\Temp\ccNqJowk.s 			page 107


 3400      7369655F 
 3400      6570735F 
 3400      73747275 
 3401              	.LASF46:
 3402 028a 55534246 		.ascii	"USBFS_1_arb_eps_struct\000"
 3402      535F315F 
 3402      6172625F 
 3402      6570735F 
 3402      73747275 
 3403              	.LASF78:
 3404 02a1 55534246 		.ascii	"USBFS_1_GetDeviceAddress\000"
 3404      535F315F 
 3404      47657444 
 3404      65766963 
 3404      65416464 
 3405              	.LASF49:
 3406 02ba 55534246 		.ascii	"USBFS_1_Start\000"
 3406      535F315F 
 3406      53746172 
 3406      7400
 3407              	.LASF3:
 3408 02c8 73686F72 		.ascii	"short unsigned int\000"
 3408      7420756E 
 3408      7369676E 
 3408      65642069 
 3408      6E7400
 3409              	.LASF28:
 3410 02db 545F5553 		.ascii	"T_USBFS_1_EP_CTL_BLOCK\000"
 3410      4246535F 
 3410      315F4550 
 3410      5F43544C 
 3410      5F424C4F 
 3411              	.LASF73:
 3412 02f2 55534246 		.ascii	"USBFS_1_SetPowerStatus\000"
 3412      535F315F 
 3412      53657450 
 3412      6F776572 
 3412      53746174 
 3413              	.LASF68:
 3414 0309 55534246 		.ascii	"USBFS_1_EnableOutEP\000"
 3414      535F315F 
 3414      456E6162 
 3414      6C654F75 
 3414      74455000 
 3415              	.LASF45:
 3416 031d 61726245 		.ascii	"arbEp\000"
 3416      7000
 3417              	.LASF27:
 3418 0323 696E7465 		.ascii	"interface\000"
 3418      72666163 
 3418      6500
 3419              	.LASF55:
 3420 032d 63723152 		.ascii	"cr1Reg\000"
 3420      656700
 3421              	.LASF16:
 3422 0334 72656733 		.ascii	"reg32\000"
 3422      3200
ARM GAS  C:\Users\oars0\AppData\Local\Temp\ccNqJowk.s 			page 108


 3423              	.LASF21:
 3424 033a 68774570 		.ascii	"hwEpState\000"
 3424      53746174 
 3424      6500
 3425              	.LASF77:
 3426 0344 55534246 		.ascii	"USBFS_1_GetConfiguration\000"
 3426      535F315F 
 3426      47657443 
 3426      6F6E6669 
 3426      67757261 
 3427              	.LASF18:
 3428 035d 73697A65 		.ascii	"sizetype\000"
 3428      74797065 
 3428      00
 3429              	.LASF60:
 3430 0366 55534246 		.ascii	"USBFS_1_GetEPState\000"
 3430      535F315F 
 3430      47657445 
 3430      50537461 
 3430      746500
 3431              	.LASF17:
 3432 0379 6C6F6E67 		.ascii	"long double\000"
 3432      20646F75 
 3432      626C6500 
 3433              	.LASF19:
 3434 0385 61747472 		.ascii	"attrib\000"
 3434      696200
 3435              	.LASF57:
 3436 038c 55534246 		.ascii	"USBFS_1_IsConfigurationChanged\000"
 3436      535F315F 
 3436      4973436F 
 3436      6E666967 
 3436      75726174 
 3437              	.LASF40:
 3438 03ab 72775261 		.ascii	"rwRaMsb\000"
 3438      4D736200 
 3439              	.LASF29:
 3440 03b3 6570436E 		.ascii	"epCnt0\000"
 3440      743000
 3441              	.LASF30:
 3442 03ba 6570436E 		.ascii	"epCnt1\000"
 3442      743100
 3443              	.LASF32:
 3444 03c1 55534246 		.ascii	"USBFS_1_sie_ep_struct\000"
 3444      535F315F 
 3444      7369655F 
 3444      65705F73 
 3444      74727563 
 3445              	.LASF31:
 3446 03d7 65704372 		.ascii	"epCr0\000"
 3446      3000
 3447              	.LASF12:
 3448 03dd 666C6F61 		.ascii	"float\000"
 3448      7400
 3449              	.LASF20:
 3450 03e3 61706945 		.ascii	"apiEpState\000"
 3450      70537461 
ARM GAS  C:\Users\oars0\AppData\Local\Temp\ccNqJowk.s 			page 109


 3450      746500
 3451              	.LASF89:
 3452 03ee 55534246 		.ascii	"USBFS_1_interfaceSetting\000"
 3452      535F315F 
 3452      696E7465 
 3452      72666163 
 3452      65536574 
 3453              	.LASF95:
 3454 0407 433A5C55 		.ascii	"C:\\Users\\oars0\\Documents\\GitHub\\Interfacing_La"
 3454      73657273 
 3454      5C6F6172 
 3454      73305C44 
 3454      6F63756D 
 3455 0435 625C4C61 		.ascii	"b\\Lab_2-usb-i2c-mouse-reyessanchezo\\PSoC_Creator\\"
 3455      625F322D 
 3455      7573622D 
 3455      6932632D 
 3455      6D6F7573 
 3456 0466 4932435F 		.ascii	"I2C_mouse\\I2C_Mouse\\I2C_Mouse.cydsn\000"
 3456      6D6F7573 
 3456      655C4932 
 3456      435F4D6F 
 3456      7573655C 
 3457              	.LASF62:
 3458 048a 55534246 		.ascii	"USBFS_1_GetEPCount\000"
 3458      535F315F 
 3458      47657445 
 3458      50436F75 
 3458      6E7400
 3459              	.LASF15:
 3460 049d 72656738 		.ascii	"reg8\000"
 3460      00
 3461              	.LASF1:
 3462 04a2 756E7369 		.ascii	"unsigned char\000"
 3462      676E6564 
 3462      20636861 
 3462      7200
 3463              	.LASF94:
 3464 04b0 47656E65 		.ascii	"Generated_Source\\PSoC5\\USBFS_1.c\000"
 3464      72617465 
 3464      645F536F 
 3464      75726365 
 3464      5C50536F 
 3465              	.LASF2:
 3466 04d1 73686F72 		.ascii	"short int\000"
 3466      7420696E 
 3466      7400
 3467              	.LASF82:
 3468 04db 55534246 		.ascii	"USBFS_1_device\000"
 3468      535F315F 
 3468      64657669 
 3468      636500
 3469              	.LASF70:
 3470 04ea 55534246 		.ascii	"USBFS_1_Force\000"
 3470      535F315F 
 3470      466F7263 
 3470      6500
ARM GAS  C:\Users\oars0\AppData\Local\Temp\ccNqJowk.s 			page 110


 3471              	.LASF39:
 3472 04f8 72775261 		.ascii	"rwRa\000"
 3472      00
 3473              	.LASF38:
 3474 04fd 72775761 		.ascii	"rwWaMsb\000"
 3474      4D736200 
 3475              	.LASF71:
 3476 0505 62537461 		.ascii	"bState\000"
 3476      746500
 3477              	.LASF85:
 3478 050c 55534246 		.ascii	"USBFS_1_configurationChanged\000"
 3478      535F315F 
 3478      636F6E66 
 3478      69677572 
 3478      6174696F 
 3479              	.LASF51:
 3480 0529 55534246 		.ascii	"USBFS_1_InitComponent\000"
 3480      535F315F 
 3480      496E6974 
 3480      436F6D70 
 3480      6F6E656E 
 3481              	.LASF50:
 3482 053f 55534246 		.ascii	"USBFS_1_Init\000"
 3482      535F315F 
 3482      496E6974 
 3482      00
 3483              	.LASF14:
 3484 054c 63686172 		.ascii	"char\000"
 3484      00
 3485              	.LASF48:
 3486 0551 6D6F6465 		.ascii	"mode\000"
 3486      00
 3487              	.LASF26:
 3488 0556 62756666 		.ascii	"bufferSize\000"
 3488      65725369 
 3488      7A6500
 3489              	.LASF25:
 3490 0561 62756666 		.ascii	"buffOffset\000"
 3490      4F666673 
 3490      657400
 3491              	.LASF59:
 3492 056c 696E7465 		.ascii	"interfaceNumber\000"
 3492      72666163 
 3492      654E756D 
 3492      62657200 
 3493              	.LASF83:
 3494 057c 55534246 		.ascii	"USBFS_1_transferState\000"
 3494      535F315F 
 3494      7472616E 
 3494      73666572 
 3494      53746174 
 3495              	.LASF75:
 3496 0592 55534246 		.ascii	"USBFS_1_RWUEnabled\000"
 3496      535F315F 
 3496      52575545 
 3496      6E61626C 
 3496      656400
ARM GAS  C:\Users\oars0\AppData\Local\Temp\ccNqJowk.s 			page 111


 3497              	.LASF90:
 3498 05a5 55534246 		.ascii	"USBFS_1_deviceAddress\000"
 3498      535F315F 
 3498      64657669 
 3498      63654164 
 3498      64726573 
 3499              	.LASF66:
 3500 05bb 6C656E67 		.ascii	"length\000"
 3500      746800
 3501              	.LASF52:
 3502 05c2 656E6162 		.ascii	"enableInterrupts\000"
 3502      6C65496E 
 3502      74657272 
 3502      75707473 
 3502      00
 3503              	.LASF41:
 3504 05d3 72774472 		.ascii	"rwDr\000"
 3504      00
 3505              	.LASF79:
 3506 05d8 55534246 		.ascii	"USBFS_1_EnableSofInt\000"
 3506      535F315F 
 3506      456E6162 
 3506      6C65536F 
 3506      66496E74 
 3507              	.LASF34:
 3508 05ed 6570496E 		.ascii	"epIntEn\000"
 3508      74456E00 
 3509              	.LASF92:
 3510 05f5 55534246 		.ascii	"USBFS_1_lastPacketSize\000"
 3510      535F315F 
 3510      6C617374 
 3510      5061636B 
 3510      65745369 
 3511              	.LASF58:
 3512 060c 55534246 		.ascii	"USBFS_1_GetInterfaceSetting\000"
 3512      535F315F 
 3512      47657449 
 3512      6E746572 
 3512      66616365 
 3513              	.LASF53:
 3514 0628 55534246 		.ascii	"USBFS_1_ReInitComponent\000"
 3514      535F315F 
 3514      5265496E 
 3514      6974436F 
 3514      6D706F6E 
 3515              		.ident	"GCC: (GNU Tools for ARM Embedded Processors) 5.4.1 20160609 (release) [ARM/embedded-5-bran
