ARM GAS  C:\Users\oars0\AppData\Local\Temp\cc56id5r.s 			page 1


   1              		.syntax unified
   2              		.cpu cortex-m3
   3              		.fpu softvfp
   4              		.eabi_attribute 20, 1
   5              		.eabi_attribute 21, 1
   6              		.eabi_attribute 23, 3
   7              		.eabi_attribute 24, 1
   8              		.eabi_attribute 25, 1
   9              		.eabi_attribute 26, 1
  10              		.eabi_attribute 30, 6
  11              		.eabi_attribute 34, 1
  12              		.eabi_attribute 18, 4
  13              		.thumb
  14              		.syntax unified
  15              		.file	"main.c"
  16              		.text
  17              	.Ltext0:
  18              		.cfi_sections	.debug_frame
  19              		.bss
  20              		.align	2
  21              	Mouse_Data:
  22 0000 000000   		.space	3
  23              		.data
  24              		.type	deadzone, %object
  25              		.size	deadzone, 1
  26              	deadzone:
  27 0000 05       		.byte	5
  28              		.section	.rodata
  29              		.align	2
  30              	.LC0:
  31 0000 4F70656E 		.ascii	"Open\000"
  31      00
  32              		.global	__aeabi_i2f
  33              		.global	__aeabi_f2iz
  34 0005 000000   		.align	2
  35              	.LC1:
  36 0008 4D6F7573 		.ascii	"Mouse1: %i\011 VRX: %i\011 VRY: %i\012\000"
  36      65313A20 
  36      25690920 
  36      5652583A 
  36      20256909 
  37              		.section	.text.main,"ax",%progbits
  38              		.align	2
  39              		.global	main
  40              		.thumb
  41              		.thumb_func
  42              		.type	main, %function
  43              	main:
  44              	.LFB64:
  45              		.file 1 "main.c"
   1:main.c        **** /******************************************************************************
   2:main.c        **** * File Name: main.c
   3:main.c        **** *
   4:main.c        **** * Version: 1.10
   5:main.c        **** *
   6:main.c        **** * Description: This is the source code for the HID Mouse code example.
   7:main.c        **** *
ARM GAS  C:\Users\oars0\AppData\Local\Temp\cc56id5r.s 			page 2


   8:main.c        **** * Related Document: CE195394_HID_Mouse.pdf
   9:main.c        **** *
  10:main.c        **** * Hardware Dependency: See CE195394_HID_Mouse.pdf
  11:main.c        **** *
  12:main.c        **** *******************************************************************************
  13:main.c        **** * Copyright (2018), Cypress Semiconductor Corporation. All rights reserved.
  14:main.c        **** *******************************************************************************
  15:main.c        **** * This software, including source code, documentation and related materials
  16:main.c        **** * (“Software”), is owned by Cypress Semiconductor Corporation or one of its
  17:main.c        **** * subsidiaries (“Cypress”) and is protected by and subject to worldwide patent
  18:main.c        **** * protection (United States and foreign), United States copyright laws and
  19:main.c        **** * international treaty provisions. Therefore, you may use this Software only
  20:main.c        **** * as provided in the license agreement accompanying the software package from
  21:main.c        **** * which you obtained this Software (“EULA”).
  22:main.c        **** *
  23:main.c        **** * If no EULA applies, Cypress hereby grants you a personal, nonexclusive,
  24:main.c        **** * non-transferable license to copy, modify, and compile the Software source
  25:main.c        **** * code solely for use in connection with Cypress’s integrated circuit products.
  26:main.c        **** * Any reproduction, modification, translation, compilation, or representation
  27:main.c        **** * of this Software except as specified above is prohibited without the express
  28:main.c        **** * written permission of Cypress.
  29:main.c        **** *
  30:main.c        **** * Disclaimer: THIS SOFTWARE IS PROVIDED AS-IS, WITH NO WARRANTY OF ANY KIND, 
  31:main.c        **** * EXPRESS OR IMPLIED, INCLUDING, BUT NOT LIMITED TO, NONINFRINGEMENT, IMPLIED 
  32:main.c        **** * WARRANTIES OF MERCHANTABILITY AND FITNESS FOR A PARTICULAR PURPOSE. Cypress 
  33:main.c        **** * reserves the right to make changes to the Software without notice. Cypress 
  34:main.c        **** * does not assume any liability arising out of the application or use of the 
  35:main.c        **** * Software or any product or circuit described in the Software. Cypress does 
  36:main.c        **** * not authorize its products for use in any products where a malfunction or 
  37:main.c        **** * failure of the Cypress product may reasonably be expected to result in 
  38:main.c        **** * significant property damage, injury or death (“High Risk Product”). By 
  39:main.c        **** * including Cypress’s product in a High Risk Product, the manufacturer of such 
  40:main.c        **** * system or application assumes all risk of such use and in doing so agrees to 
  41:main.c        **** * indemnify Cypress against all liability.
  42:main.c        **** *******************************************************************************/
  43:main.c        **** 
  44:main.c        **** 
  45:main.c        **** #include <project.h>
  46:main.c        **** #include <stdio.h>
  47:main.c        **** 
  48:main.c        **** static int8 Mouse_Data[3] = {0, 0, 0}; /* [0] = Buttons, [1] = X-Axis, [2] = Y-Axis */
  49:main.c        **** static int8 deadzone = 5;
  50:main.c        **** 
  51:main.c        **** /*******************************************************************************
  52:main.c        **** * Function Name: main
  53:main.c        **** ********************************************************************************
  54:main.c        **** *
  55:main.c        **** * Summary:
  56:main.c        **** *  main() performs following functions:
  57:main.c        **** *  1: Enumerates the PSoC as a HID Mouse.
  58:main.c        **** *  2: Updates Mouse movement data.
  59:main.c        **** *  3: Updates Mouse left click with status of P2[2]
  60:main.c        **** *  4: Waits for ACK from host and then loads new data into EP1.
  61:main.c        **** *
  62:main.c        **** * Parameters:
  63:main.c        **** *  None.
  64:main.c        **** *
ARM GAS  C:\Users\oars0\AppData\Local\Temp\cc56id5r.s 			page 3


  65:main.c        **** * Return:
  66:main.c        **** *  None.
  67:main.c        **** *
  68:main.c        **** *******************************************************************************/
  69:main.c        **** 
  70:main.c        **** int main()
  71:main.c        **** {
  46              		.loc 1 71 0
  47              		.cfi_startproc
  48              		@ args = 0, pretend = 0, frame = 112
  49              		@ frame_needed = 1, uses_anonymous_args = 0
  50 0000 90B5     		push	{r4, r7, lr}
  51              		.cfi_def_cfa_offset 12
  52              		.cfi_offset 4, -12
  53              		.cfi_offset 7, -8
  54              		.cfi_offset 14, -4
  55 0002 9FB0     		sub	sp, sp, #124
  56              		.cfi_def_cfa_offset 136
  57 0004 02AF     		add	r7, sp, #8
  58              		.cfi_def_cfa 7, 128
  72:main.c        **** 	CYGlobalIntEnable;                        		/* Enable Global Interrupts */
  59              		.loc 1 72 0
  60              		.syntax unified
  61              	@ 72 "main.c" 1
  62 0006 62B6     		CPSIE   i
  63              	@ 0 "" 2
  73:main.c        **** 	USBFS_1_Start(0, USBFS_1_DWR_VDDD_OPERATION);   /* Start USBFS Operation/device 0 and with 5V oper
  64              		.loc 1 73 0
  65              		.thumb
  66              		.syntax unified
  67 0008 0221     		movs	r1, #2
  68 000a 0020     		movs	r0, #0
  69 000c FFF7FEFF 		bl	USBFS_1_Start
  74:main.c        **** 	while(!USBFS_1_bGetConfiguration());      		/* Wait for Device to enumerate */
  70              		.loc 1 74 0
  71 0010 00BF     		nop
  72              	.L2:
  73              		.loc 1 74 0 is_stmt 0 discriminator 1
  74 0012 FFF7FEFF 		bl	USBFS_1_GetConfiguration
  75 0016 0346     		mov	r3, r0
  76 0018 002B     		cmp	r3, #0
  77 001a FAD0     		beq	.L2
  75:main.c        ****     USBFS_1_LoadInEP(1, (uint8 *)Mouse_Data, 3); 	/* Loads an inital value into EP1 and sends it ou
  78              		.loc 1 75 0 is_stmt 1
  79 001c 0322     		movs	r2, #3
  80 001e 3D49     		ldr	r1, .L12
  81 0020 0120     		movs	r0, #1
  82 0022 FFF7FEFF 		bl	USBFS_1_LoadInEP
  76:main.c        **** 	ADC_Start();
  83              		.loc 1 76 0
  84 0026 FFF7FEFF 		bl	ADC_Start
  77:main.c        ****     UART_Start();
  85              		.loc 1 77 0
  86 002a FFF7FEFF 		bl	UART_Start
  78:main.c        ****     UART_PutString("Open");
  87              		.loc 1 78 0
  88 002e 3A48     		ldr	r0, .L12+4
ARM GAS  C:\Users\oars0\AppData\Local\Temp\cc56id5r.s 			page 4


  89 0030 FFF7FEFF 		bl	UART_PutString
  90              	.L11:
  79:main.c        ****     char buffer[100];
  80:main.c        ****     float temp;
  81:main.c        ****     
  82:main.c        ****     
  83:main.c        **** 	for(;;)
  84:main.c        ****     {
  85:main.c        ****         while(!USBFS_1_bGetEPAckState(1));  			/* Wait for ACK before loading data */
  91              		.loc 1 85 0
  92 0034 00BF     		nop
  93              	.L3:
  94              		.loc 1 85 0 is_stmt 0 discriminator 1
  95 0036 0120     		movs	r0, #1
  96 0038 FFF7FEFF 		bl	USBFS_1_GetEPAckState
  97 003c 0346     		mov	r3, r0
  98 003e 002B     		cmp	r3, #0
  99 0040 F9D0     		beq	.L3
  86:main.c        **** 		USBFS_1_LoadInEP(1, (uint8 *)Mouse_Data, 3); 	/* Load latest mouse data into EP1 and send to PC *
 100              		.loc 1 86 0 is_stmt 1
 101 0042 0322     		movs	r2, #3
 102 0044 3349     		ldr	r1, .L12
 103 0046 0120     		movs	r0, #1
 104 0048 FFF7FEFF 		bl	USBFS_1_LoadInEP
 105              	.LBB2:
  87:main.c        **** 	    
  88:main.c        ****         
  89:main.c        ****         
  90:main.c        ****         for(int channel = 0; channel <= 1; channel++){
 106              		.loc 1 90 0
 107 004c 0023     		movs	r3, #0
 108 004e FB66     		str	r3, [r7, #108]
 109 0050 37E0     		b	.L4
 110              	.L8:
  91:main.c        ****             ADC_StartConvert();
 111              		.loc 1 91 0
 112 0052 FFF7FEFF 		bl	ADC_StartConvert
  92:main.c        ****             ADC_IsEndConversion(ADC_WAIT_FOR_RESULT); 
 113              		.loc 1 92 0
 114 0056 0020     		movs	r0, #0
 115 0058 FFF7FEFF 		bl	ADC_IsEndConversion
  93:main.c        ****             temp = (ADC_GetResult16(channel)); //scale the ADC data to 0-1, then scale it to betwee
 116              		.loc 1 93 0
 117 005c FB6E     		ldr	r3, [r7, #108]
 118 005e 9BB2     		uxth	r3, r3
 119 0060 1846     		mov	r0, r3
 120 0062 FFF7FEFF 		bl	ADC_GetResult16
 121 0066 0346     		mov	r3, r0
 122 0068 1846     		mov	r0, r3
 123 006a FFF7FEFF 		bl	__aeabi_i2f
 124 006e 0346     		mov	r3, r0
 125 0070 BB66     		str	r3, [r7, #104]	@ float
  94:main.c        ****             
  95:main.c        ****             if((72-deadzone <= Mouse_Data[channel+1]) || (Mouse_Data[channel+1] <= 72+deadzone)){
 126              		.loc 1 95 0
 127 0072 2A4B     		ldr	r3, .L12+8
 128 0074 93F90030 		ldrsb	r3, [r3]
ARM GAS  C:\Users\oars0\AppData\Local\Temp\cc56id5r.s 			page 5


 129 0078 C3F14803 		rsb	r3, r3, #72
 130 007c FA6E     		ldr	r2, [r7, #108]
 131 007e 0132     		adds	r2, r2, #1
 132 0080 2449     		ldr	r1, .L12
 133 0082 8A56     		ldrsb	r2, [r1, r2]
 134 0084 9342     		cmp	r3, r2
 135 0086 0ADD     		ble	.L5
 136              		.loc 1 95 0 is_stmt 0 discriminator 1
 137 0088 FB6E     		ldr	r3, [r7, #108]
 138 008a 0133     		adds	r3, r3, #1
 139 008c 214A     		ldr	r2, .L12
 140 008e D356     		ldrsb	r3, [r2, r3]
 141 0090 1A46     		mov	r2, r3
 142 0092 224B     		ldr	r3, .L12+8
 143 0094 93F90030 		ldrsb	r3, [r3]
 144 0098 4833     		adds	r3, r3, #72
 145 009a 9A42     		cmp	r2, r3
 146 009c 05DC     		bgt	.L6
 147              	.L5:
  96:main.c        ****                 Mouse_Data[channel+1] = 0.0;
 148              		.loc 1 96 0 is_stmt 1
 149 009e FB6E     		ldr	r3, [r7, #108]
 150 00a0 0133     		adds	r3, r3, #1
 151 00a2 1C4A     		ldr	r2, .L12
 152 00a4 0021     		movs	r1, #0
 153 00a6 D154     		strb	r1, [r2, r3]
 154 00a8 08E0     		b	.L7
 155              	.L6:
  97:main.c        ****             }else{Mouse_Data[channel+1] = temp;}
 156              		.loc 1 97 0
 157 00aa FB6E     		ldr	r3, [r7, #108]
 158 00ac 5C1C     		adds	r4, r3, #1
 159 00ae B86E     		ldr	r0, [r7, #104]	@ float
 160 00b0 FFF7FEFF 		bl	__aeabi_f2iz
 161 00b4 0346     		mov	r3, r0
 162 00b6 5AB2     		sxtb	r2, r3
 163 00b8 164B     		ldr	r3, .L12
 164 00ba 1A55     		strb	r2, [r3, r4]
 165              	.L7:
  90:main.c        ****             ADC_StartConvert();
 166              		.loc 1 90 0 discriminator 2
 167 00bc FB6E     		ldr	r3, [r7, #108]
 168 00be 0133     		adds	r3, r3, #1
 169 00c0 FB66     		str	r3, [r7, #108]
 170              	.L4:
  90:main.c        ****             ADC_StartConvert();
 171              		.loc 1 90 0 is_stmt 0 discriminator 1
 172 00c2 FB6E     		ldr	r3, [r7, #108]
 173 00c4 012B     		cmp	r3, #1
 174 00c6 C4DD     		ble	.L8
 175              	.LBE2:
  98:main.c        ****         
  99:main.c        ****         }
 100:main.c        ****         
 101:main.c        ****         
 102:main.c        ****         if(SW_Read() == 0)    /* Check the button state and load the report with the current status
 176              		.loc 1 102 0 is_stmt 1
ARM GAS  C:\Users\oars0\AppData\Local\Temp\cc56id5r.s 			page 6


 177 00c8 FFF7FEFF 		bl	SW_Read
 178 00cc 0346     		mov	r3, r0
 179 00ce 002B     		cmp	r3, #0
 180 00d0 03D1     		bne	.L9
 103:main.c        ****         {
 104:main.c        ****             Mouse_Data[0] = 0x01;   /* Report button 1 is pressed */
 181              		.loc 1 104 0
 182 00d2 104B     		ldr	r3, .L12
 183 00d4 0122     		movs	r2, #1
 184 00d6 1A70     		strb	r2, [r3]
 185 00d8 02E0     		b	.L10
 186              	.L9:
 105:main.c        ****         }
 106:main.c        ****         else
 107:main.c        ****         {
 108:main.c        ****             Mouse_Data[0] = 0x00;   /* Report button 1 is not pressed */
 187              		.loc 1 108 0
 188 00da 0E4B     		ldr	r3, .L12
 189 00dc 0022     		movs	r2, #0
 190 00de 1A70     		strb	r2, [r3]
 191              	.L10:
 109:main.c        ****         }
 110:main.c        ****         
 111:main.c        ****         sprintf(buffer, "Mouse1: %i\t VRX: %i\t VRY: %i\n",
 112:main.c        ****                     Mouse_Data[0], Mouse_Data[1], 
 192              		.loc 1 112 0
 193 00e0 0C4B     		ldr	r3, .L12
 194 00e2 93F90030 		ldrsb	r3, [r3]
 111:main.c        ****                     Mouse_Data[0], Mouse_Data[1], 
 195              		.loc 1 111 0
 196 00e6 1A46     		mov	r2, r3
 197              		.loc 1 112 0
 198 00e8 0A4B     		ldr	r3, .L12
 199 00ea 93F90130 		ldrsb	r3, [r3, #1]
 111:main.c        ****                     Mouse_Data[0], Mouse_Data[1], 
 200              		.loc 1 111 0
 201 00ee 1946     		mov	r1, r3
 113:main.c        ****                     Mouse_Data[2]);
 202              		.loc 1 113 0
 203 00f0 084B     		ldr	r3, .L12
 204 00f2 93F90230 		ldrsb	r3, [r3, #2]
 111:main.c        ****                     Mouse_Data[0], Mouse_Data[1], 
 205              		.loc 1 111 0
 206 00f6 381D     		adds	r0, r7, #4
 207 00f8 0093     		str	r3, [sp]
 208 00fa 0B46     		mov	r3, r1
 209 00fc 0849     		ldr	r1, .L12+12
 210 00fe FFF7FEFF 		bl	sprintf
 114:main.c        ****                 
 115:main.c        ****         UART_PutString(buffer);
 211              		.loc 1 115 0
 212 0102 3B1D     		adds	r3, r7, #4
 213 0104 1846     		mov	r0, r3
 214 0106 FFF7FEFF 		bl	UART_PutString
 116:main.c        ****         
 117:main.c        **** 		CyDelay(1);
 215              		.loc 1 117 0
ARM GAS  C:\Users\oars0\AppData\Local\Temp\cc56id5r.s 			page 7


 216 010a 0120     		movs	r0, #1
 217 010c FFF7FEFF 		bl	CyDelay
 118:main.c        **** 	}
 218              		.loc 1 118 0
 219 0110 90E7     		b	.L11
 220              	.L13:
 221 0112 00BF     		.align	2
 222              	.L12:
 223 0114 00000000 		.word	Mouse_Data
 224 0118 00000000 		.word	.LC0
 225 011c 00000000 		.word	deadzone
 226 0120 08000000 		.word	.LC1
 227              		.cfi_endproc
 228              	.LFE64:
 229              		.size	main, .-main
 230              		.text
 231              	.Letext0:
 232              		.file 2 "c:\\program files (x86)\\cypress\\psoc creator\\4.4\\psoc creator\\import\\gnu\\arm\\5.4.
 233              		.file 3 "c:\\program files (x86)\\cypress\\psoc creator\\4.4\\psoc creator\\import\\gnu\\arm\\5.4.
 234              		.file 4 "Generated_Source\\PSoC5/cytypes.h"
 235              		.file 5 "Generated_Source\\PSoC5/core_cm3.h"