ARM GAS  C:\Users\oars0\AppData\Local\Temp\ccIzZhDY.s 			page 1


   1              		.syntax unified
   2              		.cpu cortex-m3
   3              		.fpu softvfp
   4              		.eabi_attribute 20, 1
   5              		.eabi_attribute 21, 1
   6              		.eabi_attribute 23, 3
   7              		.eabi_attribute 24, 1
   8              		.eabi_attribute 25, 1
   9              		.eabi_attribute 26, 1
  10              		.eabi_attribute 30, 6
  11              		.eabi_attribute 34, 1
  12              		.eabi_attribute 18, 4
  13              		.thumb
  14              		.syntax unified
  15              		.file	"main.c"
  16              		.text
  17              	.Ltext0:
  18              		.cfi_sections	.debug_frame
  19              		.bss
  20              		.align	2
  21              	Mouse_Data:
  22 0000 000000   		.space	3
  23              		.section	.rodata
  24              		.align	2
  25              	.LC0:
  26 0000 4F70656E 		.ascii	"Open\012\000"
  26      0A00
  27              		.global	__aeabi_i2d
  28              		.global	__aeabi_ddiv
  29              		.global	__aeabi_dmul
  30              		.global	__aeabi_dsub
  31              		.global	__aeabi_d2iz
  32              		.global	__aeabi_d2uiz
  33 0006 0000     		.align	2
  34              	.LC1:
  35 0008 6368616E 		.ascii	"channel:%i \011 temp:%u \011\000"
  35      6E656C3A 
  35      25692009 
  35      2074656D 
  35      703A2575 
  36 001f 00       		.align	2
  37              	.LC2:
  38 0020 4D6F7573 		.ascii	"Mouse1: %i\011 VRX: %i\011 VRY: %i\012\000"
  38      65313A20 
  38      25690920 
  38      5652583A 
  38      20256909 
  39              		.section	.text.main,"ax",%progbits
  40              		.align	2
  41              		.global	main
  42              		.thumb
  43              		.thumb_func
  44              		.type	main, %function
  45              	main:
  46              	.LFB64:
  47              		.file 1 "main.c"
   1:main.c        **** /******************************************************************************
ARM GAS  C:\Users\oars0\AppData\Local\Temp\ccIzZhDY.s 			page 2


   2:main.c        **** * File Name: main.c
   3:main.c        **** *
   4:main.c        **** * Version: 1.10
   5:main.c        **** *
   6:main.c        **** * Description: This is the source code for the HID Mouse code example.
   7:main.c        **** *
   8:main.c        **** * Related Document: CE195394_HID_Mouse.pdf
   9:main.c        **** *
  10:main.c        **** * Hardware Dependency: See CE195394_HID_Mouse.pdf
  11:main.c        **** *
  12:main.c        **** *******************************************************************************
  13:main.c        **** * Copyright (2018), Cypress Semiconductor Corporation. All rights reserved.
  14:main.c        **** *******************************************************************************
  15:main.c        **** * This software, including source code, documentation and related materials
  16:main.c        **** * (“Software”), is owned by Cypress Semiconductor Corporation or one of its
  17:main.c        **** * subsidiaries (“Cypress”) and is protected by and subject to worldwide patent
  18:main.c        **** * protection (United States and foreign), United States copyright laws and
  19:main.c        **** * international treaty provisions. Therefore, you may use this Software only
  20:main.c        **** * as provided in the license agreement accompanying the software package from
  21:main.c        **** * which you obtained this Software (“EULA”).
  22:main.c        **** *
  23:main.c        **** * If no EULA applies, Cypress hereby grants you a personal, nonexclusive,
  24:main.c        **** * non-transferable license to copy, modify, and compile the Software source
  25:main.c        **** * code solely for use in connection with Cypress’s integrated circuit products.
  26:main.c        **** * Any reproduction, modification, translation, compilation, or representation
  27:main.c        **** * of this Software except as specified above is prohibited without the express
  28:main.c        **** * written permission of Cypress.
  29:main.c        **** *
  30:main.c        **** * Disclaimer: THIS SOFTWARE IS PROVIDED AS-IS, WITH NO WARRANTY OF ANY KIND, 
  31:main.c        **** * EXPRESS OR IMPLIED, INCLUDING, BUT NOT LIMITED TO, NONINFRINGEMENT, IMPLIED 
  32:main.c        **** * WARRANTIES OF MERCHANTABILITY AND FITNESS FOR A PARTICULAR PURPOSE. Cypress 
  33:main.c        **** * reserves the right to make changes to the Software without notice. Cypress 
  34:main.c        **** * does not assume any liability arising out of the application or use of the 
  35:main.c        **** * Software or any product or circuit described in the Software. Cypress does 
  36:main.c        **** * not authorize its products for use in any products where a malfunction or 
  37:main.c        **** * failure of the Cypress product may reasonably be expected to result in 
  38:main.c        **** * significant property damage, injury or death (“High Risk Product”). By 
  39:main.c        **** * including Cypress’s product in a High Risk Product, the manufacturer of such 
  40:main.c        **** * system or application assumes all risk of such use and in doing so agrees to 
  41:main.c        **** * indemnify Cypress against all liability.
  42:main.c        **** *******************************************************************************/
  43:main.c        **** 
  44:main.c        **** 
  45:main.c        **** #include <project.h>
  46:main.c        **** #include <stdio.h>
  47:main.c        **** 
  48:main.c        **** static int8 Mouse_Data[3] = {0, 0, 0}; /* [0] = Buttons, [1] = X-Axis, [2] = Y-Axis */
  49:main.c        **** 
  50:main.c        **** /*******************************************************************************
  51:main.c        **** * Function Name: main
  52:main.c        **** ********************************************************************************
  53:main.c        **** *
  54:main.c        **** * Summary:
  55:main.c        **** *  main() performs following functions:
  56:main.c        **** *  1: Enumerates the PSoC as a HID Mouse.
  57:main.c        **** *  2: Updates Mouse movement data.
  58:main.c        **** *  3: Updates Mouse left click with status of P2[2]
ARM GAS  C:\Users\oars0\AppData\Local\Temp\ccIzZhDY.s 			page 3


  59:main.c        **** *  4: Waits for ACK from host and then loads new data into EP1.
  60:main.c        **** *
  61:main.c        **** * Parameters:
  62:main.c        **** *  None.
  63:main.c        **** *
  64:main.c        **** * Return:
  65:main.c        **** *  None.
  66:main.c        **** *
  67:main.c        **** *******************************************************************************/
  68:main.c        **** 
  69:main.c        **** int main()
  70:main.c        **** {
  48              		.loc 1 70 0
  49              		.cfi_startproc
  50              		@ args = 0, pretend = 0, frame = 120
  51              		@ frame_needed = 1, uses_anonymous_args = 0
  52 0000 90B5     		push	{r4, r7, lr}
  53              		.cfi_def_cfa_offset 12
  54              		.cfi_offset 4, -12
  55              		.cfi_offset 7, -8
  56              		.cfi_offset 14, -4
  57 0002 A1B0     		sub	sp, sp, #132
  58              		.cfi_def_cfa_offset 144
  59 0004 02AF     		add	r7, sp, #8
  60              		.cfi_def_cfa 7, 136
  71:main.c        **** 	CYGlobalIntEnable;                        		/* Enable Global Interrupts */
  61              		.loc 1 71 0
  62              		.syntax unified
  63              	@ 71 "main.c" 1
  64 0006 62B6     		CPSIE   i
  65              	@ 0 "" 2
  72:main.c        **** 	USBFS_1_Start(0, USBFS_1_DWR_VDDD_OPERATION);   /* Start USBFS Operation/device 0 and with 5V oper
  66              		.loc 1 72 0
  67              		.thumb
  68              		.syntax unified
  69 0008 0221     		movs	r1, #2
  70 000a 0020     		movs	r0, #0
  71 000c FFF7FEFF 		bl	USBFS_1_Start
  73:main.c        **** 	while(!USBFS_1_bGetConfiguration());      		/* Wait for Device to enumerate */
  72              		.loc 1 73 0
  73 0010 00BF     		nop
  74              	.L2:
  75              		.loc 1 73 0 is_stmt 0 discriminator 1
  76 0012 FFF7FEFF 		bl	USBFS_1_GetConfiguration
  77 0016 0346     		mov	r3, r0
  78 0018 002B     		cmp	r3, #0
  79 001a FAD0     		beq	.L2
  74:main.c        ****     USBFS_1_LoadInEP(1, (uint8 *)Mouse_Data, 3); 	/* Loads an inital value into EP1 and sends it ou
  80              		.loc 1 74 0 is_stmt 1
  81 001c 0322     		movs	r2, #3
  82 001e 4349     		ldr	r1, .L9
  83 0020 0120     		movs	r0, #1
  84 0022 FFF7FEFF 		bl	USBFS_1_LoadInEP
  75:main.c        **** 	
  76:main.c        ****     ADC_Start();
  85              		.loc 1 76 0
  86 0026 FFF7FEFF 		bl	ADC_Start
ARM GAS  C:\Users\oars0\AppData\Local\Temp\ccIzZhDY.s 			page 4


  77:main.c        ****     UART_Start();
  87              		.loc 1 77 0
  88 002a FFF7FEFF 		bl	UART_Start
  78:main.c        ****     UART_PutString("Open\n");
  89              		.loc 1 78 0
  90 002e 4048     		ldr	r0, .L9+4
  91 0030 FFF7FEFF 		bl	UART_PutString
  92              	.L8:
  79:main.c        ****     char buffer[100];
  80:main.c        ****     double temp;
  81:main.c        ****     
  82:main.c        ****     
  83:main.c        **** 	for(;;)
  84:main.c        ****     {
  85:main.c        ****         while(!USBFS_1_bGetEPAckState(1));  			/* Wait for ACK before loading data */
  93              		.loc 1 85 0
  94 0034 00BF     		nop
  95              	.L3:
  96              		.loc 1 85 0 is_stmt 0 discriminator 1
  97 0036 0120     		movs	r0, #1
  98 0038 FFF7FEFF 		bl	USBFS_1_GetEPAckState
  99 003c 0346     		mov	r3, r0
 100 003e 002B     		cmp	r3, #0
 101 0040 F9D0     		beq	.L3
  86:main.c        **** 		USBFS_1_LoadInEP(1, (uint8 *)Mouse_Data, 3); 	/* Load latest mouse data into EP1 and send to PC *
 102              		.loc 1 86 0 is_stmt 1
 103 0042 0322     		movs	r2, #3
 104 0044 3949     		ldr	r1, .L9
 105 0046 0120     		movs	r0, #1
 106 0048 FFF7FEFF 		bl	USBFS_1_LoadInEP
 107              	.LBB2:
  87:main.c        **** 	    
  88:main.c        ****         
  89:main.c        ****         
  90:main.c        ****         for(int channel = 0; channel < 2; channel++){
 108              		.loc 1 90 0
 109 004c 0023     		movs	r3, #0
 110 004e 7B67     		str	r3, [r7, #116]
 111 0050 43E0     		b	.L4
 112              	.L5:
  91:main.c        ****             ADC_StartConvert();
 113              		.loc 1 91 0 discriminator 3
 114 0052 FFF7FEFF 		bl	ADC_StartConvert
  92:main.c        ****             ADC_IsEndConversion(ADC_WAIT_FOR_RESULT); 
 115              		.loc 1 92 0 discriminator 3
 116 0056 0020     		movs	r0, #0
 117 0058 FFF7FEFF 		bl	ADC_IsEndConversion
  93:main.c        ****             temp = (ADC_GetResult16(channel)/128.0)*10.0-10; 
 118              		.loc 1 93 0 discriminator 3
 119 005c 7B6F     		ldr	r3, [r7, #116]
 120 005e 9BB2     		uxth	r3, r3
 121 0060 1846     		mov	r0, r3
 122 0062 FFF7FEFF 		bl	ADC_GetResult16
 123 0066 0346     		mov	r3, r0
 124 0068 1846     		mov	r0, r3
 125 006a FFF7FEFF 		bl	__aeabi_i2d
 126 006e 4FF00002 		mov	r2, #0
ARM GAS  C:\Users\oars0\AppData\Local\Temp\ccIzZhDY.s 			page 5


 127 0072 304B     		ldr	r3, .L9+8
 128 0074 FFF7FEFF 		bl	__aeabi_ddiv
 129 0078 0346     		mov	r3, r0
 130 007a 0C46     		mov	r4, r1
 131 007c 1846     		mov	r0, r3
 132 007e 2146     		mov	r1, r4
 133 0080 4FF00002 		mov	r2, #0
 134 0084 2C4B     		ldr	r3, .L9+12
 135 0086 FFF7FEFF 		bl	__aeabi_dmul
 136 008a 0346     		mov	r3, r0
 137 008c 0C46     		mov	r4, r1
 138 008e 1846     		mov	r0, r3
 139 0090 2146     		mov	r1, r4
 140 0092 4FF00002 		mov	r2, #0
 141 0096 284B     		ldr	r3, .L9+12
 142 0098 FFF7FEFF 		bl	__aeabi_dsub
 143 009c 0346     		mov	r3, r0
 144 009e 0C46     		mov	r4, r1
 145 00a0 C7E91A34 		strd	r3, [r7, #104]
  94:main.c        ****             
  95:main.c        ****             
  96:main.c        ****             /*if((-deadzone >= Mouse_Data[channel+1]) || (Mouse_Data[channel+1] <= +deadzone)){
  97:main.c        ****                 Mouse_Data[channel+1] = 0.0;
  98:main.c        ****             }else{Mouse_Data[channel+1] = temp;}*/
  99:main.c        ****             Mouse_Data[channel+1] = temp;
 146              		.loc 1 99 0 discriminator 3
 147 00a4 7B6F     		ldr	r3, [r7, #116]
 148 00a6 5C1C     		adds	r4, r3, #1
 149 00a8 D7E91A01 		ldrd	r0, [r7, #104]
 150 00ac FFF7FEFF 		bl	__aeabi_d2iz
 151 00b0 0346     		mov	r3, r0
 152 00b2 5AB2     		sxtb	r2, r3
 153 00b4 1D4B     		ldr	r3, .L9
 154 00b6 1A55     		strb	r2, [r3, r4]
 100:main.c        ****             sprintf(buffer, "channel:%i \t temp:%u \t", channel, (unsigned)temp);
 155              		.loc 1 100 0 discriminator 3
 156 00b8 D7E91A01 		ldrd	r0, [r7, #104]
 157 00bc FFF7FEFF 		bl	__aeabi_d2uiz
 158 00c0 0346     		mov	r3, r0
 159 00c2 381D     		adds	r0, r7, #4
 160 00c4 7A6F     		ldr	r2, [r7, #116]
 161 00c6 1D49     		ldr	r1, .L9+16
 162 00c8 FFF7FEFF 		bl	sprintf
 101:main.c        ****             UART_PutString(buffer);
 163              		.loc 1 101 0 discriminator 3
 164 00cc 3B1D     		adds	r3, r7, #4
 165 00ce 1846     		mov	r0, r3
 166 00d0 FFF7FEFF 		bl	UART_PutString
  90:main.c        ****             ADC_StartConvert();
 167              		.loc 1 90 0 discriminator 3
 168 00d4 7B6F     		ldr	r3, [r7, #116]
 169 00d6 0133     		adds	r3, r3, #1
 170 00d8 7B67     		str	r3, [r7, #116]
 171              	.L4:
  90:main.c        ****             ADC_StartConvert();
 172              		.loc 1 90 0 is_stmt 0 discriminator 1
 173 00da 7B6F     		ldr	r3, [r7, #116]
ARM GAS  C:\Users\oars0\AppData\Local\Temp\ccIzZhDY.s 			page 6


 174 00dc 012B     		cmp	r3, #1
 175 00de B8DD     		ble	.L5
 176              	.LBE2:
 102:main.c        ****         
 103:main.c        ****         }
 104:main.c        ****         
 105:main.c        ****         
 106:main.c        ****         if(SW_Read() == 0)    /* Check the button state and load the report with the current status
 177              		.loc 1 106 0 is_stmt 1
 178 00e0 FFF7FEFF 		bl	SW_Read
 179 00e4 0346     		mov	r3, r0
 180 00e6 002B     		cmp	r3, #0
 181 00e8 03D1     		bne	.L6
 107:main.c        ****         {
 108:main.c        ****             Mouse_Data[0] = 0x01;   /* Report button 1 is pressed */
 182              		.loc 1 108 0
 183 00ea 104B     		ldr	r3, .L9
 184 00ec 0122     		movs	r2, #1
 185 00ee 1A70     		strb	r2, [r3]
 186 00f0 02E0     		b	.L7
 187              	.L6:
 109:main.c        ****         }
 110:main.c        ****         else
 111:main.c        ****         {
 112:main.c        ****             Mouse_Data[0] = 0x00;   /* Report button 1 is not pressed */
 188              		.loc 1 112 0
 189 00f2 0E4B     		ldr	r3, .L9
 190 00f4 0022     		movs	r2, #0
 191 00f6 1A70     		strb	r2, [r3]
 192              	.L7:
 113:main.c        ****         }
 114:main.c        ****         
 115:main.c        ****         sprintf(buffer, "Mouse1: %i\t VRX: %i\t VRY: %i\n",
 116:main.c        ****                     Mouse_Data[0], Mouse_Data[1], 
 193              		.loc 1 116 0
 194 00f8 0C4B     		ldr	r3, .L9
 195 00fa 93F90030 		ldrsb	r3, [r3]
 115:main.c        ****                     Mouse_Data[0], Mouse_Data[1], 
 196              		.loc 1 115 0
 197 00fe 1A46     		mov	r2, r3
 198              		.loc 1 116 0
 199 0100 0A4B     		ldr	r3, .L9
 200 0102 93F90130 		ldrsb	r3, [r3, #1]
 115:main.c        ****                     Mouse_Data[0], Mouse_Data[1], 
 201              		.loc 1 115 0
 202 0106 1946     		mov	r1, r3
 117:main.c        ****                     Mouse_Data[2]);
 203              		.loc 1 117 0
 204 0108 084B     		ldr	r3, .L9
 205 010a 93F90230 		ldrsb	r3, [r3, #2]
 115:main.c        ****                     Mouse_Data[0], Mouse_Data[1], 
 206              		.loc 1 115 0
 207 010e 381D     		adds	r0, r7, #4
 208 0110 0093     		str	r3, [sp]
 209 0112 0B46     		mov	r3, r1
 210 0114 0A49     		ldr	r1, .L9+20
 211 0116 FFF7FEFF 		bl	sprintf
ARM GAS  C:\Users\oars0\AppData\Local\Temp\ccIzZhDY.s 			page 7


 118:main.c        ****                 
 119:main.c        ****         UART_PutString(buffer);
 212              		.loc 1 119 0
 213 011a 3B1D     		adds	r3, r7, #4
 214 011c 1846     		mov	r0, r3
 215 011e FFF7FEFF 		bl	UART_PutString
 120:main.c        ****         
 121:main.c        **** 		CyDelay(1);
 216              		.loc 1 121 0
 217 0122 0120     		movs	r0, #1
 218 0124 FFF7FEFF 		bl	CyDelay
 122:main.c        **** 	}
 219              		.loc 1 122 0
 220 0128 84E7     		b	.L8
 221              	.L10:
 222 012a 00BF     		.align	2
 223              	.L9:
 224 012c 00000000 		.word	Mouse_Data
 225 0130 00000000 		.word	.LC0
 226 0134 00006040 		.word	1080033280
 227 0138 00002440 		.word	1076101120
 228 013c 08000000 		.word	.LC1
 229 0140 20000000 		.word	.LC2
 230              		.cfi_endproc
 231              	.LFE64:
 232              		.size	main, .-main
 233              		.text
 234              	.Letext0:
 235              		.file 2 "c:\\program files (x86)\\cypress\\psoc creator\\4.4\\psoc creator\\import\\gnu\\arm\\5.4.
 236              		.file 3 "c:\\program files (x86)\\cypress\\psoc creator\\4.4\\psoc creator\\import\\gnu\\arm\\5.4.
 237              		.file 4 "Generated_Source\\PSoC5/cytypes.h"
 238              		.file 5 "Generated_Source\\PSoC5/core_cm3.h"