ARM GAS  C:\Users\oars0\AppData\Local\Temp\ccoK4Ugp.s 			page 1


   1              		.syntax unified
   2              		.cpu cortex-m3
   3              		.fpu softvfp
   4              		.eabi_attribute 20, 1
   5              		.eabi_attribute 21, 1
   6              		.eabi_attribute 23, 3
   7              		.eabi_attribute 24, 1
   8              		.eabi_attribute 25, 1
   9              		.eabi_attribute 26, 1
  10              		.eabi_attribute 30, 6
  11              		.eabi_attribute 34, 1
  12              		.eabi_attribute 18, 4
  13              		.thumb
  14              		.syntax unified
  15              		.file	"main.c"
  16              		.text
  17              	.Ltext0:
  18              		.cfi_sections	.debug_frame
  19              		.data
  20              		.align	2
  21              		.type	default_compare, %object
  22              		.size	default_compare, 4
  23              	default_compare:
  24 0000 44480000 		.word	18500
  25              		.global	temp
  26              		.bss
  27              		.align	3
  28              		.type	temp, %object
  29              		.size	temp, 8
  30              	temp:
  31 0000 00000000 		.space	8
  31      00000000 
  32              		.global	__aeabi_i2d
  33              		.global	__aeabi_ddiv
  34              		.global	__aeabi_dmul
  35              		.global	__aeabi_dsub
  36              		.global	__aeabi_ui2d
  37              		.global	__aeabi_dadd
  38              		.global	__aeabi_d2uiz
  39              		.section	.text.MicroServoControl,"ax",%progbits
  40              		.align	2
  41              		.global	MicroServoControl
  42              		.thumb
  43              		.thumb_func
  44              		.type	MicroServoControl, %function
  45              	MicroServoControl:
  46              	.LFB64:
  47              		.file 1 "main.c"
   1:main.c        **** /******************************************************************************
   2:main.c        **** * File Name: main.c
   3:main.c        **** *
   4:main.c        **** * Version: 1.10
   5:main.c        **** *
   6:main.c        **** * Description: This is the source code for the HID Mouse code example.
   7:main.c        **** *
   8:main.c        **** * Related Document: CE195394_HID_Mouse.pdf
   9:main.c        **** *
ARM GAS  C:\Users\oars0\AppData\Local\Temp\ccoK4Ugp.s 			page 2


  10:main.c        **** * Hardware Dependency: See CE195394_HID_Mouse.pdf
  11:main.c        **** *
  12:main.c        **** *******************************************************************************
  13:main.c        **** * Copyright (2018), Cypress Semiconductor Corporation. All rights reserved.
  14:main.c        **** *******************************************************************************
  15:main.c        **** * This software, including source code, documentation and related materials
  16:main.c        **** * (“Software”), is owned by Cypress Semiconductor Corporation or one of its
  17:main.c        **** * subsidiaries (“Cypress”) and is protected by and subject to worldwide patent
  18:main.c        **** * protection (United States and foreign), United States copyright laws and
  19:main.c        **** * international treaty provisions. Therefore, you may use this Software only
  20:main.c        **** * as provided in the license agreement accompanying the software package from
  21:main.c        **** * which you obtained this Software (“EULA”).
  22:main.c        **** *
  23:main.c        **** * If no EULA applies, Cypress hereby grants you a personal, nonexclusive,
  24:main.c        **** * non-transferable license to copy, modify, and compile the Software source
  25:main.c        **** * code solely for use in connection with Cypress’s integrated circuit products.
  26:main.c        **** * Any reproduction, modification, translation, compilation, or representation
  27:main.c        **** * of this Software except as specified above is prohibited without the express
  28:main.c        **** * written permission of Cypress.
  29:main.c        **** *
  30:main.c        **** * Disclaimer: THIS SOFTWARE IS PROVIDED AS-IS, WITH NO WARRANTY OF ANY KIND, 
  31:main.c        **** * EXPRESS OR IMPLIED, INCLUDING, BUT NOT LIMITED TO, NONINFRINGEMENT, IMPLIED 
  32:main.c        **** * WARRANTIES OF MERCHANTABILITY AND FITNESS FOR A PARTICULAR PURPOSE. Cypress 
  33:main.c        **** * reserves the right to make changes to the Software without notice. Cypress 
  34:main.c        **** * does not assume any liability arising out of the application or use of the 
  35:main.c        **** * Software or any product or circuit described in the Software. Cypress does 
  36:main.c        **** * not authorize its products for use in any products where a malfunction or 
  37:main.c        **** * failure of the Cypress product may reasonably be expected to result in 
  38:main.c        **** * significant property damage, injury or death (“High Risk Product”). By 
  39:main.c        **** * including Cypress’s product in a High Risk Product, the manufacturer of such 
  40:main.c        **** * system or application assumes all risk of such use and in doing so agrees to 
  41:main.c        **** * indemnify Cypress against all liability.
  42:main.c        **** *******************************************************************************/
  43:main.c        **** 
  44:main.c        **** 
  45:main.c        **** #include <project.h>
  46:main.c        **** #include <stdio.h>
  47:main.c        **** 
  48:main.c        **** static uint default_compare = 18500; //should be 0 degrees on the servo
  49:main.c        **** double temp = 0;
  50:main.c        **** 
  51:main.c        **** 
  52:main.c        **** CY_ISR(MicroServoControl)
  53:main.c        **** {
  48              		.loc 1 53 0
  49              		.cfi_startproc
  50              		@ args = 0, pretend = 0, frame = 0
  51              		@ frame_needed = 1, uses_anonymous_args = 0
  52 0000 98B5     		push	{r3, r4, r7, lr}
  53              		.cfi_def_cfa_offset 16
  54              		.cfi_offset 3, -16
  55              		.cfi_offset 4, -12
  56              		.cfi_offset 7, -8
  57              		.cfi_offset 14, -4
  58 0002 00AF     		add	r7, sp, #0
  59              		.cfi_def_cfa_register 7
  54:main.c        ****     ADC_StartConvert();
ARM GAS  C:\Users\oars0\AppData\Local\Temp\ccoK4Ugp.s 			page 3


  60              		.loc 1 54 0
  61 0004 FFF7FEFF 		bl	ADC_StartConvert
  55:main.c        ****     ADC_IsEndConversion(ADC_WAIT_FOR_RESULT); 
  62              		.loc 1 55 0
  63 0008 0020     		movs	r0, #0
  64 000a FFF7FEFF 		bl	ADC_IsEndConversion
  56:main.c        ****     temp = (ADC_GetResult16(0)/127.0)*950-1150; //reading channel zero, horizontal
  65              		.loc 1 56 0
  66 000e 0020     		movs	r0, #0
  67 0010 FFF7FEFF 		bl	ADC_GetResult16
  68 0014 0346     		mov	r3, r0
  69 0016 1846     		mov	r0, r3
  70 0018 FFF7FEFF 		bl	__aeabi_i2d
  71 001c 1AA3     		adr	r3, .L2
  72 001e D3E90023 		ldrd	r2, [r3]
  73 0022 FFF7FEFF 		bl	__aeabi_ddiv
  74 0026 0346     		mov	r3, r0
  75 0028 0C46     		mov	r4, r1
  76 002a 1846     		mov	r0, r3
  77 002c 2146     		mov	r1, r4
  78 002e 4FF00002 		mov	r2, #0
  79 0032 194B     		ldr	r3, .L2+16
  80 0034 FFF7FEFF 		bl	__aeabi_dmul
  81 0038 0346     		mov	r3, r0
  82 003a 0C46     		mov	r4, r1
  83 003c 1846     		mov	r0, r3
  84 003e 2146     		mov	r1, r4
  85 0040 13A3     		adr	r3, .L2+8
  86 0042 D3E90023 		ldrd	r2, [r3]
  87 0046 FFF7FEFF 		bl	__aeabi_dsub
  88 004a 0346     		mov	r3, r0
  89 004c 0C46     		mov	r4, r1
  90 004e 134A     		ldr	r2, .L2+20
  91 0050 C2E90034 		strd	r3, [r2]
  57:main.c        ****     //temp values rang from -1150 to 757, which correspond pretty closely to 0 to 180 degrees on th
  58:main.c        **** 
  59:main.c        ****     PWM_WriteCompare(default_compare+temp);
  92              		.loc 1 59 0
  93 0054 124B     		ldr	r3, .L2+24
  94 0056 1B68     		ldr	r3, [r3]
  95 0058 1846     		mov	r0, r3
  96 005a FFF7FEFF 		bl	__aeabi_ui2d
  97 005e 0F4B     		ldr	r3, .L2+20
  98 0060 18CB     		ldmia	r3, {r3-r4}
  99 0062 1A46     		mov	r2, r3
 100 0064 2346     		mov	r3, r4
 101 0066 FFF7FEFF 		bl	__aeabi_dadd
 102 006a 0346     		mov	r3, r0
 103 006c 0C46     		mov	r4, r1
 104 006e 1846     		mov	r0, r3
 105 0070 2146     		mov	r1, r4
 106 0072 FFF7FEFF 		bl	__aeabi_d2uiz
 107 0076 0346     		mov	r3, r0
 108 0078 9BB2     		uxth	r3, r3
 109 007a 1846     		mov	r0, r3
 110 007c FFF7FEFF 		bl	PWM_WriteCompare
  60:main.c        **** }
ARM GAS  C:\Users\oars0\AppData\Local\Temp\ccoK4Ugp.s 			page 4


 111              		.loc 1 60 0
 112 0080 00BF     		nop
 113 0082 98BD     		pop	{r3, r4, r7, pc}
 114              	.L3:
 115 0084 AFF30080 		.align	3
 116              	.L2:
 117 0088 00000000 		.word	0
 118 008c 00C05F40 		.word	1080016896
 119 0090 00000000 		.word	0
 120 0094 00F89140 		.word	1083308032
 121 0098 00B08D40 		.word	1083027456
 122 009c 00000000 		.word	temp
 123 00a0 00000000 		.word	default_compare
 124              		.cfi_endproc
 125              	.LFE64:
 126              		.size	MicroServoControl, .-MicroServoControl
 127              		.section	.rodata
 128              		.align	2
 129              	.LC0:
 130 0000 55415254 		.ascii	"UART Open\012\000"
 130      204F7065 
 130      6E0A00
 131              		.global	__aeabi_d2iz
 132 000b 00       		.align	2
 133              	.LC1:
 134 000c 74656D70 		.ascii	"temp:%i\012\000"
 134      3A25690A 
 134      00
 135              		.section	.text.main,"ax",%progbits
 136              		.align	2
 137              		.global	main
 138              		.thumb
 139              		.thumb_func
 140              		.type	main, %function
 141              	main:
 142              	.LFB65:
  61:main.c        **** 
  62:main.c        **** 
  63:main.c        **** CY_ISR(MicroServoControl);
  64:main.c        **** 
  65:main.c        **** 
  66:main.c        **** 
  67:main.c        **** 
  68:main.c        **** int main()
  69:main.c        **** {
 143              		.loc 1 69 0
 144              		.cfi_startproc
 145              		@ args = 0, pretend = 0, frame = 104
 146              		@ frame_needed = 1, uses_anonymous_args = 0
 147 0000 90B5     		push	{r4, r7, lr}
 148              		.cfi_def_cfa_offset 12
 149              		.cfi_offset 4, -12
 150              		.cfi_offset 7, -8
 151              		.cfi_offset 14, -4
 152 0002 9BB0     		sub	sp, sp, #108
 153              		.cfi_def_cfa_offset 120
 154 0004 00AF     		add	r7, sp, #0
ARM GAS  C:\Users\oars0\AppData\Local\Temp\ccoK4Ugp.s 			page 5


 155              		.cfi_def_cfa_register 7
  70:main.c        **** 	CYGlobalIntEnable;                        		/* Enable Global Interrupts */
 156              		.loc 1 70 0
 157              		.syntax unified
 158              	@ 70 "main.c" 1
 159 0006 62B6     		CPSIE   i
 160              	@ 0 "" 2
  71:main.c        **** 	
  72:main.c        ****     PWM_Start();
 161              		.loc 1 72 0
 162              		.thumb
 163              		.syntax unified
 164 0008 FFF7FEFF 		bl	PWM_Start
  73:main.c        ****     ADC_Start();
 165              		.loc 1 73 0
 166 000c FFF7FEFF 		bl	ADC_Start
  74:main.c        ****     UART_Start();
 167              		.loc 1 74 0
 168 0010 FFF7FEFF 		bl	UART_Start
  75:main.c        ****     UART_PutString("UART Open\n");
 169              		.loc 1 75 0
 170 0014 0C48     		ldr	r0, .L6
 171 0016 FFF7FEFF 		bl	UART_PutString
  76:main.c        ****     char buffer[100];
  77:main.c        ****     ISR_MicroServoControl_StartEx(MicroServoControl);
 172              		.loc 1 77 0
 173 001a 0C48     		ldr	r0, .L6+4
 174 001c FFF7FEFF 		bl	ISR_MicroServoControl_StartEx
 175              	.L5:
  78:main.c        ****     
  79:main.c        ****     
  80:main.c        ****     
  81:main.c        **** 	for(;;)
  82:main.c        ****     {
  83:main.c        ****         
  84:main.c        ****         
  85:main.c        ****         sprintf(buffer, "temp:%i\n", (int)temp);
 176              		.loc 1 85 0 discriminator 1
 177 0020 0B4B     		ldr	r3, .L6+8
 178 0022 18CB     		ldmia	r3, {r3-r4}
 179 0024 1846     		mov	r0, r3
 180 0026 2146     		mov	r1, r4
 181 0028 FFF7FEFF 		bl	__aeabi_d2iz
 182 002c 0246     		mov	r2, r0
 183 002e 3B1D     		adds	r3, r7, #4
 184 0030 0849     		ldr	r1, .L6+12
 185 0032 1846     		mov	r0, r3
 186 0034 FFF7FEFF 		bl	sprintf
  86:main.c        ****         UART_PutString(buffer);
 187              		.loc 1 86 0 discriminator 1
 188 0038 3B1D     		adds	r3, r7, #4
 189 003a 1846     		mov	r0, r3
 190 003c FFF7FEFF 		bl	UART_PutString
  87:main.c        ****         
  88:main.c        **** 		CyDelay(1);
 191              		.loc 1 88 0 discriminator 1
 192 0040 0120     		movs	r0, #1
ARM GAS  C:\Users\oars0\AppData\Local\Temp\ccoK4Ugp.s 			page 6


 193 0042 FFF7FEFF 		bl	CyDelay
  89:main.c        **** 	}
 194              		.loc 1 89 0 discriminator 1
 195 0046 EBE7     		b	.L5
 196              	.L7:
 197              		.align	2
 198              	.L6:
 199 0048 00000000 		.word	.LC0
 200 004c 00000000 		.word	MicroServoControl
 201 0050 00000000 		.word	temp
 202 0054 0C000000 		.word	.LC1
 203              		.cfi_endproc
 204              	.LFE65:
 205              		.size	main, .-main
 206              		.text
 207              	.Letext0:
 208              		.file 2 "c:\\program files (x86)\\cypress\\psoc creator\\4.4\\psoc creator\\import\\gnu\\arm\\5.4.
 209              		.file 3 "c:\\program files (x86)\\cypress\\psoc creator\\4.4\\psoc creator\\import\\gnu\\arm\\5.4.
 210              		.file 4 "c:\\program files (x86)\\cypress\\psoc creator\\4.4\\psoc creator\\import\\gnu\\arm\\5.4.
 211              		.file 5 "Generated_Source\\PSoC5/core_cm3.h"