ARM GAS  C:\Users\oars0\AppData\Local\Temp\cc0aZXkW.s 			page 1


   1              		.syntax unified
   2              		.cpu cortex-m4
   3              		.eabi_attribute 27, 1
   4              		.fpu fpv4-sp-d16
   5              		.eabi_attribute 20, 1
   6              		.eabi_attribute 21, 1
   7              		.eabi_attribute 23, 3
   8              		.eabi_attribute 24, 1
   9              		.eabi_attribute 25, 1
  10              		.eabi_attribute 26, 1
  11              		.eabi_attribute 30, 1
  12              		.eabi_attribute 34, 1
  13              		.eabi_attribute 18, 4
  14              		.thumb
  15              		.syntax unified
  16              		.file	"main_cm4.c"
  17              		.text
  18              	.Ltext0:
  19              		.cfi_sections	.debug_frame
  20              		.section	.text.main,"ax",%progbits
  21              		.align	2
  22              		.global	main
  23              		.thumb
  24              		.thumb_func
  25              		.type	main, %function
  26              	main:
  27              	.LFB576:
  28              		.file 1 "main_cm4.c"
   1:main_cm4.c    **** /* ========================================
   2:main_cm4.c    ****  *
   3:main_cm4.c    ****  * Copyright YOUR COMPANY, THE YEAR
   4:main_cm4.c    ****  * All Rights Reserved
   5:main_cm4.c    ****  * UNPUBLISHED, LICENSED SOFTWARE.
   6:main_cm4.c    ****  *
   7:main_cm4.c    ****  * CONFIDENTIAL AND PROPRIETARY INFORMATION
   8:main_cm4.c    ****  * WHICH IS THE PROPERTY OF your company.
   9:main_cm4.c    ****  *
  10:main_cm4.c    ****  * ========================================
  11:main_cm4.c    **** */
  12:main_cm4.c    **** #include "project.h"
  13:main_cm4.c    **** #include <stdio.h>
  14:main_cm4.c    **** 
  15:main_cm4.c    **** #define I_DIRECTION 1
  16:main_cm4.c    **** #define V_DIRECTION 1
  17:main_cm4.c    **** #define I_INTERVAL 1
  18:main_cm4.c    **** #define V_INTERVAL 1
  19:main_cm4.c    **** 
  20:main_cm4.c    **** int main(void)
  21:main_cm4.c    **** {
  29              		.loc 1 21 0
  30              		.cfi_startproc
  31              		@ args = 0, pretend = 0, frame = 104
  32              		@ frame_needed = 0, uses_anonymous_args = 0
  33 0000 2DE9F041 		push	{r4, r5, r6, r7, r8, lr}
  34              		.cfi_def_cfa_offset 24
  35              		.cfi_offset 4, -24
  36              		.cfi_offset 5, -20
ARM GAS  C:\Users\oars0\AppData\Local\Temp\cc0aZXkW.s 			page 2


  37              		.cfi_offset 6, -16
  38              		.cfi_offset 7, -12
  39              		.cfi_offset 8, -8
  40              		.cfi_offset 14, -4
  41 0004 9EB0     		sub	sp, sp, #120
  42              		.cfi_def_cfa_offset 144
  43              	.LBB38:
  44              	.LBB39:
  45              		.file 2 "Generated_Source\\PSoC6\\pdl\\cmsis/include/cmsis_gcc.h"
   1:Generated_Source\PSoC6\pdl\cmsis/include/cmsis_gcc.h **** /**************************************************************************//**
   2:Generated_Source\PSoC6\pdl\cmsis/include/cmsis_gcc.h ****  * @file     cmsis_gcc.h
   3:Generated_Source\PSoC6\pdl\cmsis/include/cmsis_gcc.h ****  * @brief    CMSIS compiler GCC header file
   4:Generated_Source\PSoC6\pdl\cmsis/include/cmsis_gcc.h ****  * @version  V5.0.3
   5:Generated_Source\PSoC6\pdl\cmsis/include/cmsis_gcc.h ****  * @date     16. January 2018
   6:Generated_Source\PSoC6\pdl\cmsis/include/cmsis_gcc.h ****  ******************************************************************************/
   7:Generated_Source\PSoC6\pdl\cmsis/include/cmsis_gcc.h **** /*
   8:Generated_Source\PSoC6\pdl\cmsis/include/cmsis_gcc.h ****  * Copyright (c) 2009-2017 ARM Limited. All rights reserved.
   9:Generated_Source\PSoC6\pdl\cmsis/include/cmsis_gcc.h ****  *
  10:Generated_Source\PSoC6\pdl\cmsis/include/cmsis_gcc.h ****  * SPDX-License-Identifier: Apache-2.0
  11:Generated_Source\PSoC6\pdl\cmsis/include/cmsis_gcc.h ****  *
  12:Generated_Source\PSoC6\pdl\cmsis/include/cmsis_gcc.h ****  * Licensed under the Apache License, Version 2.0 (the License); you may
  13:Generated_Source\PSoC6\pdl\cmsis/include/cmsis_gcc.h ****  * not use this file except in compliance with the License.
  14:Generated_Source\PSoC6\pdl\cmsis/include/cmsis_gcc.h ****  * You may obtain a copy of the License at
  15:Generated_Source\PSoC6\pdl\cmsis/include/cmsis_gcc.h ****  *
  16:Generated_Source\PSoC6\pdl\cmsis/include/cmsis_gcc.h ****  * www.apache.org/licenses/LICENSE-2.0
  17:Generated_Source\PSoC6\pdl\cmsis/include/cmsis_gcc.h ****  *
  18:Generated_Source\PSoC6\pdl\cmsis/include/cmsis_gcc.h ****  * Unless required by applicable law or agreed to in writing, software
  19:Generated_Source\PSoC6\pdl\cmsis/include/cmsis_gcc.h ****  * distributed under the License is distributed on an AS IS BASIS, WITHOUT
  20:Generated_Source\PSoC6\pdl\cmsis/include/cmsis_gcc.h ****  * WARRANTIES OR CONDITIONS OF ANY KIND, either express or implied.
  21:Generated_Source\PSoC6\pdl\cmsis/include/cmsis_gcc.h ****  * See the License for the specific language governing permissions and
  22:Generated_Source\PSoC6\pdl\cmsis/include/cmsis_gcc.h ****  * limitations under the License.
  23:Generated_Source\PSoC6\pdl\cmsis/include/cmsis_gcc.h ****  */
  24:Generated_Source\PSoC6\pdl\cmsis/include/cmsis_gcc.h **** 
  25:Generated_Source\PSoC6\pdl\cmsis/include/cmsis_gcc.h **** #ifndef __CMSIS_GCC_H
  26:Generated_Source\PSoC6\pdl\cmsis/include/cmsis_gcc.h **** #define __CMSIS_GCC_H
  27:Generated_Source\PSoC6\pdl\cmsis/include/cmsis_gcc.h **** 
  28:Generated_Source\PSoC6\pdl\cmsis/include/cmsis_gcc.h **** /* ignore some GCC warnings */
  29:Generated_Source\PSoC6\pdl\cmsis/include/cmsis_gcc.h **** #pragma GCC diagnostic push
  30:Generated_Source\PSoC6\pdl\cmsis/include/cmsis_gcc.h **** #pragma GCC diagnostic ignored "-Wsign-conversion"
  31:Generated_Source\PSoC6\pdl\cmsis/include/cmsis_gcc.h **** #pragma GCC diagnostic ignored "-Wconversion"
  32:Generated_Source\PSoC6\pdl\cmsis/include/cmsis_gcc.h **** #pragma GCC diagnostic ignored "-Wunused-parameter"
  33:Generated_Source\PSoC6\pdl\cmsis/include/cmsis_gcc.h **** 
  34:Generated_Source\PSoC6\pdl\cmsis/include/cmsis_gcc.h **** /* Fallback for __has_builtin */
  35:Generated_Source\PSoC6\pdl\cmsis/include/cmsis_gcc.h **** #ifndef __has_builtin
  36:Generated_Source\PSoC6\pdl\cmsis/include/cmsis_gcc.h ****   #define __has_builtin(x) (0)
  37:Generated_Source\PSoC6\pdl\cmsis/include/cmsis_gcc.h **** #endif
  38:Generated_Source\PSoC6\pdl\cmsis/include/cmsis_gcc.h **** 
  39:Generated_Source\PSoC6\pdl\cmsis/include/cmsis_gcc.h **** /* CMSIS compiler specific defines */
  40:Generated_Source\PSoC6\pdl\cmsis/include/cmsis_gcc.h **** #ifndef   __ASM
  41:Generated_Source\PSoC6\pdl\cmsis/include/cmsis_gcc.h ****   #define __ASM                                  __asm
  42:Generated_Source\PSoC6\pdl\cmsis/include/cmsis_gcc.h **** #endif
  43:Generated_Source\PSoC6\pdl\cmsis/include/cmsis_gcc.h **** #ifndef   __INLINE
  44:Generated_Source\PSoC6\pdl\cmsis/include/cmsis_gcc.h ****   #define __INLINE                               inline
  45:Generated_Source\PSoC6\pdl\cmsis/include/cmsis_gcc.h **** #endif
  46:Generated_Source\PSoC6\pdl\cmsis/include/cmsis_gcc.h **** #ifndef   __STATIC_INLINE
  47:Generated_Source\PSoC6\pdl\cmsis/include/cmsis_gcc.h ****   #define __STATIC_INLINE                        static inline
  48:Generated_Source\PSoC6\pdl\cmsis/include/cmsis_gcc.h **** #endif
ARM GAS  C:\Users\oars0\AppData\Local\Temp\cc0aZXkW.s 			page 3


  49:Generated_Source\PSoC6\pdl\cmsis/include/cmsis_gcc.h **** #ifndef   __STATIC_FORCEINLINE                 
  50:Generated_Source\PSoC6\pdl\cmsis/include/cmsis_gcc.h ****   #define __STATIC_FORCEINLINE                   __attribute__((always_inline)) static inline
  51:Generated_Source\PSoC6\pdl\cmsis/include/cmsis_gcc.h **** #endif                                           
  52:Generated_Source\PSoC6\pdl\cmsis/include/cmsis_gcc.h **** #ifndef   __NO_RETURN
  53:Generated_Source\PSoC6\pdl\cmsis/include/cmsis_gcc.h ****   #define __NO_RETURN                            __attribute__((__noreturn__))
  54:Generated_Source\PSoC6\pdl\cmsis/include/cmsis_gcc.h **** #endif
  55:Generated_Source\PSoC6\pdl\cmsis/include/cmsis_gcc.h **** #ifndef   __USED
  56:Generated_Source\PSoC6\pdl\cmsis/include/cmsis_gcc.h ****   #define __USED                                 __attribute__((used))
  57:Generated_Source\PSoC6\pdl\cmsis/include/cmsis_gcc.h **** #endif
  58:Generated_Source\PSoC6\pdl\cmsis/include/cmsis_gcc.h **** #ifndef   __WEAK
  59:Generated_Source\PSoC6\pdl\cmsis/include/cmsis_gcc.h ****   #define __WEAK                                 __attribute__((weak))
  60:Generated_Source\PSoC6\pdl\cmsis/include/cmsis_gcc.h **** #endif
  61:Generated_Source\PSoC6\pdl\cmsis/include/cmsis_gcc.h **** #ifndef   __PACKED
  62:Generated_Source\PSoC6\pdl\cmsis/include/cmsis_gcc.h ****   #define __PACKED                               __attribute__((packed, aligned(1)))
  63:Generated_Source\PSoC6\pdl\cmsis/include/cmsis_gcc.h **** #endif
  64:Generated_Source\PSoC6\pdl\cmsis/include/cmsis_gcc.h **** #ifndef   __PACKED_STRUCT
  65:Generated_Source\PSoC6\pdl\cmsis/include/cmsis_gcc.h ****   #define __PACKED_STRUCT                        struct __attribute__((packed, aligned(1)))
  66:Generated_Source\PSoC6\pdl\cmsis/include/cmsis_gcc.h **** #endif
  67:Generated_Source\PSoC6\pdl\cmsis/include/cmsis_gcc.h **** #ifndef   __PACKED_UNION
  68:Generated_Source\PSoC6\pdl\cmsis/include/cmsis_gcc.h ****   #define __PACKED_UNION                         union __attribute__((packed, aligned(1)))
  69:Generated_Source\PSoC6\pdl\cmsis/include/cmsis_gcc.h **** #endif
  70:Generated_Source\PSoC6\pdl\cmsis/include/cmsis_gcc.h **** #ifndef   __UNALIGNED_UINT32        /* deprecated */
  71:Generated_Source\PSoC6\pdl\cmsis/include/cmsis_gcc.h ****   #pragma GCC diagnostic push
  72:Generated_Source\PSoC6\pdl\cmsis/include/cmsis_gcc.h ****   #pragma GCC diagnostic ignored "-Wpacked"
  73:Generated_Source\PSoC6\pdl\cmsis/include/cmsis_gcc.h ****   #pragma GCC diagnostic ignored "-Wattributes"
  74:Generated_Source\PSoC6\pdl\cmsis/include/cmsis_gcc.h ****   struct __attribute__((packed)) T_UINT32 { uint32_t v; };
  75:Generated_Source\PSoC6\pdl\cmsis/include/cmsis_gcc.h ****   #pragma GCC diagnostic pop
  76:Generated_Source\PSoC6\pdl\cmsis/include/cmsis_gcc.h ****   #define __UNALIGNED_UINT32(x)                  (((struct T_UINT32 *)(x))->v)
  77:Generated_Source\PSoC6\pdl\cmsis/include/cmsis_gcc.h **** #endif
  78:Generated_Source\PSoC6\pdl\cmsis/include/cmsis_gcc.h **** #ifndef   __UNALIGNED_UINT16_WRITE
  79:Generated_Source\PSoC6\pdl\cmsis/include/cmsis_gcc.h ****   #pragma GCC diagnostic push
  80:Generated_Source\PSoC6\pdl\cmsis/include/cmsis_gcc.h ****   #pragma GCC diagnostic ignored "-Wpacked"
  81:Generated_Source\PSoC6\pdl\cmsis/include/cmsis_gcc.h ****   #pragma GCC diagnostic ignored "-Wattributes"
  82:Generated_Source\PSoC6\pdl\cmsis/include/cmsis_gcc.h ****   __PACKED_STRUCT T_UINT16_WRITE { uint16_t v; };
  83:Generated_Source\PSoC6\pdl\cmsis/include/cmsis_gcc.h ****   #pragma GCC diagnostic pop
  84:Generated_Source\PSoC6\pdl\cmsis/include/cmsis_gcc.h ****   #define __UNALIGNED_UINT16_WRITE(addr, val)    (void)((((struct T_UINT16_WRITE *)(void *)(addr))-
  85:Generated_Source\PSoC6\pdl\cmsis/include/cmsis_gcc.h **** #endif
  86:Generated_Source\PSoC6\pdl\cmsis/include/cmsis_gcc.h **** #ifndef   __UNALIGNED_UINT16_READ
  87:Generated_Source\PSoC6\pdl\cmsis/include/cmsis_gcc.h ****   #pragma GCC diagnostic push
  88:Generated_Source\PSoC6\pdl\cmsis/include/cmsis_gcc.h ****   #pragma GCC diagnostic ignored "-Wpacked"
  89:Generated_Source\PSoC6\pdl\cmsis/include/cmsis_gcc.h ****   #pragma GCC diagnostic ignored "-Wattributes"
  90:Generated_Source\PSoC6\pdl\cmsis/include/cmsis_gcc.h ****   __PACKED_STRUCT T_UINT16_READ { uint16_t v; };
  91:Generated_Source\PSoC6\pdl\cmsis/include/cmsis_gcc.h ****   #pragma GCC diagnostic pop
  92:Generated_Source\PSoC6\pdl\cmsis/include/cmsis_gcc.h ****   #define __UNALIGNED_UINT16_READ(addr)          (((const struct T_UINT16_READ *)(const void *)(add
  93:Generated_Source\PSoC6\pdl\cmsis/include/cmsis_gcc.h **** #endif
  94:Generated_Source\PSoC6\pdl\cmsis/include/cmsis_gcc.h **** #ifndef   __UNALIGNED_UINT32_WRITE
  95:Generated_Source\PSoC6\pdl\cmsis/include/cmsis_gcc.h ****   #pragma GCC diagnostic push
  96:Generated_Source\PSoC6\pdl\cmsis/include/cmsis_gcc.h ****   #pragma GCC diagnostic ignored "-Wpacked"
  97:Generated_Source\PSoC6\pdl\cmsis/include/cmsis_gcc.h ****   #pragma GCC diagnostic ignored "-Wattributes"
  98:Generated_Source\PSoC6\pdl\cmsis/include/cmsis_gcc.h ****   __PACKED_STRUCT T_UINT32_WRITE { uint32_t v; };
  99:Generated_Source\PSoC6\pdl\cmsis/include/cmsis_gcc.h ****   #pragma GCC diagnostic pop
 100:Generated_Source\PSoC6\pdl\cmsis/include/cmsis_gcc.h ****   #define __UNALIGNED_UINT32_WRITE(addr, val)    (void)((((struct T_UINT32_WRITE *)(void *)(addr))-
 101:Generated_Source\PSoC6\pdl\cmsis/include/cmsis_gcc.h **** #endif
 102:Generated_Source\PSoC6\pdl\cmsis/include/cmsis_gcc.h **** #ifndef   __UNALIGNED_UINT32_READ
 103:Generated_Source\PSoC6\pdl\cmsis/include/cmsis_gcc.h ****   #pragma GCC diagnostic push
 104:Generated_Source\PSoC6\pdl\cmsis/include/cmsis_gcc.h ****   #pragma GCC diagnostic ignored "-Wpacked"
 105:Generated_Source\PSoC6\pdl\cmsis/include/cmsis_gcc.h ****   #pragma GCC diagnostic ignored "-Wattributes"
ARM GAS  C:\Users\oars0\AppData\Local\Temp\cc0aZXkW.s 			page 4


 106:Generated_Source\PSoC6\pdl\cmsis/include/cmsis_gcc.h ****   __PACKED_STRUCT T_UINT32_READ { uint32_t v; };
 107:Generated_Source\PSoC6\pdl\cmsis/include/cmsis_gcc.h ****   #pragma GCC diagnostic pop
 108:Generated_Source\PSoC6\pdl\cmsis/include/cmsis_gcc.h ****   #define __UNALIGNED_UINT32_READ(addr)          (((const struct T_UINT32_READ *)(const void *)(add
 109:Generated_Source\PSoC6\pdl\cmsis/include/cmsis_gcc.h **** #endif
 110:Generated_Source\PSoC6\pdl\cmsis/include/cmsis_gcc.h **** #ifndef   __ALIGNED
 111:Generated_Source\PSoC6\pdl\cmsis/include/cmsis_gcc.h ****   #define __ALIGNED(x)                           __attribute__((aligned(x)))
 112:Generated_Source\PSoC6\pdl\cmsis/include/cmsis_gcc.h **** #endif
 113:Generated_Source\PSoC6\pdl\cmsis/include/cmsis_gcc.h **** #ifndef   __RESTRICT
 114:Generated_Source\PSoC6\pdl\cmsis/include/cmsis_gcc.h ****   #define __RESTRICT                             __restrict
 115:Generated_Source\PSoC6\pdl\cmsis/include/cmsis_gcc.h **** #endif
 116:Generated_Source\PSoC6\pdl\cmsis/include/cmsis_gcc.h **** 
 117:Generated_Source\PSoC6\pdl\cmsis/include/cmsis_gcc.h **** 
 118:Generated_Source\PSoC6\pdl\cmsis/include/cmsis_gcc.h **** /* ###########################  Core Function Access  ########################### */
 119:Generated_Source\PSoC6\pdl\cmsis/include/cmsis_gcc.h **** /** \ingroup  CMSIS_Core_FunctionInterface
 120:Generated_Source\PSoC6\pdl\cmsis/include/cmsis_gcc.h ****     \defgroup CMSIS_Core_RegAccFunctions CMSIS Core Register Access Functions
 121:Generated_Source\PSoC6\pdl\cmsis/include/cmsis_gcc.h ****   @{
 122:Generated_Source\PSoC6\pdl\cmsis/include/cmsis_gcc.h ****  */
 123:Generated_Source\PSoC6\pdl\cmsis/include/cmsis_gcc.h **** 
 124:Generated_Source\PSoC6\pdl\cmsis/include/cmsis_gcc.h **** /**
 125:Generated_Source\PSoC6\pdl\cmsis/include/cmsis_gcc.h ****   \brief   Enable IRQ Interrupts
 126:Generated_Source\PSoC6\pdl\cmsis/include/cmsis_gcc.h ****   \details Enables IRQ interrupts by clearing the I-bit in the CPSR.
 127:Generated_Source\PSoC6\pdl\cmsis/include/cmsis_gcc.h ****            Can only be executed in Privileged modes.
 128:Generated_Source\PSoC6\pdl\cmsis/include/cmsis_gcc.h ****  */
 129:Generated_Source\PSoC6\pdl\cmsis/include/cmsis_gcc.h **** __STATIC_FORCEINLINE void __enable_irq(void)
 130:Generated_Source\PSoC6\pdl\cmsis/include/cmsis_gcc.h **** {
 131:Generated_Source\PSoC6\pdl\cmsis/include/cmsis_gcc.h ****   __ASM volatile ("cpsie i" : : : "memory");
  46              		.loc 2 131 0
  47              		.syntax unified
  48              	@ 131 "Generated_Source\PSoC6\pdl\cmsis/include/cmsis_gcc.h" 1
  49 0006 62B6     		cpsie i
  50              	@ 0 "" 2
  51              		.thumb
  52              		.syntax unified
  53              	.LBE39:
  54              	.LBE38:
  22:main_cm4.c    ****     __enable_irq(); /* Enable global interrupts. */
  23:main_cm4.c    **** 
  24:main_cm4.c    ****     /* Place your initialization/startup code here (e.g. MyInst_Start()) */
  25:main_cm4.c    ****     ADC_Start();
  55              		.loc 1 25 0
  56 0008 FFF7FEFF 		bl	ADC_Start
  57              	.LVL0:
  26:main_cm4.c    ****     UART_Start();
  58              		.loc 1 26 0
  59 000c FFF7FEFF 		bl	UART_Start
  60              	.LVL1:
  27:main_cm4.c    ****     IDAC_Start();
  61              		.loc 1 27 0
  62 0010 FFF7FEFF 		bl	IDAC_Start
  63              	.LVL2:
  28:main_cm4.c    ****     VDAC_Start();
  64              		.loc 1 28 0
  65 0014 FFF7FEFF 		bl	VDAC_Start
  66              	.LVL3:
  29:main_cm4.c    ****     ADC_SetConvertMode(CY_SAR_START_CONVERT_CONTINUOUS);
  67              		.loc 1 29 0
  68 0018 0120     		movs	r0, #1
ARM GAS  C:\Users\oars0\AppData\Local\Temp\cc0aZXkW.s 			page 5


  69 001a FFF7FEFF 		bl	ADC_SetConvertMode
  70              	.LVL4:
  30:main_cm4.c    ****     ADC_StartConvert();
  71              		.loc 1 30 0
  72 001e FFF7FEFF 		bl	ADC_StartConvert
  73              	.LVL5:
  74              	.L10:
  31:main_cm4.c    ****     
  32:main_cm4.c    ****     uint32_t VCH, VCL, VBH, VBL;
  33:main_cm4.c    ****     uint32_t vdac_val = 0, idac_val = 0;
  34:main_cm4.c    ****     /*
  35:main_cm4.c    ****     int direction = 1;
  36:main_cm4.c    ****     int V_direction = 1;
  37:main_cm4.c    ****     int interval = 5;
  38:main_cm4.c    ****     int V_interval = 100;
  39:main_cm4.c    ****     */
  40:main_cm4.c    ****     char buffer[100];
  41:main_cm4.c    ****     
  42:main_cm4.c    ****     //to get the four channels, pull channel data to 4 different variables or an array of variables
  43:main_cm4.c    ****     
  44:main_cm4.c    ****     
  45:main_cm4.c    ****     for(;;)
  46:main_cm4.c    ****     {
  47:main_cm4.c    ****         /* At various Base current levels, sweep the VDAC and output the measurements in csv format
  48:main_cm4.c    ****         for(idac_val = 50; idac_val < 70; idac_val += 1) {
  75              		.loc 1 48 0
  76 0022 3226     		movs	r6, #50
  77 0024 77E0     		b	.L2
  78              	.LVL6:
  79              	.L9:
  49:main_cm4.c    ****             IDAC_SetValue(idac_val);
  80              		.loc 1 49 0
  81 0026 3046     		mov	r0, r6
  82 0028 FFF7FEFF 		bl	IDAC_SetValue
  83              	.LVL7:
  50:main_cm4.c    ****             for(vdac_val = 10; vdac_val < 4095; vdac_val += 40) {
  84              		.loc 1 50 0
  85 002c 0A24     		movs	r4, #10
  86 002e 6AE0     		b	.L3
  87              	.LVL8:
  88              	.L8:
  89              	.LBB40:
  90              	.LBB41:
  91              	.LBB42:
  92              		.file 3 "Generated_Source\\PSoC6\\pdl\\drivers/peripheral/ctdac/cy_ctdac.h"
   1:Generated_Source\PSoC6\pdl\drivers/peripheral/ctdac/cy_ctdac.h **** /***************************************************************************//**
   2:Generated_Source\PSoC6\pdl\drivers/peripheral/ctdac/cy_ctdac.h **** * \file cy_ctdac.h
   3:Generated_Source\PSoC6\pdl\drivers/peripheral/ctdac/cy_ctdac.h **** * \version 2.0
   4:Generated_Source\PSoC6\pdl\drivers/peripheral/ctdac/cy_ctdac.h **** *
   5:Generated_Source\PSoC6\pdl\drivers/peripheral/ctdac/cy_ctdac.h **** * Header file for the CTDAC driver
   6:Generated_Source\PSoC6\pdl\drivers/peripheral/ctdac/cy_ctdac.h **** *
   7:Generated_Source\PSoC6\pdl\drivers/peripheral/ctdac/cy_ctdac.h **** ********************************************************************************
   8:Generated_Source\PSoC6\pdl\drivers/peripheral/ctdac/cy_ctdac.h **** * \copyright
   9:Generated_Source\PSoC6\pdl\drivers/peripheral/ctdac/cy_ctdac.h **** * Copyright 2017-2018, Cypress Semiconductor Corporation. All rights reserved.
  10:Generated_Source\PSoC6\pdl\drivers/peripheral/ctdac/cy_ctdac.h **** * You may use this file only in accordance with the license, terms, conditions,
  11:Generated_Source\PSoC6\pdl\drivers/peripheral/ctdac/cy_ctdac.h **** * disclaimers, and limitations in the end user license agreement accompanying
  12:Generated_Source\PSoC6\pdl\drivers/peripheral/ctdac/cy_ctdac.h **** * the software package with which this file was provided.
ARM GAS  C:\Users\oars0\AppData\Local\Temp\cc0aZXkW.s 			page 6


  13:Generated_Source\PSoC6\pdl\drivers/peripheral/ctdac/cy_ctdac.h **** *******************************************************************************/
  14:Generated_Source\PSoC6\pdl\drivers/peripheral/ctdac/cy_ctdac.h **** 
  15:Generated_Source\PSoC6\pdl\drivers/peripheral/ctdac/cy_ctdac.h **** /**
  16:Generated_Source\PSoC6\pdl\drivers/peripheral/ctdac/cy_ctdac.h **** * \addtogroup group_ctdac
  17:Generated_Source\PSoC6\pdl\drivers/peripheral/ctdac/cy_ctdac.h **** * \{
  18:Generated_Source\PSoC6\pdl\drivers/peripheral/ctdac/cy_ctdac.h **** * The CTDAC driver provides APIs to configure the 12-bit Continuous-Time DAC.
  19:Generated_Source\PSoC6\pdl\drivers/peripheral/ctdac/cy_ctdac.h **** *
  20:Generated_Source\PSoC6\pdl\drivers/peripheral/ctdac/cy_ctdac.h **** * The functions and other declarations used in this driver are in cy_ctdac.h. 
  21:Generated_Source\PSoC6\pdl\drivers/peripheral/ctdac/cy_ctdac.h **** * You can include cy_pdl.h (ModusToolbox only) to get access to all functions 
  22:Generated_Source\PSoC6\pdl\drivers/peripheral/ctdac/cy_ctdac.h **** * and declarations in the PDL.
  23:Generated_Source\PSoC6\pdl\drivers/peripheral/ctdac/cy_ctdac.h **** *
  24:Generated_Source\PSoC6\pdl\drivers/peripheral/ctdac/cy_ctdac.h **** * - 12-bit continuous time output
  25:Generated_Source\PSoC6\pdl\drivers/peripheral/ctdac/cy_ctdac.h **** * - 2 us settling time for a 25 pF load when output buffered through Opamp0 of \ref group_ctb "CTB"
  26:Generated_Source\PSoC6\pdl\drivers/peripheral/ctdac/cy_ctdac.h **** * - Can be enabled in Deep Sleep power mode
  27:Generated_Source\PSoC6\pdl\drivers/peripheral/ctdac/cy_ctdac.h **** * - Selectable voltage reference:
  28:Generated_Source\PSoC6\pdl\drivers/peripheral/ctdac/cy_ctdac.h **** *       - VDDA
  29:Generated_Source\PSoC6\pdl\drivers/peripheral/ctdac/cy_ctdac.h **** *       - Internal analog reference buffered through Opamp1 of \ref group_ctb "CTB"
  30:Generated_Source\PSoC6\pdl\drivers/peripheral/ctdac/cy_ctdac.h **** *       - External reference buffered through Opamp1 of \ref group_ctb "CTB"
  31:Generated_Source\PSoC6\pdl\drivers/peripheral/ctdac/cy_ctdac.h **** * - Selectable output paths:
  32:Generated_Source\PSoC6\pdl\drivers/peripheral/ctdac/cy_ctdac.h **** *       - Direct DAC output to a pin
  33:Generated_Source\PSoC6\pdl\drivers/peripheral/ctdac/cy_ctdac.h **** *       - Buffered DAC output through Opamp0 of \ref group_ctb "CTB"
  34:Generated_Source\PSoC6\pdl\drivers/peripheral/ctdac/cy_ctdac.h **** *       - Sample and hold output path through Opamp0 of \ref group_ctb "CTB"
  35:Generated_Source\PSoC6\pdl\drivers/peripheral/ctdac/cy_ctdac.h **** * - Selectable input modes:
  36:Generated_Source\PSoC6\pdl\drivers/peripheral/ctdac/cy_ctdac.h **** *       - Unsigned 12-bit mode
  37:Generated_Source\PSoC6\pdl\drivers/peripheral/ctdac/cy_ctdac.h **** *       - Virtual signed 12-bit mode
  38:Generated_Source\PSoC6\pdl\drivers/peripheral/ctdac/cy_ctdac.h **** * - Configurable update rate using clock or strobe signal
  39:Generated_Source\PSoC6\pdl\drivers/peripheral/ctdac/cy_ctdac.h **** * - Double buffered DAC voltage control register
  40:Generated_Source\PSoC6\pdl\drivers/peripheral/ctdac/cy_ctdac.h **** * - Interrupt and DMA trigger on DAC buffer empty
  41:Generated_Source\PSoC6\pdl\drivers/peripheral/ctdac/cy_ctdac.h **** * - Configurable as PGA along with Opamp1 of the \ref group_ctb "CTB"
  42:Generated_Source\PSoC6\pdl\drivers/peripheral/ctdac/cy_ctdac.h **** *
  43:Generated_Source\PSoC6\pdl\drivers/peripheral/ctdac/cy_ctdac.h **** * The CTDAC generates a 12-bit DAC output voltage from the reference.
  44:Generated_Source\PSoC6\pdl\drivers/peripheral/ctdac/cy_ctdac.h **** * The DAC reference can come from VDDA or from any signal buffered through Opamp0
  45:Generated_Source\PSoC6\pdl\drivers/peripheral/ctdac/cy_ctdac.h **** * of the CTB. This can be an external signal through a GPIO or from the internal
  46:Generated_Source\PSoC6\pdl\drivers/peripheral/ctdac/cy_ctdac.h **** * AREF. The CTDAC is closely integrated with the CTB block,
  47:Generated_Source\PSoC6\pdl\drivers/peripheral/ctdac/cy_ctdac.h **** * which provides easy buffering of the DAC output voltage,
  48:Generated_Source\PSoC6\pdl\drivers/peripheral/ctdac/cy_ctdac.h **** * buffered input reference voltage, and sample and hold for the DAC output.
  49:Generated_Source\PSoC6\pdl\drivers/peripheral/ctdac/cy_ctdac.h **** * The CTDAC control interface provides control of the DAC output through CPU or DMA.
  50:Generated_Source\PSoC6\pdl\drivers/peripheral/ctdac/cy_ctdac.h **** * This includes a double-buffered DAC voltage control register, clock input for programmable
  51:Generated_Source\PSoC6\pdl\drivers/peripheral/ctdac/cy_ctdac.h **** * update rate, interrupt on DAC buffer empty, and trigger to DMA.
  52:Generated_Source\PSoC6\pdl\drivers/peripheral/ctdac/cy_ctdac.h **** *
  53:Generated_Source\PSoC6\pdl\drivers/peripheral/ctdac/cy_ctdac.h **** * \image html ctdac_block_diagram.png
  54:Generated_Source\PSoC6\pdl\drivers/peripheral/ctdac/cy_ctdac.h **** * \image latex ctdac_block_diagram.png
  55:Generated_Source\PSoC6\pdl\drivers/peripheral/ctdac/cy_ctdac.h **** *
  56:Generated_Source\PSoC6\pdl\drivers/peripheral/ctdac/cy_ctdac.h **** * The CTDAC has two switches, CO6 for configuring the output path and
  57:Generated_Source\PSoC6\pdl\drivers/peripheral/ctdac/cy_ctdac.h **** * CVD for the reference source.
  58:Generated_Source\PSoC6\pdl\drivers/peripheral/ctdac/cy_ctdac.h **** *
  59:Generated_Source\PSoC6\pdl\drivers/peripheral/ctdac/cy_ctdac.h **** * \image html ctdac_switches.png
  60:Generated_Source\PSoC6\pdl\drivers/peripheral/ctdac/cy_ctdac.h **** * \image latex ctdac_switches.png
  61:Generated_Source\PSoC6\pdl\drivers/peripheral/ctdac/cy_ctdac.h **** *
  62:Generated_Source\PSoC6\pdl\drivers/peripheral/ctdac/cy_ctdac.h **** * \section group_ctdac_init Initialization
  63:Generated_Source\PSoC6\pdl\drivers/peripheral/ctdac/cy_ctdac.h **** *
  64:Generated_Source\PSoC6\pdl\drivers/peripheral/ctdac/cy_ctdac.h **** * Configure the CTDAC hardware block by calling \ref Cy_CTDAC_Init.
  65:Generated_Source\PSoC6\pdl\drivers/peripheral/ctdac/cy_ctdac.h **** * The base address of the CTDAC hardware can be found in the device-specific header file.
  66:Generated_Source\PSoC6\pdl\drivers/peripheral/ctdac/cy_ctdac.h **** * If the buffers in the CTB are used for the reference source or the output,
  67:Generated_Source\PSoC6\pdl\drivers/peripheral/ctdac/cy_ctdac.h **** * initialize the CTB hardware block. After both blocks are initialized,
  68:Generated_Source\PSoC6\pdl\drivers/peripheral/ctdac/cy_ctdac.h **** * enable the CTB block before enabling the CTDAC block.
  69:Generated_Source\PSoC6\pdl\drivers/peripheral/ctdac/cy_ctdac.h **** *
ARM GAS  C:\Users\oars0\AppData\Local\Temp\cc0aZXkW.s 			page 7


  70:Generated_Source\PSoC6\pdl\drivers/peripheral/ctdac/cy_ctdac.h **** * The driver also provides a \ref Cy_CTDAC_FastInit function for fast and easy initialization of th
  71:Generated_Source\PSoC6\pdl\drivers/peripheral/ctdac/cy_ctdac.h **** * The driver has pre-defined configuration structures for the four combinations of the reference an
  72:Generated_Source\PSoC6\pdl\drivers/peripheral/ctdac/cy_ctdac.h **** *
  73:Generated_Source\PSoC6\pdl\drivers/peripheral/ctdac/cy_ctdac.h **** * - \ref Cy_CTDAC_Fast_VddaRef_UnbufferedOut
  74:Generated_Source\PSoC6\pdl\drivers/peripheral/ctdac/cy_ctdac.h **** * - \ref Cy_CTDAC_Fast_VddaRef_BufferedOut
  75:Generated_Source\PSoC6\pdl\drivers/peripheral/ctdac/cy_ctdac.h **** * - \ref Cy_CTDAC_Fast_OA1Ref_UnbufferedOut
  76:Generated_Source\PSoC6\pdl\drivers/peripheral/ctdac/cy_ctdac.h **** * - \ref Cy_CTDAC_Fast_OA1Ref_BufferedOut
  77:Generated_Source\PSoC6\pdl\drivers/peripheral/ctdac/cy_ctdac.h **** *
  78:Generated_Source\PSoC6\pdl\drivers/peripheral/ctdac/cy_ctdac.h **** * After initialization, call \ref Cy_CTDAC_Enable to enable the hardware.
  79:Generated_Source\PSoC6\pdl\drivers/peripheral/ctdac/cy_ctdac.h **** *
  80:Generated_Source\PSoC6\pdl\drivers/peripheral/ctdac/cy_ctdac.h **** * \section group_ctdac_updatemode Update Modes
  81:Generated_Source\PSoC6\pdl\drivers/peripheral/ctdac/cy_ctdac.h **** * The CTDAC contains two registers:
  82:Generated_Source\PSoC6\pdl\drivers/peripheral/ctdac/cy_ctdac.h **** *   -# CTDAC_VAL
  83:Generated_Source\PSoC6\pdl\drivers/peripheral/ctdac/cy_ctdac.h **** *
  84:Generated_Source\PSoC6\pdl\drivers/peripheral/ctdac/cy_ctdac.h **** *       For direct firmware writes to update the current DAC value immediately.
  85:Generated_Source\PSoC6\pdl\drivers/peripheral/ctdac/cy_ctdac.h **** *       This register is written with \ref Cy_CTDAC_SetValue.
  86:Generated_Source\PSoC6\pdl\drivers/peripheral/ctdac/cy_ctdac.h **** *   -# CTDAC_VAL_NXT
  87:Generated_Source\PSoC6\pdl\drivers/peripheral/ctdac/cy_ctdac.h **** *
  88:Generated_Source\PSoC6\pdl\drivers/peripheral/ctdac/cy_ctdac.h **** *       For buffered writes to update the DAC value at a
  89:Generated_Source\PSoC6\pdl\drivers/peripheral/ctdac/cy_ctdac.h **** *       periodic rate or with a strobe trigger input.
  90:Generated_Source\PSoC6\pdl\drivers/peripheral/ctdac/cy_ctdac.h **** *       This register is written with \ref Cy_CTDAC_SetValueBuffered.
  91:Generated_Source\PSoC6\pdl\drivers/peripheral/ctdac/cy_ctdac.h **** *
  92:Generated_Source\PSoC6\pdl\drivers/peripheral/ctdac/cy_ctdac.h **** * The update mode is
  93:Generated_Source\PSoC6\pdl\drivers/peripheral/ctdac/cy_ctdac.h **** * selected during initialization with the \ref cy_stc_ctdac_config_t.updateMode.
  94:Generated_Source\PSoC6\pdl\drivers/peripheral/ctdac/cy_ctdac.h **** * Four of these modes require a dedicated clock resource and the driver
  95:Generated_Source\PSoC6\pdl\drivers/peripheral/ctdac/cy_ctdac.h **** * can configure the clock during initialization (see \ref cy_stc_ctdac_config_t).
  96:Generated_Source\PSoC6\pdl\drivers/peripheral/ctdac/cy_ctdac.h **** *
  97:Generated_Source\PSoC6\pdl\drivers/peripheral/ctdac/cy_ctdac.h **** * Three of these modes use a strobe signal through the digital signal interface (DSI).
  98:Generated_Source\PSoC6\pdl\drivers/peripheral/ctdac/cy_ctdac.h **** * This allows control of the buffered update timing from an external source, for example, by anothe
  99:Generated_Source\PSoC6\pdl\drivers/peripheral/ctdac/cy_ctdac.h **** * chip peripheral or from an off-chip source.
 100:Generated_Source\PSoC6\pdl\drivers/peripheral/ctdac/cy_ctdac.h **** *
 101:Generated_Source\PSoC6\pdl\drivers/peripheral/ctdac/cy_ctdac.h **** * \subsection group_ctdac_updatemode_direct_write Direct write
 102:Generated_Source\PSoC6\pdl\drivers/peripheral/ctdac/cy_ctdac.h **** *
 103:Generated_Source\PSoC6\pdl\drivers/peripheral/ctdac/cy_ctdac.h **** * In this mode, the user writes directly into the CTDAC_VAL register
 104:Generated_Source\PSoC6\pdl\drivers/peripheral/ctdac/cy_ctdac.h **** * using \ref Cy_CTDAC_SetValue. The action of writing to this register
 105:Generated_Source\PSoC6\pdl\drivers/peripheral/ctdac/cy_ctdac.h **** * will update the DAC output. This mode does not generate an interrupt
 106:Generated_Source\PSoC6\pdl\drivers/peripheral/ctdac/cy_ctdac.h **** * or trigger signal.
 107:Generated_Source\PSoC6\pdl\drivers/peripheral/ctdac/cy_ctdac.h **** * In this mode, a clock must not be configured. Additionally, calling \ref
 108:Generated_Source\PSoC6\pdl\drivers/peripheral/ctdac/cy_ctdac.h **** * Cy_CTDAC_SetValueBuffered does not update the DAC output.
 109:Generated_Source\PSoC6\pdl\drivers/peripheral/ctdac/cy_ctdac.h **** *
 110:Generated_Source\PSoC6\pdl\drivers/peripheral/ctdac/cy_ctdac.h **** * \image html ctdac_update_mode_direct_write.png
 111:Generated_Source\PSoC6\pdl\drivers/peripheral/ctdac/cy_ctdac.h **** * \image latex ctdac_update_mode_direct_write.png
 112:Generated_Source\PSoC6\pdl\drivers/peripheral/ctdac/cy_ctdac.h **** *
 113:Generated_Source\PSoC6\pdl\drivers/peripheral/ctdac/cy_ctdac.h **** * \subsection group_ctdac_updatemode_buffered_write Buffered write
 114:Generated_Source\PSoC6\pdl\drivers/peripheral/ctdac/cy_ctdac.h **** *
 115:Generated_Source\PSoC6\pdl\drivers/peripheral/ctdac/cy_ctdac.h **** * In this mode, the user writes to the CTDAC_VAL_NXT register using
 116:Generated_Source\PSoC6\pdl\drivers/peripheral/ctdac/cy_ctdac.h **** * \ref Cy_CTDAC_SetValueBuffered. The rising edge of the clock
 117:Generated_Source\PSoC6\pdl\drivers/peripheral/ctdac/cy_ctdac.h **** * will update the DAC output and generate the interrupt and trigger signals.
 118:Generated_Source\PSoC6\pdl\drivers/peripheral/ctdac/cy_ctdac.h **** *
 119:Generated_Source\PSoC6\pdl\drivers/peripheral/ctdac/cy_ctdac.h **** * Whenever data is transferred from the CTDAC_VAL_NXT register,
 120:Generated_Source\PSoC6\pdl\drivers/peripheral/ctdac/cy_ctdac.h **** * an interrupt is asserted the same time as the trigger. But while
 121:Generated_Source\PSoC6\pdl\drivers/peripheral/ctdac/cy_ctdac.h **** * the trigger is automatically cleared after two PeriClk cycles, the
 122:Generated_Source\PSoC6\pdl\drivers/peripheral/ctdac/cy_ctdac.h **** * user must clear the interrupt with \ref Cy_CTDAC_ClearInterrupt.
 123:Generated_Source\PSoC6\pdl\drivers/peripheral/ctdac/cy_ctdac.h **** *
 124:Generated_Source\PSoC6\pdl\drivers/peripheral/ctdac/cy_ctdac.h **** * \image html ctdac_update_mode_buffered_write.png
 125:Generated_Source\PSoC6\pdl\drivers/peripheral/ctdac/cy_ctdac.h **** * \image latex ctdac_update_mode_buffered_write.png
 126:Generated_Source\PSoC6\pdl\drivers/peripheral/ctdac/cy_ctdac.h **** *
ARM GAS  C:\Users\oars0\AppData\Local\Temp\cc0aZXkW.s 			page 8


 127:Generated_Source\PSoC6\pdl\drivers/peripheral/ctdac/cy_ctdac.h **** * \subsection group_ctdac_updatemode_strobe_edge_sync Strobe edge sync
 128:Generated_Source\PSoC6\pdl\drivers/peripheral/ctdac/cy_ctdac.h **** *
 129:Generated_Source\PSoC6\pdl\drivers/peripheral/ctdac/cy_ctdac.h **** * In this mode, the user writes to the CTDAC_VAL_NXT register using
 130:Generated_Source\PSoC6\pdl\drivers/peripheral/ctdac/cy_ctdac.h **** * \ref Cy_CTDAC_SetValueBuffered.
 131:Generated_Source\PSoC6\pdl\drivers/peripheral/ctdac/cy_ctdac.h **** * Each rising edge of the DSI strobe input enables
 132:Generated_Source\PSoC6\pdl\drivers/peripheral/ctdac/cy_ctdac.h **** * one subsequent update from the next rising edge of the clock. The DSI
 133:Generated_Source\PSoC6\pdl\drivers/peripheral/ctdac/cy_ctdac.h **** * input must remain high for two PeriClk cycles and go low for
 134:Generated_Source\PSoC6\pdl\drivers/peripheral/ctdac/cy_ctdac.h **** * another two PeriClk cycles to allow for the next update.
 135:Generated_Source\PSoC6\pdl\drivers/peripheral/ctdac/cy_ctdac.h **** * This restricts the DSI strobe input frequency to the PeriClk frequency divided by four.
 136:Generated_Source\PSoC6\pdl\drivers/peripheral/ctdac/cy_ctdac.h **** *
 137:Generated_Source\PSoC6\pdl\drivers/peripheral/ctdac/cy_ctdac.h **** * \image html ctdac_update_mode_strobe_edge_sync.png
 138:Generated_Source\PSoC6\pdl\drivers/peripheral/ctdac/cy_ctdac.h **** * \image latex ctdac_update_mode_strobe_edge_sync.png
 139:Generated_Source\PSoC6\pdl\drivers/peripheral/ctdac/cy_ctdac.h **** *
 140:Generated_Source\PSoC6\pdl\drivers/peripheral/ctdac/cy_ctdac.h **** * \subsection group_ctdac_updatemode_strobe_edge_immediate Strobe edge immediate
 141:Generated_Source\PSoC6\pdl\drivers/peripheral/ctdac/cy_ctdac.h **** *
 142:Generated_Source\PSoC6\pdl\drivers/peripheral/ctdac/cy_ctdac.h **** * In this mode, the user writes to the CTDAC_VAL_NXT register using
 143:Generated_Source\PSoC6\pdl\drivers/peripheral/ctdac/cy_ctdac.h **** * \ref Cy_CTDAC_SetValueBuffered.
 144:Generated_Source\PSoC6\pdl\drivers/peripheral/ctdac/cy_ctdac.h **** * The clock resource is used but set to a logic high.
 145:Generated_Source\PSoC6\pdl\drivers/peripheral/ctdac/cy_ctdac.h **** * Therefore, each rising edge of the DSI strobe input immediately
 146:Generated_Source\PSoC6\pdl\drivers/peripheral/ctdac/cy_ctdac.h **** * updates the DAC output.
 147:Generated_Source\PSoC6\pdl\drivers/peripheral/ctdac/cy_ctdac.h **** *
 148:Generated_Source\PSoC6\pdl\drivers/peripheral/ctdac/cy_ctdac.h **** * \image html ctdac_update_mode_strobe_edge_immediate.png
 149:Generated_Source\PSoC6\pdl\drivers/peripheral/ctdac/cy_ctdac.h **** * \image latex ctdac_update_mode_strobe_edge_immediate.png
 150:Generated_Source\PSoC6\pdl\drivers/peripheral/ctdac/cy_ctdac.h **** *
 151:Generated_Source\PSoC6\pdl\drivers/peripheral/ctdac/cy_ctdac.h **** * \subsection group_ctdac_updatemode_strobe_level Strobe level
 152:Generated_Source\PSoC6\pdl\drivers/peripheral/ctdac/cy_ctdac.h **** *
 153:Generated_Source\PSoC6\pdl\drivers/peripheral/ctdac/cy_ctdac.h **** * In this mode, the user writes to the CTDAC_VAL_NXT register using
 154:Generated_Source\PSoC6\pdl\drivers/peripheral/ctdac/cy_ctdac.h **** * \ref Cy_CTDAC_SetValueBuffered.
 155:Generated_Source\PSoC6\pdl\drivers/peripheral/ctdac/cy_ctdac.h **** * The DSI strobe input acts as a hardware enable signal.
 156:Generated_Source\PSoC6\pdl\drivers/peripheral/ctdac/cy_ctdac.h **** * While the DSI strobe input is high, the mode behaves
 157:Generated_Source\PSoC6\pdl\drivers/peripheral/ctdac/cy_ctdac.h **** * like the Buffered write mode. When the DSI strobe input is low,
 158:Generated_Source\PSoC6\pdl\drivers/peripheral/ctdac/cy_ctdac.h **** * updates are disabled.
 159:Generated_Source\PSoC6\pdl\drivers/peripheral/ctdac/cy_ctdac.h **** *
 160:Generated_Source\PSoC6\pdl\drivers/peripheral/ctdac/cy_ctdac.h **** * \image html ctdac_update_mode_strobe_level.png
 161:Generated_Source\PSoC6\pdl\drivers/peripheral/ctdac/cy_ctdac.h **** * \image latex ctdac_update_mode_strobe_level.png
 162:Generated_Source\PSoC6\pdl\drivers/peripheral/ctdac/cy_ctdac.h **** *
 163:Generated_Source\PSoC6\pdl\drivers/peripheral/ctdac/cy_ctdac.h **** * \section group_ctdac_dacmode DAC Modes
 164:Generated_Source\PSoC6\pdl\drivers/peripheral/ctdac/cy_ctdac.h **** *
 165:Generated_Source\PSoC6\pdl\drivers/peripheral/ctdac/cy_ctdac.h **** * The format of code stored in the CTDAC_VAL register can either be unsigned
 166:Generated_Source\PSoC6\pdl\drivers/peripheral/ctdac/cy_ctdac.h **** * or signed two's complemented.
 167:Generated_Source\PSoC6\pdl\drivers/peripheral/ctdac/cy_ctdac.h **** * Only the first 12 bits of the register are used by the DAC so there is
 168:Generated_Source\PSoC6\pdl\drivers/peripheral/ctdac/cy_ctdac.h **** * no need for sign extension. With the signed format, the DAC decodes
 169:Generated_Source\PSoC6\pdl\drivers/peripheral/ctdac/cy_ctdac.h **** * the code in the register by adding 0x800.
 170:Generated_Source\PSoC6\pdl\drivers/peripheral/ctdac/cy_ctdac.h **** * The DAC can output the register value or the register value plus 1 (see \ref Cy_CTDAC_SetOutputMo
 171:Generated_Source\PSoC6\pdl\drivers/peripheral/ctdac/cy_ctdac.h **** *
 172:Generated_Source\PSoC6\pdl\drivers/peripheral/ctdac/cy_ctdac.h **** * <table class="doxtable">
 173:Generated_Source\PSoC6\pdl\drivers/peripheral/ctdac/cy_ctdac.h **** *   <tr>
 174:Generated_Source\PSoC6\pdl\drivers/peripheral/ctdac/cy_ctdac.h **** *     <th>12-bit unsigned code</th>
 175:Generated_Source\PSoC6\pdl\drivers/peripheral/ctdac/cy_ctdac.h **** *     <th>12-bit two's complement signed code</th>
 176:Generated_Source\PSoC6\pdl\drivers/peripheral/ctdac/cy_ctdac.h **** *     <th>Vout (for \ref CY_CTDAC_OUTPUT_VALUE )</th>
 177:Generated_Source\PSoC6\pdl\drivers/peripheral/ctdac/cy_ctdac.h **** *     <th>Vout (for \ref CY_CTDAC_OUTPUT_VALUE_PLUS1 )</th>
 178:Generated_Source\PSoC6\pdl\drivers/peripheral/ctdac/cy_ctdac.h **** *   </tr>
 179:Generated_Source\PSoC6\pdl\drivers/peripheral/ctdac/cy_ctdac.h **** *   <tr>
 180:Generated_Source\PSoC6\pdl\drivers/peripheral/ctdac/cy_ctdac.h **** *     <td>0x000</td>
 181:Generated_Source\PSoC6\pdl\drivers/peripheral/ctdac/cy_ctdac.h **** *     <td>0x800</td>
 182:Generated_Source\PSoC6\pdl\drivers/peripheral/ctdac/cy_ctdac.h **** *     <td>0</td>
 183:Generated_Source\PSoC6\pdl\drivers/peripheral/ctdac/cy_ctdac.h **** *     <td>Vref/4096</td>
ARM GAS  C:\Users\oars0\AppData\Local\Temp\cc0aZXkW.s 			page 9


 184:Generated_Source\PSoC6\pdl\drivers/peripheral/ctdac/cy_ctdac.h **** *   </tr>
 185:Generated_Source\PSoC6\pdl\drivers/peripheral/ctdac/cy_ctdac.h **** *   <tr>
 186:Generated_Source\PSoC6\pdl\drivers/peripheral/ctdac/cy_ctdac.h **** *     <td>0x800</td>
 187:Generated_Source\PSoC6\pdl\drivers/peripheral/ctdac/cy_ctdac.h **** *     <td>0x000</td>
 188:Generated_Source\PSoC6\pdl\drivers/peripheral/ctdac/cy_ctdac.h **** *     <td>0.5 * Vref</td>
 189:Generated_Source\PSoC6\pdl\drivers/peripheral/ctdac/cy_ctdac.h **** *     <td>Vref * 2049 / 4096</td>
 190:Generated_Source\PSoC6\pdl\drivers/peripheral/ctdac/cy_ctdac.h **** *   </tr>
 191:Generated_Source\PSoC6\pdl\drivers/peripheral/ctdac/cy_ctdac.h **** *   <tr>
 192:Generated_Source\PSoC6\pdl\drivers/peripheral/ctdac/cy_ctdac.h **** *     <td>0xFFF</td>
 193:Generated_Source\PSoC6\pdl\drivers/peripheral/ctdac/cy_ctdac.h **** *     <td>0x7FF</td>
 194:Generated_Source\PSoC6\pdl\drivers/peripheral/ctdac/cy_ctdac.h **** *     <td>Vref * 4095 / 4096</td>
 195:Generated_Source\PSoC6\pdl\drivers/peripheral/ctdac/cy_ctdac.h **** *     <td>Vref</td>
 196:Generated_Source\PSoC6\pdl\drivers/peripheral/ctdac/cy_ctdac.h **** *   </tr>
 197:Generated_Source\PSoC6\pdl\drivers/peripheral/ctdac/cy_ctdac.h **** * </table>
 198:Generated_Source\PSoC6\pdl\drivers/peripheral/ctdac/cy_ctdac.h **** *
 199:Generated_Source\PSoC6\pdl\drivers/peripheral/ctdac/cy_ctdac.h **** * The expressions in the above table are based on an unbuffered DAC output.
 200:Generated_Source\PSoC6\pdl\drivers/peripheral/ctdac/cy_ctdac.h **** * When the output is buffered, the input and output range of the buffer will affect the
 201:Generated_Source\PSoC6\pdl\drivers/peripheral/ctdac/cy_ctdac.h **** * output voltage. See \ref group_ctb_opamp_range in the CTB driver for more information.
 202:Generated_Source\PSoC6\pdl\drivers/peripheral/ctdac/cy_ctdac.h **** *
 203:Generated_Source\PSoC6\pdl\drivers/peripheral/ctdac/cy_ctdac.h **** * \section group_ctdac_trigger Interrupts and Trigger
 204:Generated_Source\PSoC6\pdl\drivers/peripheral/ctdac/cy_ctdac.h **** *
 205:Generated_Source\PSoC6\pdl\drivers/peripheral/ctdac/cy_ctdac.h **** * When data from the CTDAC_VAL_NXT is transferred to the CTDAC_VAL register,
 206:Generated_Source\PSoC6\pdl\drivers/peripheral/ctdac/cy_ctdac.h **** * an interrupt and trigger output are generated. The trigger output can be
 207:Generated_Source\PSoC6\pdl\drivers/peripheral/ctdac/cy_ctdac.h **** * used with a DMA block to update the CTDAC value register at high speeds without any CPU intervent
 208:Generated_Source\PSoC6\pdl\drivers/peripheral/ctdac/cy_ctdac.h **** * Alternatively, the interrupt output can be used when DMA is not available
 209:Generated_Source\PSoC6\pdl\drivers/peripheral/ctdac/cy_ctdac.h **** * to update the CTDAC value register, but at a slower speed.
 210:Generated_Source\PSoC6\pdl\drivers/peripheral/ctdac/cy_ctdac.h **** *
 211:Generated_Source\PSoC6\pdl\drivers/peripheral/ctdac/cy_ctdac.h **** * Recall with the \ref group_ctdac_updatemode, the interrupt and trigger output are available in al
 212:Generated_Source\PSoC6\pdl\drivers/peripheral/ctdac/cy_ctdac.h **** * \ref group_ctdac_updatemode_direct_write.
 213:Generated_Source\PSoC6\pdl\drivers/peripheral/ctdac/cy_ctdac.h **** *
 214:Generated_Source\PSoC6\pdl\drivers/peripheral/ctdac/cy_ctdac.h **** * \subsection group_ctdac_dma_trigger DMA Trigger
 215:Generated_Source\PSoC6\pdl\drivers/peripheral/ctdac/cy_ctdac.h **** *
 216:Generated_Source\PSoC6\pdl\drivers/peripheral/ctdac/cy_ctdac.h **** * The CTDAC trigger output signal can be routed to a DMA block using the \ref group_trigmux
 217:Generated_Source\PSoC6\pdl\drivers/peripheral/ctdac/cy_ctdac.h **** * to trigger an update to the CTDAC_VAL_NXT register.
 218:Generated_Source\PSoC6\pdl\drivers/peripheral/ctdac/cy_ctdac.h **** * When making the required \ref Cy_TrigMux_Connect calls, use the pre-defined enums, TRIG14_IN_PASS
 219:Generated_Source\PSoC6\pdl\drivers/peripheral/ctdac/cy_ctdac.h **** * and TRIGGER_TYPE_PASS_TR_CTDAC_EMPTY.
 220:Generated_Source\PSoC6\pdl\drivers/peripheral/ctdac/cy_ctdac.h **** *
 221:Generated_Source\PSoC6\pdl\drivers/peripheral/ctdac/cy_ctdac.h **** * \subsection group_ctdac_handling_interrupts Handling Interrupts
 222:Generated_Source\PSoC6\pdl\drivers/peripheral/ctdac/cy_ctdac.h **** *
 223:Generated_Source\PSoC6\pdl\drivers/peripheral/ctdac/cy_ctdac.h **** * The following code snippet demonstrates how to implement a routine to handle the interrupt.
 224:Generated_Source\PSoC6\pdl\drivers/peripheral/ctdac/cy_ctdac.h **** * The routine gets called when any CTDAC on the device generates an interrupt.
 225:Generated_Source\PSoC6\pdl\drivers/peripheral/ctdac/cy_ctdac.h **** *
 226:Generated_Source\PSoC6\pdl\drivers/peripheral/ctdac/cy_ctdac.h **** * \snippet ctdac_sut_01.cydsn/main_cm0p.c SNIPPET_CTDAC_ISR
 227:Generated_Source\PSoC6\pdl\drivers/peripheral/ctdac/cy_ctdac.h **** *
 228:Generated_Source\PSoC6\pdl\drivers/peripheral/ctdac/cy_ctdac.h **** * The following code snippet demonstrates how to configure and enable the interrupt.
 229:Generated_Source\PSoC6\pdl\drivers/peripheral/ctdac/cy_ctdac.h **** *
 230:Generated_Source\PSoC6\pdl\drivers/peripheral/ctdac/cy_ctdac.h **** * \snippet ctdac_sut_01.cydsn/main_cm0p.c SNIPPET_CTDAC_INTR_SETUP
 231:Generated_Source\PSoC6\pdl\drivers/peripheral/ctdac/cy_ctdac.h **** *
 232:Generated_Source\PSoC6\pdl\drivers/peripheral/ctdac/cy_ctdac.h **** * \snippet ctdac_sut_01.cydsn/main_cm4.c CTDAC_SNIPPET_DMA_TRIGGER
 233:Generated_Source\PSoC6\pdl\drivers/peripheral/ctdac/cy_ctdac.h **** *
 234:Generated_Source\PSoC6\pdl\drivers/peripheral/ctdac/cy_ctdac.h **** * \section group_ctdac_deglitch Deglitch
 235:Generated_Source\PSoC6\pdl\drivers/peripheral/ctdac/cy_ctdac.h **** *
 236:Generated_Source\PSoC6\pdl\drivers/peripheral/ctdac/cy_ctdac.h **** * The hardware has the ability to deglitch the output value every time it is updated.
 237:Generated_Source\PSoC6\pdl\drivers/peripheral/ctdac/cy_ctdac.h **** * This prevents small glitches in the DAC output during an update to propagate to
 238:Generated_Source\PSoC6\pdl\drivers/peripheral/ctdac/cy_ctdac.h **** * the pin or opamp input. When deglitch is enabled, a switch on the output path
 239:Generated_Source\PSoC6\pdl\drivers/peripheral/ctdac/cy_ctdac.h **** * is forced open for a configurable number of PeriClk cycles. This deglitch time
 240:Generated_Source\PSoC6\pdl\drivers/peripheral/ctdac/cy_ctdac.h **** * is calculated as:
ARM GAS  C:\Users\oars0\AppData\Local\Temp\cc0aZXkW.s 			page 10


 241:Generated_Source\PSoC6\pdl\drivers/peripheral/ctdac/cy_ctdac.h **** *
 242:Generated_Source\PSoC6\pdl\drivers/peripheral/ctdac/cy_ctdac.h **** *       (DEGLITCH_CNT + 1) / PERI_CLOCK_FREQ
 243:Generated_Source\PSoC6\pdl\drivers/peripheral/ctdac/cy_ctdac.h **** *
 244:Generated_Source\PSoC6\pdl\drivers/peripheral/ctdac/cy_ctdac.h **** * The optimal and recommended deglitch time is 700 ns. Call \ref Cy_CTDAC_SetDeglitchCycles to set 
 245:Generated_Source\PSoC6\pdl\drivers/peripheral/ctdac/cy_ctdac.h **** *
 246:Generated_Source\PSoC6\pdl\drivers/peripheral/ctdac/cy_ctdac.h **** * There are two switches used for deglitching.
 247:Generated_Source\PSoC6\pdl\drivers/peripheral/ctdac/cy_ctdac.h **** * - Switch COS in the CTB between the DAC output and the Opamp0 input
 248:Generated_Source\PSoC6\pdl\drivers/peripheral/ctdac/cy_ctdac.h **** * - Switch CO6 in the CTDAC between the DAC output and external pin
 249:Generated_Source\PSoC6\pdl\drivers/peripheral/ctdac/cy_ctdac.h **** *
 250:Generated_Source\PSoC6\pdl\drivers/peripheral/ctdac/cy_ctdac.h **** * Call \ref Cy_CTDAC_SetDeglitchMode to set the deglitch path. Match this with the output buffer se
 251:Generated_Source\PSoC6\pdl\drivers/peripheral/ctdac/cy_ctdac.h **** * If the output is buffered through the CTB, select \ref CY_CTDAC_DEGLITCHMODE_BUFFERED.
 252:Generated_Source\PSoC6\pdl\drivers/peripheral/ctdac/cy_ctdac.h **** * If the output is unbuffered to a direct pin, select \ref CY_CTDAC_DEGLITCHMODE_UNBUFFERED.
 253:Generated_Source\PSoC6\pdl\drivers/peripheral/ctdac/cy_ctdac.h **** *
 254:Generated_Source\PSoC6\pdl\drivers/peripheral/ctdac/cy_ctdac.h **** * \note
 255:Generated_Source\PSoC6\pdl\drivers/peripheral/ctdac/cy_ctdac.h **** * If deglitching is enabled, the hardware does not force the deglitch switches into a closed
 256:Generated_Source\PSoC6\pdl\drivers/peripheral/ctdac/cy_ctdac.h **** * state during Deep Sleep mode. Therefore, there is a chance that the device enters
 257:Generated_Source\PSoC6\pdl\drivers/peripheral/ctdac/cy_ctdac.h **** * Deep Sleep mode while the hardware is deglitching and the switches on the output path remain open
 258:Generated_Source\PSoC6\pdl\drivers/peripheral/ctdac/cy_ctdac.h **** * To ensure the DAC will operate properly in Deep Sleep when enabled, make sure to
 259:Generated_Source\PSoC6\pdl\drivers/peripheral/ctdac/cy_ctdac.h **** * register the \ref Cy_CTDAC_DeepSleepCallback before entering Deep Sleep mode.
 260:Generated_Source\PSoC6\pdl\drivers/peripheral/ctdac/cy_ctdac.h **** *
 261:Generated_Source\PSoC6\pdl\drivers/peripheral/ctdac/cy_ctdac.h **** * \section group_ctdac_sample_hold Sample and Hold
 262:Generated_Source\PSoC6\pdl\drivers/peripheral/ctdac/cy_ctdac.h **** *
 263:Generated_Source\PSoC6\pdl\drivers/peripheral/ctdac/cy_ctdac.h **** * When buffering the DAC output, the CTB has a Sample and Hold (SH) feature that can be used for sa
 264:Generated_Source\PSoC6\pdl\drivers/peripheral/ctdac/cy_ctdac.h **** * The DAC output voltage is retained on an internal capacitor for a duration of time while the
 265:Generated_Source\PSoC6\pdl\drivers/peripheral/ctdac/cy_ctdac.h **** * DAC output can be turned off. The DAC hardware needs to be turned on in a periodic fashion
 266:Generated_Source\PSoC6\pdl\drivers/peripheral/ctdac/cy_ctdac.h **** * to recharge the hold capacitor. This feature is firmware controlled using a sequence of function 
 267:Generated_Source\PSoC6\pdl\drivers/peripheral/ctdac/cy_ctdac.h **** * See \ref Cy_CTB_DACSampleAndHold in the \ref group_ctb_sample_hold "CTB" driver.
 268:Generated_Source\PSoC6\pdl\drivers/peripheral/ctdac/cy_ctdac.h **** *
 269:Generated_Source\PSoC6\pdl\drivers/peripheral/ctdac/cy_ctdac.h **** * The hold time depends on the supply and reference voltages. The following hold times are based on
 270:Generated_Source\PSoC6\pdl\drivers/peripheral/ctdac/cy_ctdac.h **** * time it takes for the buffered output to change by 1 LSB.
 271:Generated_Source\PSoC6\pdl\drivers/peripheral/ctdac/cy_ctdac.h **** *
 272:Generated_Source\PSoC6\pdl\drivers/peripheral/ctdac/cy_ctdac.h **** *   - Hold time = 750 us @ Vref = VDDA , VDDA = 1.7 V
 273:Generated_Source\PSoC6\pdl\drivers/peripheral/ctdac/cy_ctdac.h **** *   - Hold time = 525 us @ Vref = VDDA , VDDA = 3.6 V
 274:Generated_Source\PSoC6\pdl\drivers/peripheral/ctdac/cy_ctdac.h **** *   - Hold time = 200 us @ Vref = 1.2 V, VDDA = 3.6 V
 275:Generated_Source\PSoC6\pdl\drivers/peripheral/ctdac/cy_ctdac.h **** *
 276:Generated_Source\PSoC6\pdl\drivers/peripheral/ctdac/cy_ctdac.h **** * \section group_ctdac_low_power Low Power Support
 277:Generated_Source\PSoC6\pdl\drivers/peripheral/ctdac/cy_ctdac.h **** *
 278:Generated_Source\PSoC6\pdl\drivers/peripheral/ctdac/cy_ctdac.h **** * The CTDAC driver provides a callback function to handle power mode transitions.
 279:Generated_Source\PSoC6\pdl\drivers/peripheral/ctdac/cy_ctdac.h **** * If the CTDAC is configured for Deep Sleep operation and \ref group_ctdac_deglitch "deglitching" i
 280:Generated_Source\PSoC6\pdl\drivers/peripheral/ctdac/cy_ctdac.h **** * the callback \ref Cy_CTDAC_DeepSleepCallback must be registered before calling
 281:Generated_Source\PSoC6\pdl\drivers/peripheral/ctdac/cy_ctdac.h **** * \ref Cy_SysPm_CpuEnterDeepSleep.
 282:Generated_Source\PSoC6\pdl\drivers/peripheral/ctdac/cy_ctdac.h **** * Refer to \ref group_syspm driver for more information about power mode transitions and
 283:Generated_Source\PSoC6\pdl\drivers/peripheral/ctdac/cy_ctdac.h **** * callback registration.
 284:Generated_Source\PSoC6\pdl\drivers/peripheral/ctdac/cy_ctdac.h **** *
 285:Generated_Source\PSoC6\pdl\drivers/peripheral/ctdac/cy_ctdac.h **** * \section group_ctdac_more_information More Information
 286:Generated_Source\PSoC6\pdl\drivers/peripheral/ctdac/cy_ctdac.h **** *
 287:Generated_Source\PSoC6\pdl\drivers/peripheral/ctdac/cy_ctdac.h **** * Refer to the technical reference manual (TRM) and the device datasheet.
 288:Generated_Source\PSoC6\pdl\drivers/peripheral/ctdac/cy_ctdac.h **** *
 289:Generated_Source\PSoC6\pdl\drivers/peripheral/ctdac/cy_ctdac.h **** * \section group_ctdac_MISRA MISRA-C Compliance]
 290:Generated_Source\PSoC6\pdl\drivers/peripheral/ctdac/cy_ctdac.h **** *
 291:Generated_Source\PSoC6\pdl\drivers/peripheral/ctdac/cy_ctdac.h **** * This driver has the following specific deviations:
 292:Generated_Source\PSoC6\pdl\drivers/peripheral/ctdac/cy_ctdac.h **** *
 293:Generated_Source\PSoC6\pdl\drivers/peripheral/ctdac/cy_ctdac.h **** * <table class="doxtable">
 294:Generated_Source\PSoC6\pdl\drivers/peripheral/ctdac/cy_ctdac.h **** *   <tr>
 295:Generated_Source\PSoC6\pdl\drivers/peripheral/ctdac/cy_ctdac.h **** *     <th>MISRA Rule</th>
 296:Generated_Source\PSoC6\pdl\drivers/peripheral/ctdac/cy_ctdac.h **** *     <th>Rule Class (Required/Advisory)</th>
 297:Generated_Source\PSoC6\pdl\drivers/peripheral/ctdac/cy_ctdac.h **** *     <th>Rule Description</th>
ARM GAS  C:\Users\oars0\AppData\Local\Temp\cc0aZXkW.s 			page 11


 298:Generated_Source\PSoC6\pdl\drivers/peripheral/ctdac/cy_ctdac.h **** *     <th>Description of Deviation(s)</th>
 299:Generated_Source\PSoC6\pdl\drivers/peripheral/ctdac/cy_ctdac.h **** *   </tr>
 300:Generated_Source\PSoC6\pdl\drivers/peripheral/ctdac/cy_ctdac.h **** *   <tr>
 301:Generated_Source\PSoC6\pdl\drivers/peripheral/ctdac/cy_ctdac.h **** *     <td>11.4</td>
 302:Generated_Source\PSoC6\pdl\drivers/peripheral/ctdac/cy_ctdac.h **** *     <td>Advisory</td>
 303:Generated_Source\PSoC6\pdl\drivers/peripheral/ctdac/cy_ctdac.h **** *     <td>A cast should not be performed between a pointer to object type and a different pointer t
 304:Generated_Source\PSoC6\pdl\drivers/peripheral/ctdac/cy_ctdac.h **** *     <td>The cy_syspm driver defines the pointer to void in the \ref cy_stc_syspm_callback_params_
 305:Generated_Source\PSoC6\pdl\drivers/peripheral/ctdac/cy_ctdac.h **** *       This CTDAC driver implements a Deep Sleep callback conforming to the cy_syspm driver requir
 306:Generated_Source\PSoC6\pdl\drivers/peripheral/ctdac/cy_ctdac.h **** *       When the callback is called, the base is cast to a pointer to CTDAC_Type.
 307:Generated_Source\PSoC6\pdl\drivers/peripheral/ctdac/cy_ctdac.h **** *     </td>
 308:Generated_Source\PSoC6\pdl\drivers/peripheral/ctdac/cy_ctdac.h **** *   </tr>
 309:Generated_Source\PSoC6\pdl\drivers/peripheral/ctdac/cy_ctdac.h **** * </table>
 310:Generated_Source\PSoC6\pdl\drivers/peripheral/ctdac/cy_ctdac.h **** *
 311:Generated_Source\PSoC6\pdl\drivers/peripheral/ctdac/cy_ctdac.h **** * \section group_ctdac_changelog Changelog
 312:Generated_Source\PSoC6\pdl\drivers/peripheral/ctdac/cy_ctdac.h **** * <table class="doxtable">
 313:Generated_Source\PSoC6\pdl\drivers/peripheral/ctdac/cy_ctdac.h **** *   <tr><th>Version</th><th>Changes</th><th>Reason for Change</th></tr>
 314:Generated_Source\PSoC6\pdl\drivers/peripheral/ctdac/cy_ctdac.h **** *   <tr>
 315:Generated_Source\PSoC6\pdl\drivers/peripheral/ctdac/cy_ctdac.h **** *     <td rowspan="2">2.0</td>
 316:Generated_Source\PSoC6\pdl\drivers/peripheral/ctdac/cy_ctdac.h **** *     <td>Flattened the organization of the driver source code into the single 
 317:Generated_Source\PSoC6\pdl\drivers/peripheral/ctdac/cy_ctdac.h **** *         source directory and the single include directory.
 318:Generated_Source\PSoC6\pdl\drivers/peripheral/ctdac/cy_ctdac.h **** *     </td>
 319:Generated_Source\PSoC6\pdl\drivers/peripheral/ctdac/cy_ctdac.h **** *     <td>Driver library directory-structure simplification.</td>
 320:Generated_Source\PSoC6\pdl\drivers/peripheral/ctdac/cy_ctdac.h **** *   </tr>
 321:Generated_Source\PSoC6\pdl\drivers/peripheral/ctdac/cy_ctdac.h **** *   <tr>
 322:Generated_Source\PSoC6\pdl\drivers/peripheral/ctdac/cy_ctdac.h **** *     <td>Added register access layer. Use register access macros instead
 323:Generated_Source\PSoC6\pdl\drivers/peripheral/ctdac/cy_ctdac.h **** *         of direct register access using dereferenced pointers.</td>
 324:Generated_Source\PSoC6\pdl\drivers/peripheral/ctdac/cy_ctdac.h **** *     <td>Makes register access device-independent, so that the PDL does 
 325:Generated_Source\PSoC6\pdl\drivers/peripheral/ctdac/cy_ctdac.h **** *         not need to be recompiled for each supported part number.</td>
 326:Generated_Source\PSoC6\pdl\drivers/peripheral/ctdac/cy_ctdac.h **** *   </tr>
 327:Generated_Source\PSoC6\pdl\drivers/peripheral/ctdac/cy_ctdac.h **** *   <tr>
 328:Generated_Source\PSoC6\pdl\drivers/peripheral/ctdac/cy_ctdac.h **** *     <td>1.0.1</td>
 329:Generated_Source\PSoC6\pdl\drivers/peripheral/ctdac/cy_ctdac.h **** *     <td>Added low power support section. Minor documentation edits.</td>
 330:Generated_Source\PSoC6\pdl\drivers/peripheral/ctdac/cy_ctdac.h **** *     <td>Documentation update and clarification</td>
 331:Generated_Source\PSoC6\pdl\drivers/peripheral/ctdac/cy_ctdac.h **** *   </tr>
 332:Generated_Source\PSoC6\pdl\drivers/peripheral/ctdac/cy_ctdac.h **** *   <tr>
 333:Generated_Source\PSoC6\pdl\drivers/peripheral/ctdac/cy_ctdac.h **** *     <td>1.0</td>
 334:Generated_Source\PSoC6\pdl\drivers/peripheral/ctdac/cy_ctdac.h **** *     <td>Initial version</td>
 335:Generated_Source\PSoC6\pdl\drivers/peripheral/ctdac/cy_ctdac.h **** *     <td></td>
 336:Generated_Source\PSoC6\pdl\drivers/peripheral/ctdac/cy_ctdac.h **** *   </tr>
 337:Generated_Source\PSoC6\pdl\drivers/peripheral/ctdac/cy_ctdac.h **** * </table>
 338:Generated_Source\PSoC6\pdl\drivers/peripheral/ctdac/cy_ctdac.h **** *
 339:Generated_Source\PSoC6\pdl\drivers/peripheral/ctdac/cy_ctdac.h **** * \defgroup group_ctdac_macros Macros
 340:Generated_Source\PSoC6\pdl\drivers/peripheral/ctdac/cy_ctdac.h **** * \defgroup group_ctdac_functions Functions
 341:Generated_Source\PSoC6\pdl\drivers/peripheral/ctdac/cy_ctdac.h **** *   \{
 342:Generated_Source\PSoC6\pdl\drivers/peripheral/ctdac/cy_ctdac.h **** *       \defgroup group_ctdac_functions_init            Initialization Functions
 343:Generated_Source\PSoC6\pdl\drivers/peripheral/ctdac/cy_ctdac.h **** *       \defgroup group_ctdac_functions_basic           Basic Configuration Functions
 344:Generated_Source\PSoC6\pdl\drivers/peripheral/ctdac/cy_ctdac.h **** *       \defgroup group_ctdac_functions_switches        Switch Control Functions
 345:Generated_Source\PSoC6\pdl\drivers/peripheral/ctdac/cy_ctdac.h **** *       \defgroup group_ctdac_functions_interrupts      Interrupt Functions
 346:Generated_Source\PSoC6\pdl\drivers/peripheral/ctdac/cy_ctdac.h **** *       \defgroup group_ctdac_functions_syspm_callback  Low Power Callback
 347:Generated_Source\PSoC6\pdl\drivers/peripheral/ctdac/cy_ctdac.h **** *   \}
 348:Generated_Source\PSoC6\pdl\drivers/peripheral/ctdac/cy_ctdac.h **** * \defgroup group_ctdac_globals Global Variables
 349:Generated_Source\PSoC6\pdl\drivers/peripheral/ctdac/cy_ctdac.h **** * \defgroup group_ctdac_data_structures Data Structures
 350:Generated_Source\PSoC6\pdl\drivers/peripheral/ctdac/cy_ctdac.h **** * \defgroup group_ctdac_enums Enumerated Types
 351:Generated_Source\PSoC6\pdl\drivers/peripheral/ctdac/cy_ctdac.h **** */
 352:Generated_Source\PSoC6\pdl\drivers/peripheral/ctdac/cy_ctdac.h **** 
 353:Generated_Source\PSoC6\pdl\drivers/peripheral/ctdac/cy_ctdac.h **** #if !defined(CY_CTDAC_H)
 354:Generated_Source\PSoC6\pdl\drivers/peripheral/ctdac/cy_ctdac.h **** #define CY_CTDAC_H
ARM GAS  C:\Users\oars0\AppData\Local\Temp\cc0aZXkW.s 			page 12


 355:Generated_Source\PSoC6\pdl\drivers/peripheral/ctdac/cy_ctdac.h **** 
 356:Generated_Source\PSoC6\pdl\drivers/peripheral/ctdac/cy_ctdac.h **** #include <stdint.h>
 357:Generated_Source\PSoC6\pdl\drivers/peripheral/ctdac/cy_ctdac.h **** #include <stdbool.h>
 358:Generated_Source\PSoC6\pdl\drivers/peripheral/ctdac/cy_ctdac.h **** #include <stddef.h>
 359:Generated_Source\PSoC6\pdl\drivers/peripheral/ctdac/cy_ctdac.h **** #include "cy_device.h"
 360:Generated_Source\PSoC6\pdl\drivers/peripheral/ctdac/cy_ctdac.h **** #include "cy_device_headers.h"
 361:Generated_Source\PSoC6\pdl\drivers/peripheral/ctdac/cy_ctdac.h **** #include "cy_syspm.h"
 362:Generated_Source\PSoC6\pdl\drivers/peripheral/ctdac/cy_ctdac.h **** #include "cy_syslib.h"
 363:Generated_Source\PSoC6\pdl\drivers/peripheral/ctdac/cy_ctdac.h **** #include "cy_sysclk.h"
 364:Generated_Source\PSoC6\pdl\drivers/peripheral/ctdac/cy_ctdac.h **** 
 365:Generated_Source\PSoC6\pdl\drivers/peripheral/ctdac/cy_ctdac.h **** #ifdef CY_IP_MXS40PASS_CTDAC
 366:Generated_Source\PSoC6\pdl\drivers/peripheral/ctdac/cy_ctdac.h **** 
 367:Generated_Source\PSoC6\pdl\drivers/peripheral/ctdac/cy_ctdac.h **** #if defined(__cplusplus)
 368:Generated_Source\PSoC6\pdl\drivers/peripheral/ctdac/cy_ctdac.h **** extern "C" {
 369:Generated_Source\PSoC6\pdl\drivers/peripheral/ctdac/cy_ctdac.h **** #endif
 370:Generated_Source\PSoC6\pdl\drivers/peripheral/ctdac/cy_ctdac.h **** 
 371:Generated_Source\PSoC6\pdl\drivers/peripheral/ctdac/cy_ctdac.h **** /** \addtogroup group_ctdac_macros
 372:Generated_Source\PSoC6\pdl\drivers/peripheral/ctdac/cy_ctdac.h **** * \{
 373:Generated_Source\PSoC6\pdl\drivers/peripheral/ctdac/cy_ctdac.h **** */
 374:Generated_Source\PSoC6\pdl\drivers/peripheral/ctdac/cy_ctdac.h **** 
 375:Generated_Source\PSoC6\pdl\drivers/peripheral/ctdac/cy_ctdac.h **** /** Driver major version */
 376:Generated_Source\PSoC6\pdl\drivers/peripheral/ctdac/cy_ctdac.h **** #define CY_CTDAC_DRV_VERSION_MAJOR       2
 377:Generated_Source\PSoC6\pdl\drivers/peripheral/ctdac/cy_ctdac.h **** 
 378:Generated_Source\PSoC6\pdl\drivers/peripheral/ctdac/cy_ctdac.h **** /** Driver minor version */
 379:Generated_Source\PSoC6\pdl\drivers/peripheral/ctdac/cy_ctdac.h **** #define CY_CTDAC_DRV_VERSION_MINOR       0
 380:Generated_Source\PSoC6\pdl\drivers/peripheral/ctdac/cy_ctdac.h **** 
 381:Generated_Source\PSoC6\pdl\drivers/peripheral/ctdac/cy_ctdac.h **** /** CTDAC driver identifier */
 382:Generated_Source\PSoC6\pdl\drivers/peripheral/ctdac/cy_ctdac.h **** #define CY_CTDAC_ID                       CY_PDL_DRV_ID(0x19u)
 383:Generated_Source\PSoC6\pdl\drivers/peripheral/ctdac/cy_ctdac.h **** 
 384:Generated_Source\PSoC6\pdl\drivers/peripheral/ctdac/cy_ctdac.h **** #define CY_CTDAC_DEINIT                         (0uL)                                              
 385:Generated_Source\PSoC6\pdl\drivers/peripheral/ctdac/cy_ctdac.h **** #define CY_CTDAC_UNSIGNED_MID_CODE_VALUE        (0x800uL)                                          
 386:Generated_Source\PSoC6\pdl\drivers/peripheral/ctdac/cy_ctdac.h **** #define CY_CTDAC_UNSIGNED_MAX_CODE_VALUE        (0xFFFuL)                                          
 387:Generated_Source\PSoC6\pdl\drivers/peripheral/ctdac/cy_ctdac.h **** #define CY_CTDAC_FAST_CLKCFG_TYPE               CY_SYSCLK_DIV_8_BIT                                
 388:Generated_Source\PSoC6\pdl\drivers/peripheral/ctdac/cy_ctdac.h **** #define CY_CTDAC_FAST_CLKCFG_NUM                (0uL)                                              
 389:Generated_Source\PSoC6\pdl\drivers/peripheral/ctdac/cy_ctdac.h **** #define CY_CTDAC_FAST_CLKCFG_DIV                (99uL)                                             
 390:Generated_Source\PSoC6\pdl\drivers/peripheral/ctdac/cy_ctdac.h **** 
 391:Generated_Source\PSoC6\pdl\drivers/peripheral/ctdac/cy_ctdac.h **** /** \cond INTERNAL */
 392:Generated_Source\PSoC6\pdl\drivers/peripheral/ctdac/cy_ctdac.h **** #define CY_CTDAC_DEINT_CTDAC_SW                 (CTDAC_CTDAC_SW_CLEAR_CTDD_CVD_Msk | CTDAC_CTDAC_SW
 393:Generated_Source\PSoC6\pdl\drivers/peripheral/ctdac/cy_ctdac.h **** #define CY_CTDAC_STROBE_EDGE_IMMEDIATE_DIV      (0uL)                                              
 394:Generated_Source\PSoC6\pdl\drivers/peripheral/ctdac/cy_ctdac.h **** #define CY_CTDAC_STROBE_EDGE_IMMEDIATE_DIV_FRAC (0uL)                                              
 395:Generated_Source\PSoC6\pdl\drivers/peripheral/ctdac/cy_ctdac.h **** #define CY_CTDAC_DEGLITCH_CYCLES_MAX            (63uL)
 396:Generated_Source\PSoC6\pdl\drivers/peripheral/ctdac/cy_ctdac.h **** 
 397:Generated_Source\PSoC6\pdl\drivers/peripheral/ctdac/cy_ctdac.h **** /**< Macros for conditions used by CY_ASSERT calls */
 398:Generated_Source\PSoC6\pdl\drivers/peripheral/ctdac/cy_ctdac.h **** #define CY_CTDAC_REFSOURCE(source)                  (((source) == CY_CTDAC_REFSOURCE_EXTERNAL) || (
 399:Generated_Source\PSoC6\pdl\drivers/peripheral/ctdac/cy_ctdac.h **** #define CY_CTDAC_FORMAT(mode)                       (((mode) == CY_CTDAC_FORMAT_UNSIGNED) || ((mode
 400:Generated_Source\PSoC6\pdl\drivers/peripheral/ctdac/cy_ctdac.h **** #define CY_CTDAC_UPDATE(mode)                       ((mode) <= CY_CTDAC_UPDATE_STROBE_LEVEL)
 401:Generated_Source\PSoC6\pdl\drivers/peripheral/ctdac/cy_ctdac.h **** #define CY_CTDAC_DEGLITCH(mode)                     (((mode) == CY_CTDAC_DEGLITCHMODE_NONE) \
 402:Generated_Source\PSoC6\pdl\drivers/peripheral/ctdac/cy_ctdac.h ****                                                     || ((mode) == CY_CTDAC_DEGLITCHMODE_UNBUFFERED)
 403:Generated_Source\PSoC6\pdl\drivers/peripheral/ctdac/cy_ctdac.h ****                                                     || ((mode) == CY_CTDAC_DEGLITCHMODE_BUFFERED) \
 404:Generated_Source\PSoC6\pdl\drivers/peripheral/ctdac/cy_ctdac.h ****                                                     || ((mode) == CY_CTDAC_DEGLITCHMODE_BOTH))
 405:Generated_Source\PSoC6\pdl\drivers/peripheral/ctdac/cy_ctdac.h **** #define CY_CTDAC_OUTPUTMODE(mode)                   (((mode) == CY_CTDAC_OUTPUT_HIGHZ) \
 406:Generated_Source\PSoC6\pdl\drivers/peripheral/ctdac/cy_ctdac.h ****                                                     || ((mode) == CY_CTDAC_OUTPUT_VALUE) \
 407:Generated_Source\PSoC6\pdl\drivers/peripheral/ctdac/cy_ctdac.h ****                                                     || ((mode) == CY_CTDAC_OUTPUT_VALUE_PLUS1) \
 408:Generated_Source\PSoC6\pdl\drivers/peripheral/ctdac/cy_ctdac.h ****                                                     || ((mode) == CY_CTDAC_OUTPUT_VSSA) \
 409:Generated_Source\PSoC6\pdl\drivers/peripheral/ctdac/cy_ctdac.h ****                                                     || ((mode) == CY_CTDAC_OUTPUT_VREF))
 410:Generated_Source\PSoC6\pdl\drivers/peripheral/ctdac/cy_ctdac.h **** #define CY_CTDAC_OUTPUTBUFFER(buffer)               (((buffer) == CY_CTDAC_OUTPUT_UNBUFFERED) || ((
 411:Generated_Source\PSoC6\pdl\drivers/peripheral/ctdac/cy_ctdac.h **** #define CY_CTDAC_DEEPSLEEP(deepSleep)               (((deepSleep) == CY_CTDAC_DEEPSLEEP_DISABLE) ||
ARM GAS  C:\Users\oars0\AppData\Local\Temp\cc0aZXkW.s 			page 13


 412:Generated_Source\PSoC6\pdl\drivers/peripheral/ctdac/cy_ctdac.h **** #define CY_CTDAC_DEGLITCHCYCLES(cycles)             ((cycles) <= CY_CTDAC_DEGLITCH_CYCLES_MAX)
 413:Generated_Source\PSoC6\pdl\drivers/peripheral/ctdac/cy_ctdac.h **** #define CY_CTDAC_SWITCHMASK(mask)                   ((mask) <= (uint32_t) (CY_CTDAC_SWITCH_CVD_MASK
 414:Generated_Source\PSoC6\pdl\drivers/peripheral/ctdac/cy_ctdac.h **** #define CY_CTDAC_SWITCHSTATE(state)                 (((state) == CY_CTDAC_SWITCH_OPEN) || ((state) 
 415:Generated_Source\PSoC6\pdl\drivers/peripheral/ctdac/cy_ctdac.h **** #define CY_CTDAC_INTRMASK(mask)                     (((mask) == 0uL) || ((mask) == 1uL))
 416:Generated_Source\PSoC6\pdl\drivers/peripheral/ctdac/cy_ctdac.h **** /** \endcond */
 417:Generated_Source\PSoC6\pdl\drivers/peripheral/ctdac/cy_ctdac.h **** 
 418:Generated_Source\PSoC6\pdl\drivers/peripheral/ctdac/cy_ctdac.h **** /** \} group_ctdac_macros */
 419:Generated_Source\PSoC6\pdl\drivers/peripheral/ctdac/cy_ctdac.h **** 
 420:Generated_Source\PSoC6\pdl\drivers/peripheral/ctdac/cy_ctdac.h **** /***************************************
 421:Generated_Source\PSoC6\pdl\drivers/peripheral/ctdac/cy_ctdac.h **** *       Enumerated Types
 422:Generated_Source\PSoC6\pdl\drivers/peripheral/ctdac/cy_ctdac.h **** ***************************************/
 423:Generated_Source\PSoC6\pdl\drivers/peripheral/ctdac/cy_ctdac.h **** 
 424:Generated_Source\PSoC6\pdl\drivers/peripheral/ctdac/cy_ctdac.h **** /**
 425:Generated_Source\PSoC6\pdl\drivers/peripheral/ctdac/cy_ctdac.h **** * \addtogroup group_ctdac_enums
 426:Generated_Source\PSoC6\pdl\drivers/peripheral/ctdac/cy_ctdac.h **** * \{
 427:Generated_Source\PSoC6\pdl\drivers/peripheral/ctdac/cy_ctdac.h **** */
 428:Generated_Source\PSoC6\pdl\drivers/peripheral/ctdac/cy_ctdac.h **** 
 429:Generated_Source\PSoC6\pdl\drivers/peripheral/ctdac/cy_ctdac.h **** /**
 430:Generated_Source\PSoC6\pdl\drivers/peripheral/ctdac/cy_ctdac.h **** * Configure the mode for how the DAC value is updated.
 431:Generated_Source\PSoC6\pdl\drivers/peripheral/ctdac/cy_ctdac.h **** * All the modes require a CTDAC clock except for \ref group_ctdac_updatemode_direct_write.
 432:Generated_Source\PSoC6\pdl\drivers/peripheral/ctdac/cy_ctdac.h **** */
 433:Generated_Source\PSoC6\pdl\drivers/peripheral/ctdac/cy_ctdac.h **** typedef enum {
 434:Generated_Source\PSoC6\pdl\drivers/peripheral/ctdac/cy_ctdac.h ****     CY_CTDAC_UPDATE_DIRECT_WRITE            = 0uL,  /**< DAC value is updated with a direct write b
 435:Generated_Source\PSoC6\pdl\drivers/peripheral/ctdac/cy_ctdac.h ****     CY_CTDAC_UPDATE_BUFFERED_WRITE          = 1uL,  /**< DAC value stored with \ref Cy_CTDAC_SetVal
 436:Generated_Source\PSoC6\pdl\drivers/peripheral/ctdac/cy_ctdac.h ****     CY_CTDAC_UPDATE_STROBE_EDGE_SYNC        = 2uL,  /**< DAC value stored with \ref Cy_CTDAC_SetVal
 437:Generated_Source\PSoC6\pdl\drivers/peripheral/ctdac/cy_ctdac.h ****     CY_CTDAC_UPDATE_STROBE_EDGE_IMMEDIATE   = 3uL,  /**< DAC value stored with \ref Cy_CTDAC_SetVal
 438:Generated_Source\PSoC6\pdl\drivers/peripheral/ctdac/cy_ctdac.h ****     CY_CTDAC_UPDATE_STROBE_LEVEL            = 4uL   /**< DAC value stored with \ref Cy_CTDAC_SetVal
 439:Generated_Source\PSoC6\pdl\drivers/peripheral/ctdac/cy_ctdac.h **** }cy_en_ctdac_update_t;
 440:Generated_Source\PSoC6\pdl\drivers/peripheral/ctdac/cy_ctdac.h **** 
 441:Generated_Source\PSoC6\pdl\drivers/peripheral/ctdac/cy_ctdac.h **** /**
 442:Generated_Source\PSoC6\pdl\drivers/peripheral/ctdac/cy_ctdac.h **** * Configure the format in which the DAC value register is decoded.
 443:Generated_Source\PSoC6\pdl\drivers/peripheral/ctdac/cy_ctdac.h **** */
 444:Generated_Source\PSoC6\pdl\drivers/peripheral/ctdac/cy_ctdac.h **** typedef enum {
 445:Generated_Source\PSoC6\pdl\drivers/peripheral/ctdac/cy_ctdac.h ****     CY_CTDAC_FORMAT_UNSIGNED    = 0uL,                                         /**< Unsigned 12-bit
 446:Generated_Source\PSoC6\pdl\drivers/peripheral/ctdac/cy_ctdac.h ****     CY_CTDAC_FORMAT_SIGNED      = 1uL << CTDAC_CTDAC_CTRL_CTDAC_MODE_Pos       /**< Virtual signed.
 447:Generated_Source\PSoC6\pdl\drivers/peripheral/ctdac/cy_ctdac.h **** }cy_en_ctdac_format_t;
 448:Generated_Source\PSoC6\pdl\drivers/peripheral/ctdac/cy_ctdac.h **** 
 449:Generated_Source\PSoC6\pdl\drivers/peripheral/ctdac/cy_ctdac.h **** /**
 450:Generated_Source\PSoC6\pdl\drivers/peripheral/ctdac/cy_ctdac.h **** * Enable or disable the CTDAC hardware during Deep Sleep.
 451:Generated_Source\PSoC6\pdl\drivers/peripheral/ctdac/cy_ctdac.h **** */
 452:Generated_Source\PSoC6\pdl\drivers/peripheral/ctdac/cy_ctdac.h **** typedef enum {
 453:Generated_Source\PSoC6\pdl\drivers/peripheral/ctdac/cy_ctdac.h ****     CY_CTDAC_DEEPSLEEP_DISABLE  = 0uL,                                  /**< DAC is disabled during
 454:Generated_Source\PSoC6\pdl\drivers/peripheral/ctdac/cy_ctdac.h ****     CY_CTDAC_DEEPSLEEP_ENABLE   = CTDAC_CTDAC_CTRL_DEEPSLEEP_ON_Msk     /**< DAC remains enabled du
 455:Generated_Source\PSoC6\pdl\drivers/peripheral/ctdac/cy_ctdac.h **** }cy_en_ctdac_deep_sleep_t;
 456:Generated_Source\PSoC6\pdl\drivers/peripheral/ctdac/cy_ctdac.h **** 
 457:Generated_Source\PSoC6\pdl\drivers/peripheral/ctdac/cy_ctdac.h **** /**
 458:Generated_Source\PSoC6\pdl\drivers/peripheral/ctdac/cy_ctdac.h **** * Configure the output state of the CTDAC.
 459:Generated_Source\PSoC6\pdl\drivers/peripheral/ctdac/cy_ctdac.h **** */
 460:Generated_Source\PSoC6\pdl\drivers/peripheral/ctdac/cy_ctdac.h **** typedef enum {
 461:Generated_Source\PSoC6\pdl\drivers/peripheral/ctdac/cy_ctdac.h ****     CY_CTDAC_OUTPUT_HIGHZ           = 0uL,                                  /**< DAC output is tri-
 462:Generated_Source\PSoC6\pdl\drivers/peripheral/ctdac/cy_ctdac.h ****     CY_CTDAC_OUTPUT_VALUE           = CTDAC_CTDAC_CTRL_OUT_EN_Msk,          /**< DAC Output is enab
 463:Generated_Source\PSoC6\pdl\drivers/peripheral/ctdac/cy_ctdac.h ****     CY_CTDAC_OUTPUT_VALUE_PLUS1     = CTDAC_CTDAC_CTRL_OUT_EN_Msk \
 464:Generated_Source\PSoC6\pdl\drivers/peripheral/ctdac/cy_ctdac.h ****                                       | CTDAC_CTDAC_CTRL_CTDAC_RANGE_Msk,   /**< DAC Output enabled
 465:Generated_Source\PSoC6\pdl\drivers/peripheral/ctdac/cy_ctdac.h ****     CY_CTDAC_OUTPUT_VSSA            = CTDAC_CTDAC_CTRL_DISABLED_MODE_Msk,   /**< Output is pulled t
 466:Generated_Source\PSoC6\pdl\drivers/peripheral/ctdac/cy_ctdac.h ****     CY_CTDAC_OUTPUT_VREF            = CTDAC_CTDAC_CTRL_DISABLED_MODE_Msk \
 467:Generated_Source\PSoC6\pdl\drivers/peripheral/ctdac/cy_ctdac.h ****                                       | CTDAC_CTDAC_CTRL_CTDAC_RANGE_Msk    /**< Output is pulled t
 468:Generated_Source\PSoC6\pdl\drivers/peripheral/ctdac/cy_ctdac.h **** }cy_en_ctdac_output_mode_t;
ARM GAS  C:\Users\oars0\AppData\Local\Temp\cc0aZXkW.s 			page 14


 469:Generated_Source\PSoC6\pdl\drivers/peripheral/ctdac/cy_ctdac.h **** 
 470:Generated_Source\PSoC6\pdl\drivers/peripheral/ctdac/cy_ctdac.h **** /**
 471:Generated_Source\PSoC6\pdl\drivers/peripheral/ctdac/cy_ctdac.h **** * Configure the deglitch mode. See the \ref group_ctdac_deglitch section for
 472:Generated_Source\PSoC6\pdl\drivers/peripheral/ctdac/cy_ctdac.h **** * more information on how deglitching works.
 473:Generated_Source\PSoC6\pdl\drivers/peripheral/ctdac/cy_ctdac.h **** */
 474:Generated_Source\PSoC6\pdl\drivers/peripheral/ctdac/cy_ctdac.h **** typedef enum {
 475:Generated_Source\PSoC6\pdl\drivers/peripheral/ctdac/cy_ctdac.h ****     CY_CTDAC_DEGLITCHMODE_NONE          = 0uL,                                  /**< Disable deglit
 476:Generated_Source\PSoC6\pdl\drivers/peripheral/ctdac/cy_ctdac.h ****     CY_CTDAC_DEGLITCHMODE_UNBUFFERED    = CTDAC_CTDAC_CTRL_DEGLITCH_CO6_Msk,    /**< Deglitch throu
 477:Generated_Source\PSoC6\pdl\drivers/peripheral/ctdac/cy_ctdac.h ****     CY_CTDAC_DEGLITCHMODE_BUFFERED      = CTDAC_CTDAC_CTRL_DEGLITCH_COS_Msk,    /**< Deglitch throu
 478:Generated_Source\PSoC6\pdl\drivers/peripheral/ctdac/cy_ctdac.h ****     CY_CTDAC_DEGLITCHMODE_BOTH          = CTDAC_CTDAC_CTRL_DEGLITCH_COS_Msk \
 479:Generated_Source\PSoC6\pdl\drivers/peripheral/ctdac/cy_ctdac.h ****                                           | CTDAC_CTDAC_CTRL_DEGLITCH_CO6_Msk   /**< Deglitch throu
 480:Generated_Source\PSoC6\pdl\drivers/peripheral/ctdac/cy_ctdac.h **** }cy_en_ctdac_deglitch_t;
 481:Generated_Source\PSoC6\pdl\drivers/peripheral/ctdac/cy_ctdac.h **** 
 482:Generated_Source\PSoC6\pdl\drivers/peripheral/ctdac/cy_ctdac.h **** /**
 483:Generated_Source\PSoC6\pdl\drivers/peripheral/ctdac/cy_ctdac.h **** * Configure the reference source for the CTDAC
 484:Generated_Source\PSoC6\pdl\drivers/peripheral/ctdac/cy_ctdac.h **** *
 485:Generated_Source\PSoC6\pdl\drivers/peripheral/ctdac/cy_ctdac.h **** * The CVD switch is closed when Vdda is the reference source.
 486:Generated_Source\PSoC6\pdl\drivers/peripheral/ctdac/cy_ctdac.h **** */
 487:Generated_Source\PSoC6\pdl\drivers/peripheral/ctdac/cy_ctdac.h **** typedef enum {
 488:Generated_Source\PSoC6\pdl\drivers/peripheral/ctdac/cy_ctdac.h ****     CY_CTDAC_REFSOURCE_EXTERNAL     = 0uL,        /**< Use an external source from Opamp1 of the CT
 489:Generated_Source\PSoC6\pdl\drivers/peripheral/ctdac/cy_ctdac.h ****     CY_CTDAC_REFSOURCE_VDDA         = 1uL         /**< Use Vdda as the reference. CVD switch is clo
 490:Generated_Source\PSoC6\pdl\drivers/peripheral/ctdac/cy_ctdac.h **** }cy_en_ctdac_ref_source_t;
 491:Generated_Source\PSoC6\pdl\drivers/peripheral/ctdac/cy_ctdac.h **** 
 492:Generated_Source\PSoC6\pdl\drivers/peripheral/ctdac/cy_ctdac.h **** /** Configure the output to be buffered or unbuffered
 493:Generated_Source\PSoC6\pdl\drivers/peripheral/ctdac/cy_ctdac.h **** *
 494:Generated_Source\PSoC6\pdl\drivers/peripheral/ctdac/cy_ctdac.h **** * The CO6 switch is closed when the output is unbuffered to Pin 6 of the CTDAC port.
 495:Generated_Source\PSoC6\pdl\drivers/peripheral/ctdac/cy_ctdac.h **** * See the device datasheet for the CTDAC port.
 496:Generated_Source\PSoC6\pdl\drivers/peripheral/ctdac/cy_ctdac.h **** */
 497:Generated_Source\PSoC6\pdl\drivers/peripheral/ctdac/cy_ctdac.h **** typedef enum {
 498:Generated_Source\PSoC6\pdl\drivers/peripheral/ctdac/cy_ctdac.h ****     CY_CTDAC_OUTPUT_BUFFERED        = 0uL,      /**< Buffer the output through the CTB OA0 */
 499:Generated_Source\PSoC6\pdl\drivers/peripheral/ctdac/cy_ctdac.h ****     CY_CTDAC_OUTPUT_UNBUFFERED      = 1uL       /**< Send output to a direct pin */
 500:Generated_Source\PSoC6\pdl\drivers/peripheral/ctdac/cy_ctdac.h **** }cy_en_ctdac_output_buffer_t;
 501:Generated_Source\PSoC6\pdl\drivers/peripheral/ctdac/cy_ctdac.h **** 
 502:Generated_Source\PSoC6\pdl\drivers/peripheral/ctdac/cy_ctdac.h **** /** Switch state, either open or closed, to be used in \ref Cy_CTDAC_SetAnalogSwitch. */
 503:Generated_Source\PSoC6\pdl\drivers/peripheral/ctdac/cy_ctdac.h **** typedef enum
 504:Generated_Source\PSoC6\pdl\drivers/peripheral/ctdac/cy_ctdac.h **** {
 505:Generated_Source\PSoC6\pdl\drivers/peripheral/ctdac/cy_ctdac.h ****     CY_CTDAC_SWITCH_OPEN      = 0uL,    /**< Open the switch */
 506:Generated_Source\PSoC6\pdl\drivers/peripheral/ctdac/cy_ctdac.h ****     CY_CTDAC_SWITCH_CLOSE     = 1uL     /**< Close the switch */
 507:Generated_Source\PSoC6\pdl\drivers/peripheral/ctdac/cy_ctdac.h **** }cy_en_ctdac_switch_state_t;
 508:Generated_Source\PSoC6\pdl\drivers/peripheral/ctdac/cy_ctdac.h **** 
 509:Generated_Source\PSoC6\pdl\drivers/peripheral/ctdac/cy_ctdac.h **** /** Switch mask to be used in \ref Cy_CTDAC_SetAnalogSwitch */
 510:Generated_Source\PSoC6\pdl\drivers/peripheral/ctdac/cy_ctdac.h **** typedef enum
 511:Generated_Source\PSoC6\pdl\drivers/peripheral/ctdac/cy_ctdac.h **** {
 512:Generated_Source\PSoC6\pdl\drivers/peripheral/ctdac/cy_ctdac.h ****     CY_CTDAC_SWITCH_CVD_MASK     = CTDAC_CTDAC_SW_CTDD_CVD_Msk,    /**< Switch for the reference so
 513:Generated_Source\PSoC6\pdl\drivers/peripheral/ctdac/cy_ctdac.h ****     CY_CTDAC_SWITCH_CO6_MASK     = CTDAC_CTDAC_SW_CTDO_CO6_Msk     /**< Switch for the output, buff
 514:Generated_Source\PSoC6\pdl\drivers/peripheral/ctdac/cy_ctdac.h **** }cy_en_ctdac_switches_t;
 515:Generated_Source\PSoC6\pdl\drivers/peripheral/ctdac/cy_ctdac.h **** 
 516:Generated_Source\PSoC6\pdl\drivers/peripheral/ctdac/cy_ctdac.h **** /** Return states for \ref Cy_CTDAC_Init, \ref Cy_CTDAC_DeInit, and \ref Cy_CTDAC_FastInit */
 517:Generated_Source\PSoC6\pdl\drivers/peripheral/ctdac/cy_ctdac.h **** typedef enum {
 518:Generated_Source\PSoC6\pdl\drivers/peripheral/ctdac/cy_ctdac.h ****     CY_CTDAC_SUCCESS    = 0x00uL,                                         /**< Initialization compl
 519:Generated_Source\PSoC6\pdl\drivers/peripheral/ctdac/cy_ctdac.h ****     CY_CTDAC_BAD_PARAM  = CY_CTDAC_ID | CY_PDL_STATUS_ERROR | 0x01uL      /**< Input pointers were 
 520:Generated_Source\PSoC6\pdl\drivers/peripheral/ctdac/cy_ctdac.h **** }cy_en_ctdac_status_t;
 521:Generated_Source\PSoC6\pdl\drivers/peripheral/ctdac/cy_ctdac.h **** 
 522:Generated_Source\PSoC6\pdl\drivers/peripheral/ctdac/cy_ctdac.h **** /** \} group_ctdac_enums */
 523:Generated_Source\PSoC6\pdl\drivers/peripheral/ctdac/cy_ctdac.h **** 
 524:Generated_Source\PSoC6\pdl\drivers/peripheral/ctdac/cy_ctdac.h **** /***************************************
 525:Generated_Source\PSoC6\pdl\drivers/peripheral/ctdac/cy_ctdac.h **** *       Configuration Structures
ARM GAS  C:\Users\oars0\AppData\Local\Temp\cc0aZXkW.s 			page 15


 526:Generated_Source\PSoC6\pdl\drivers/peripheral/ctdac/cy_ctdac.h **** ***************************************/
 527:Generated_Source\PSoC6\pdl\drivers/peripheral/ctdac/cy_ctdac.h **** 
 528:Generated_Source\PSoC6\pdl\drivers/peripheral/ctdac/cy_ctdac.h **** /**
 529:Generated_Source\PSoC6\pdl\drivers/peripheral/ctdac/cy_ctdac.h **** * \addtogroup group_ctdac_data_structures
 530:Generated_Source\PSoC6\pdl\drivers/peripheral/ctdac/cy_ctdac.h **** * \{
 531:Generated_Source\PSoC6\pdl\drivers/peripheral/ctdac/cy_ctdac.h **** */
 532:Generated_Source\PSoC6\pdl\drivers/peripheral/ctdac/cy_ctdac.h **** 
 533:Generated_Source\PSoC6\pdl\drivers/peripheral/ctdac/cy_ctdac.h **** /** Configuration structure to set up the entire CTDAC block to be used with \ref Cy_CTDAC_Init
 534:Generated_Source\PSoC6\pdl\drivers/peripheral/ctdac/cy_ctdac.h **** */
 535:Generated_Source\PSoC6\pdl\drivers/peripheral/ctdac/cy_ctdac.h **** typedef struct
 536:Generated_Source\PSoC6\pdl\drivers/peripheral/ctdac/cy_ctdac.h **** {
 537:Generated_Source\PSoC6\pdl\drivers/peripheral/ctdac/cy_ctdac.h ****     cy_en_ctdac_ref_source_t    refSource;          /**< Reference source: Vdda or externally throu
 538:Generated_Source\PSoC6\pdl\drivers/peripheral/ctdac/cy_ctdac.h ****     cy_en_ctdac_format_t        formatMode;         /**< Format of DAC value: signed or unsigned */
 539:Generated_Source\PSoC6\pdl\drivers/peripheral/ctdac/cy_ctdac.h ****     cy_en_ctdac_update_t        updateMode;         /**< Update mode: direct or buffered writes or 
 540:Generated_Source\PSoC6\pdl\drivers/peripheral/ctdac/cy_ctdac.h ****     cy_en_ctdac_deglitch_t      deglitchMode;       /**< Deglitch mode: disabled, buffered, unbuffe
 541:Generated_Source\PSoC6\pdl\drivers/peripheral/ctdac/cy_ctdac.h ****     cy_en_ctdac_output_mode_t   outputMode;         /**< Output mode: enabled (value or value + 1),
 542:Generated_Source\PSoC6\pdl\drivers/peripheral/ctdac/cy_ctdac.h ****     cy_en_ctdac_output_buffer_t outputBuffer;       /**< Output path: Buffered through Opamp0 of CT
 543:Generated_Source\PSoC6\pdl\drivers/peripheral/ctdac/cy_ctdac.h ****     cy_en_ctdac_deep_sleep_t    deepSleep;          /**< Enable or disable the CTDAC during Deep Sl
 544:Generated_Source\PSoC6\pdl\drivers/peripheral/ctdac/cy_ctdac.h ****     uint32_t                    deglitchCycles;     /**< Number of deglitch cycles from 0 to 63 */
 545:Generated_Source\PSoC6\pdl\drivers/peripheral/ctdac/cy_ctdac.h ****     int32_t                     value;              /**< Current DAC value */
 546:Generated_Source\PSoC6\pdl\drivers/peripheral/ctdac/cy_ctdac.h ****     int32_t                     nextValue;          /**< Next DAC value for double buffering */
 547:Generated_Source\PSoC6\pdl\drivers/peripheral/ctdac/cy_ctdac.h ****     bool                        enableInterrupt;    /**< If true, enable interrupt when next value 
 548:Generated_Source\PSoC6\pdl\drivers/peripheral/ctdac/cy_ctdac.h **** 
 549:Generated_Source\PSoC6\pdl\drivers/peripheral/ctdac/cy_ctdac.h ****     /* Configuring the clock */
 550:Generated_Source\PSoC6\pdl\drivers/peripheral/ctdac/cy_ctdac.h ****     bool                        configClock;        /**< Configure or ignore clock information */
 551:Generated_Source\PSoC6\pdl\drivers/peripheral/ctdac/cy_ctdac.h ****     cy_en_divider_types_t       dividerType;        /**< Specifies which type of divider to use. Ca
 552:Generated_Source\PSoC6\pdl\drivers/peripheral/ctdac/cy_ctdac.h ****     uint32_t                    dividerNum;         /**< Specifies which divider of the selected ty
 553:Generated_Source\PSoC6\pdl\drivers/peripheral/ctdac/cy_ctdac.h ****     uint32_t                    dividerIntValue;    /**< The integer divider value. The divider val
 554:Generated_Source\PSoC6\pdl\drivers/peripheral/ctdac/cy_ctdac.h ****     uint32_t                    dividerFracValue;   /**< The fractional divider value if using a fr
 555:Generated_Source\PSoC6\pdl\drivers/peripheral/ctdac/cy_ctdac.h **** }cy_stc_ctdac_config_t;
 556:Generated_Source\PSoC6\pdl\drivers/peripheral/ctdac/cy_ctdac.h **** 
 557:Generated_Source\PSoC6\pdl\drivers/peripheral/ctdac/cy_ctdac.h **** /** Configuration structure to quickly set up the CTDAC to be used with \ref Cy_CTDAC_FastInit
 558:Generated_Source\PSoC6\pdl\drivers/peripheral/ctdac/cy_ctdac.h **** * This structure provides a selection for the CTDAC reference source and output path.
 559:Generated_Source\PSoC6\pdl\drivers/peripheral/ctdac/cy_ctdac.h **** *
 560:Generated_Source\PSoC6\pdl\drivers/peripheral/ctdac/cy_ctdac.h **** * The other configuration options are set to:
 561:Generated_Source\PSoC6\pdl\drivers/peripheral/ctdac/cy_ctdac.h **** *   - .formatMode       = \ref CY_CTDAC_FORMAT_UNSIGNED
 562:Generated_Source\PSoC6\pdl\drivers/peripheral/ctdac/cy_ctdac.h **** *   - .updateMode       = \ref CY_CTDAC_UPDATE_BUFFERED_WRITE
 563:Generated_Source\PSoC6\pdl\drivers/peripheral/ctdac/cy_ctdac.h **** *   - .deglitchMode     = \ref CY_CTDAC_DEGLITCHMODE_NONE
 564:Generated_Source\PSoC6\pdl\drivers/peripheral/ctdac/cy_ctdac.h **** *   - .outputMode       = \ref CY_CTDAC_OUTPUT_VALUE
 565:Generated_Source\PSoC6\pdl\drivers/peripheral/ctdac/cy_ctdac.h **** *   - .deepSleep        = \ref CY_CTDAC_DEEPSLEEP_DISABLE
 566:Generated_Source\PSoC6\pdl\drivers/peripheral/ctdac/cy_ctdac.h **** *   - .deglitchCycles   = \ref CY_CTDAC_DEINIT
 567:Generated_Source\PSoC6\pdl\drivers/peripheral/ctdac/cy_ctdac.h **** *   - .value            = \ref CY_CTDAC_UNSIGNED_MID_CODE_VALUE
 568:Generated_Source\PSoC6\pdl\drivers/peripheral/ctdac/cy_ctdac.h **** *   - .nextValue        = \ref CY_CTDAC_UNSIGNED_MID_CODE_VALUE
 569:Generated_Source\PSoC6\pdl\drivers/peripheral/ctdac/cy_ctdac.h **** *   - .enableInterrupt  = true
 570:Generated_Source\PSoC6\pdl\drivers/peripheral/ctdac/cy_ctdac.h **** *   - .configClock      = true
 571:Generated_Source\PSoC6\pdl\drivers/peripheral/ctdac/cy_ctdac.h **** *   - .dividerType      = \ref CY_CTDAC_FAST_CLKCFG_TYPE
 572:Generated_Source\PSoC6\pdl\drivers/peripheral/ctdac/cy_ctdac.h **** *   - .dividerNum       = \ref CY_CTDAC_FAST_CLKCFG_NUM
 573:Generated_Source\PSoC6\pdl\drivers/peripheral/ctdac/cy_ctdac.h **** *   - .dividerInitValue = \ref CY_CTDAC_FAST_CLKCFG_DIV
 574:Generated_Source\PSoC6\pdl\drivers/peripheral/ctdac/cy_ctdac.h **** *   - .dividerFracValue = \ref CY_CTDAC_DEINIT
 575:Generated_Source\PSoC6\pdl\drivers/peripheral/ctdac/cy_ctdac.h **** */
 576:Generated_Source\PSoC6\pdl\drivers/peripheral/ctdac/cy_ctdac.h **** typedef struct
 577:Generated_Source\PSoC6\pdl\drivers/peripheral/ctdac/cy_ctdac.h **** {
 578:Generated_Source\PSoC6\pdl\drivers/peripheral/ctdac/cy_ctdac.h ****     cy_en_ctdac_ref_source_t    refSource;          /**< Reference source: Vdda or externally throu
 579:Generated_Source\PSoC6\pdl\drivers/peripheral/ctdac/cy_ctdac.h ****     cy_en_ctdac_output_buffer_t outputBuffer;       /**< Output path: Buffered through Opamp0 of CT
 580:Generated_Source\PSoC6\pdl\drivers/peripheral/ctdac/cy_ctdac.h **** }cy_stc_ctdac_fast_config_t;
 581:Generated_Source\PSoC6\pdl\drivers/peripheral/ctdac/cy_ctdac.h **** 
 582:Generated_Source\PSoC6\pdl\drivers/peripheral/ctdac/cy_ctdac.h **** /** CTDAC context structure.
ARM GAS  C:\Users\oars0\AppData\Local\Temp\cc0aZXkW.s 			page 16


 583:Generated_Source\PSoC6\pdl\drivers/peripheral/ctdac/cy_ctdac.h **** * All fields for the context structure are internal. Firmware never reads or
 584:Generated_Source\PSoC6\pdl\drivers/peripheral/ctdac/cy_ctdac.h **** * writes these values. Firmware allocates the structure and provides the
 585:Generated_Source\PSoC6\pdl\drivers/peripheral/ctdac/cy_ctdac.h **** * address of the structure when registering the \ref Cy_CTDAC_DeepSleepCallback.
 586:Generated_Source\PSoC6\pdl\drivers/peripheral/ctdac/cy_ctdac.h **** * Firmware must ensure that the defined instance of this structure remains in scope
 587:Generated_Source\PSoC6\pdl\drivers/peripheral/ctdac/cy_ctdac.h **** * while the drive is in use.
 588:Generated_Source\PSoC6\pdl\drivers/peripheral/ctdac/cy_ctdac.h **** */
 589:Generated_Source\PSoC6\pdl\drivers/peripheral/ctdac/cy_ctdac.h **** typedef struct
 590:Generated_Source\PSoC6\pdl\drivers/peripheral/ctdac/cy_ctdac.h **** {
 591:Generated_Source\PSoC6\pdl\drivers/peripheral/ctdac/cy_ctdac.h ****     uint32_t deglitchModeBeforeSleep;   /**< Tracks the state of the deglitch mode before sleep so 
 592:Generated_Source\PSoC6\pdl\drivers/peripheral/ctdac/cy_ctdac.h **** }cy_stc_ctdac_context_t;
 593:Generated_Source\PSoC6\pdl\drivers/peripheral/ctdac/cy_ctdac.h **** 
 594:Generated_Source\PSoC6\pdl\drivers/peripheral/ctdac/cy_ctdac.h **** /** \} group_ctdac_data_structures */
 595:Generated_Source\PSoC6\pdl\drivers/peripheral/ctdac/cy_ctdac.h **** 
 596:Generated_Source\PSoC6\pdl\drivers/peripheral/ctdac/cy_ctdac.h **** /** \addtogroup group_ctdac_globals
 597:Generated_Source\PSoC6\pdl\drivers/peripheral/ctdac/cy_ctdac.h **** * \{
 598:Generated_Source\PSoC6\pdl\drivers/peripheral/ctdac/cy_ctdac.h **** */
 599:Generated_Source\PSoC6\pdl\drivers/peripheral/ctdac/cy_ctdac.h **** /***************************************
 600:Generated_Source\PSoC6\pdl\drivers/peripheral/ctdac/cy_ctdac.h **** *        Global Variables
 601:Generated_Source\PSoC6\pdl\drivers/peripheral/ctdac/cy_ctdac.h **** ***************************************/
 602:Generated_Source\PSoC6\pdl\drivers/peripheral/ctdac/cy_ctdac.h **** 
 603:Generated_Source\PSoC6\pdl\drivers/peripheral/ctdac/cy_ctdac.h **** /** Configure CTDAC to use Vdda reference and output unbuffered. See \ref Cy_CTDAC_FastInit. */
 604:Generated_Source\PSoC6\pdl\drivers/peripheral/ctdac/cy_ctdac.h **** extern const cy_stc_ctdac_fast_config_t Cy_CTDAC_Fast_VddaRef_UnbufferedOut;
 605:Generated_Source\PSoC6\pdl\drivers/peripheral/ctdac/cy_ctdac.h **** 
 606:Generated_Source\PSoC6\pdl\drivers/peripheral/ctdac/cy_ctdac.h **** /** Configure CTDAC to use Vdda reference and output buffered through Opamp0 of CTB. See \ref Cy_CT
 607:Generated_Source\PSoC6\pdl\drivers/peripheral/ctdac/cy_ctdac.h **** *
 608:Generated_Source\PSoC6\pdl\drivers/peripheral/ctdac/cy_ctdac.h **** * To quickly configure Opamp0, call with \ref Cy_CTB_FastInit
 609:Generated_Source\PSoC6\pdl\drivers/peripheral/ctdac/cy_ctdac.h **** * with \ref Cy_CTB_Fast_Opamp0_Vdac_Out or \ref Cy_CTB_Fast_Opamp0_Vdac_Out_SH.
 610:Generated_Source\PSoC6\pdl\drivers/peripheral/ctdac/cy_ctdac.h **** */
 611:Generated_Source\PSoC6\pdl\drivers/peripheral/ctdac/cy_ctdac.h **** extern const cy_stc_ctdac_fast_config_t Cy_CTDAC_Fast_VddaRef_BufferedOut;
 612:Generated_Source\PSoC6\pdl\drivers/peripheral/ctdac/cy_ctdac.h **** 
 613:Generated_Source\PSoC6\pdl\drivers/peripheral/ctdac/cy_ctdac.h **** /** Configure CTDAC to use a buffered reference from Opamp1 of CTB
 614:Generated_Source\PSoC6\pdl\drivers/peripheral/ctdac/cy_ctdac.h **** * and output unbuffered. See \ref Cy_CTDAC_FastInit.
 615:Generated_Source\PSoC6\pdl\drivers/peripheral/ctdac/cy_ctdac.h **** *
 616:Generated_Source\PSoC6\pdl\drivers/peripheral/ctdac/cy_ctdac.h **** * To use the reference from the Analog Reference (AREF),
 617:Generated_Source\PSoC6\pdl\drivers/peripheral/ctdac/cy_ctdac.h **** * call \ref Cy_CTB_FastInit with \ref Cy_CTB_Fast_Opamp1_Vdac_Ref_Aref.
 618:Generated_Source\PSoC6\pdl\drivers/peripheral/ctdac/cy_ctdac.h **** *
 619:Generated_Source\PSoC6\pdl\drivers/peripheral/ctdac/cy_ctdac.h **** * To use an external reference from a GPIO,
 620:Generated_Source\PSoC6\pdl\drivers/peripheral/ctdac/cy_ctdac.h **** * call \ref Cy_CTB_FastInit with \ref Cy_CTB_Fast_Opamp1_Vdac_Ref_Pin5
 621:Generated_Source\PSoC6\pdl\drivers/peripheral/ctdac/cy_ctdac.h **** * for Pin 5 on the CTB port.
 622:Generated_Source\PSoC6\pdl\drivers/peripheral/ctdac/cy_ctdac.h **** */
 623:Generated_Source\PSoC6\pdl\drivers/peripheral/ctdac/cy_ctdac.h **** extern const cy_stc_ctdac_fast_config_t Cy_CTDAC_Fast_OA1Ref_UnbufferedOut;
 624:Generated_Source\PSoC6\pdl\drivers/peripheral/ctdac/cy_ctdac.h **** 
 625:Generated_Source\PSoC6\pdl\drivers/peripheral/ctdac/cy_ctdac.h **** /** Configure CTDAC to use a buffered reference from Opamp1 of CTB
 626:Generated_Source\PSoC6\pdl\drivers/peripheral/ctdac/cy_ctdac.h **** * and output buffered through Opamp0 of CTB. See \ref Cy_CTDAC_FastInit.
 627:Generated_Source\PSoC6\pdl\drivers/peripheral/ctdac/cy_ctdac.h **** *
 628:Generated_Source\PSoC6\pdl\drivers/peripheral/ctdac/cy_ctdac.h **** * To quickly configure Opamp0, call with \ref Cy_CTB_FastInit
 629:Generated_Source\PSoC6\pdl\drivers/peripheral/ctdac/cy_ctdac.h **** * with \ref Cy_CTB_Fast_Opamp0_Vdac_Out or \ref Cy_CTB_Fast_Opamp0_Vdac_Out_SH.
 630:Generated_Source\PSoC6\pdl\drivers/peripheral/ctdac/cy_ctdac.h **** *
 631:Generated_Source\PSoC6\pdl\drivers/peripheral/ctdac/cy_ctdac.h **** * To use the reference from the Analog Reference (AREF),
 632:Generated_Source\PSoC6\pdl\drivers/peripheral/ctdac/cy_ctdac.h **** * call \ref Cy_CTB_FastInit with \ref Cy_CTB_Fast_Opamp1_Vdac_Ref_Aref.
 633:Generated_Source\PSoC6\pdl\drivers/peripheral/ctdac/cy_ctdac.h **** *
 634:Generated_Source\PSoC6\pdl\drivers/peripheral/ctdac/cy_ctdac.h **** * To use an external reference from a GPIO,
 635:Generated_Source\PSoC6\pdl\drivers/peripheral/ctdac/cy_ctdac.h **** * call \ref Cy_CTB_FastInit with \ref Cy_CTB_Fast_Opamp1_Vdac_Ref_Pin5
 636:Generated_Source\PSoC6\pdl\drivers/peripheral/ctdac/cy_ctdac.h **** * for Pins 5 on the CTB port.
 637:Generated_Source\PSoC6\pdl\drivers/peripheral/ctdac/cy_ctdac.h **** */
 638:Generated_Source\PSoC6\pdl\drivers/peripheral/ctdac/cy_ctdac.h **** extern const cy_stc_ctdac_fast_config_t Cy_CTDAC_Fast_OA1Ref_BufferedOut;
 639:Generated_Source\PSoC6\pdl\drivers/peripheral/ctdac/cy_ctdac.h **** 
ARM GAS  C:\Users\oars0\AppData\Local\Temp\cc0aZXkW.s 			page 17


 640:Generated_Source\PSoC6\pdl\drivers/peripheral/ctdac/cy_ctdac.h **** /** \} group_ctdac_globals */
 641:Generated_Source\PSoC6\pdl\drivers/peripheral/ctdac/cy_ctdac.h **** 
 642:Generated_Source\PSoC6\pdl\drivers/peripheral/ctdac/cy_ctdac.h **** /***************************************
 643:Generated_Source\PSoC6\pdl\drivers/peripheral/ctdac/cy_ctdac.h **** *        Function Prototypes
 644:Generated_Source\PSoC6\pdl\drivers/peripheral/ctdac/cy_ctdac.h **** ***************************************/
 645:Generated_Source\PSoC6\pdl\drivers/peripheral/ctdac/cy_ctdac.h **** 
 646:Generated_Source\PSoC6\pdl\drivers/peripheral/ctdac/cy_ctdac.h **** /**
 647:Generated_Source\PSoC6\pdl\drivers/peripheral/ctdac/cy_ctdac.h **** * \addtogroup group_ctdac_functions
 648:Generated_Source\PSoC6\pdl\drivers/peripheral/ctdac/cy_ctdac.h **** * \{
 649:Generated_Source\PSoC6\pdl\drivers/peripheral/ctdac/cy_ctdac.h **** */
 650:Generated_Source\PSoC6\pdl\drivers/peripheral/ctdac/cy_ctdac.h **** 
 651:Generated_Source\PSoC6\pdl\drivers/peripheral/ctdac/cy_ctdac.h **** /**
 652:Generated_Source\PSoC6\pdl\drivers/peripheral/ctdac/cy_ctdac.h **** * \addtogroup group_ctdac_functions_init
 653:Generated_Source\PSoC6\pdl\drivers/peripheral/ctdac/cy_ctdac.h **** * This set of functions are for initializing, enabling, and disabling the CTDAC.
 654:Generated_Source\PSoC6\pdl\drivers/peripheral/ctdac/cy_ctdac.h **** * \{
 655:Generated_Source\PSoC6\pdl\drivers/peripheral/ctdac/cy_ctdac.h **** */
 656:Generated_Source\PSoC6\pdl\drivers/peripheral/ctdac/cy_ctdac.h **** cy_en_ctdac_status_t Cy_CTDAC_Init(CTDAC_Type *base, const cy_stc_ctdac_config_t *config);
 657:Generated_Source\PSoC6\pdl\drivers/peripheral/ctdac/cy_ctdac.h **** cy_en_ctdac_status_t Cy_CTDAC_DeInit(CTDAC_Type *base, bool deInitRouting);
 658:Generated_Source\PSoC6\pdl\drivers/peripheral/ctdac/cy_ctdac.h **** cy_en_ctdac_status_t Cy_CTDAC_FastInit(CTDAC_Type *base, const cy_stc_ctdac_fast_config_t *config);
 659:Generated_Source\PSoC6\pdl\drivers/peripheral/ctdac/cy_ctdac.h **** __STATIC_INLINE void Cy_CTDAC_Enable(CTDAC_Type *base);
 660:Generated_Source\PSoC6\pdl\drivers/peripheral/ctdac/cy_ctdac.h **** __STATIC_INLINE void Cy_CTDAC_Disable(CTDAC_Type *base);
 661:Generated_Source\PSoC6\pdl\drivers/peripheral/ctdac/cy_ctdac.h **** /** \} */
 662:Generated_Source\PSoC6\pdl\drivers/peripheral/ctdac/cy_ctdac.h **** 
 663:Generated_Source\PSoC6\pdl\drivers/peripheral/ctdac/cy_ctdac.h **** /**
 664:Generated_Source\PSoC6\pdl\drivers/peripheral/ctdac/cy_ctdac.h **** * \addtogroup group_ctdac_functions_basic
 665:Generated_Source\PSoC6\pdl\drivers/peripheral/ctdac/cy_ctdac.h **** * This set of functions are for configuring basic usage of the CTDAC.
 666:Generated_Source\PSoC6\pdl\drivers/peripheral/ctdac/cy_ctdac.h **** * \{
 667:Generated_Source\PSoC6\pdl\drivers/peripheral/ctdac/cy_ctdac.h **** */
 668:Generated_Source\PSoC6\pdl\drivers/peripheral/ctdac/cy_ctdac.h **** __STATIC_INLINE void Cy_CTDAC_SetValue(CTDAC_Type *base, int32_t value);
 669:Generated_Source\PSoC6\pdl\drivers/peripheral/ctdac/cy_ctdac.h **** __STATIC_INLINE void Cy_CTDAC_SetValueBuffered(CTDAC_Type *base, int32_t value);
 670:Generated_Source\PSoC6\pdl\drivers/peripheral/ctdac/cy_ctdac.h **** void Cy_CTDAC_SetSignMode(CTDAC_Type *base, cy_en_ctdac_format_t formatMode);
 671:Generated_Source\PSoC6\pdl\drivers/peripheral/ctdac/cy_ctdac.h **** void Cy_CTDAC_SetDeepSleepMode(CTDAC_Type *base, cy_en_ctdac_deep_sleep_t deepSleep);
 672:Generated_Source\PSoC6\pdl\drivers/peripheral/ctdac/cy_ctdac.h **** void Cy_CTDAC_SetOutputMode(CTDAC_Type *base, cy_en_ctdac_output_mode_t outputMode);
 673:Generated_Source\PSoC6\pdl\drivers/peripheral/ctdac/cy_ctdac.h **** void Cy_CTDAC_SetDeglitchMode(CTDAC_Type *base, cy_en_ctdac_deglitch_t deglitchMode);
 674:Generated_Source\PSoC6\pdl\drivers/peripheral/ctdac/cy_ctdac.h **** void Cy_CTDAC_SetDeglitchCycles(CTDAC_Type *base, uint32_t deglitchCycles);
 675:Generated_Source\PSoC6\pdl\drivers/peripheral/ctdac/cy_ctdac.h **** void Cy_CTDAC_SetRef(CTDAC_Type *base, cy_en_ctdac_ref_source_t refSource);
 676:Generated_Source\PSoC6\pdl\drivers/peripheral/ctdac/cy_ctdac.h **** /** \} */
 677:Generated_Source\PSoC6\pdl\drivers/peripheral/ctdac/cy_ctdac.h **** 
 678:Generated_Source\PSoC6\pdl\drivers/peripheral/ctdac/cy_ctdac.h **** /** \addtogroup group_ctdac_functions_switches
 679:Generated_Source\PSoC6\pdl\drivers/peripheral/ctdac/cy_ctdac.h **** *
 680:Generated_Source\PSoC6\pdl\drivers/peripheral/ctdac/cy_ctdac.h **** * This set of functions is for controlling the two CTDAC analog switches, CVD, and CO6.
 681:Generated_Source\PSoC6\pdl\drivers/peripheral/ctdac/cy_ctdac.h **** * These are advanced functions. The switches will be managed by the reference
 682:Generated_Source\PSoC6\pdl\drivers/peripheral/ctdac/cy_ctdac.h **** * source and output mode selections when initializing the hardware.
 683:Generated_Source\PSoC6\pdl\drivers/peripheral/ctdac/cy_ctdac.h **** * \{
 684:Generated_Source\PSoC6\pdl\drivers/peripheral/ctdac/cy_ctdac.h **** */
 685:Generated_Source\PSoC6\pdl\drivers/peripheral/ctdac/cy_ctdac.h **** void Cy_CTDAC_SetAnalogSwitch(CTDAC_Type *base, uint32_t switchMask, cy_en_ctdac_switch_state_t sta
 686:Generated_Source\PSoC6\pdl\drivers/peripheral/ctdac/cy_ctdac.h **** __STATIC_INLINE uint32_t Cy_CTDAC_GetAnalogSwitch(const CTDAC_Type *base);
 687:Generated_Source\PSoC6\pdl\drivers/peripheral/ctdac/cy_ctdac.h **** __STATIC_INLINE void Cy_CTDAC_SetSwitchCO6(CTDAC_Type *base, cy_en_ctdac_switch_state_t state);
 688:Generated_Source\PSoC6\pdl\drivers/peripheral/ctdac/cy_ctdac.h **** __STATIC_INLINE void Cy_CTDAC_OpenAllSwitches(CTDAC_Type *base);
 689:Generated_Source\PSoC6\pdl\drivers/peripheral/ctdac/cy_ctdac.h **** /** \} */
 690:Generated_Source\PSoC6\pdl\drivers/peripheral/ctdac/cy_ctdac.h **** 
 691:Generated_Source\PSoC6\pdl\drivers/peripheral/ctdac/cy_ctdac.h **** /** \addtogroup group_ctdac_functions_interrupts
 692:Generated_Source\PSoC6\pdl\drivers/peripheral/ctdac/cy_ctdac.h **** * This set of functions is related to the CTDAC interrupt
 693:Generated_Source\PSoC6\pdl\drivers/peripheral/ctdac/cy_ctdac.h **** * \{
 694:Generated_Source\PSoC6\pdl\drivers/peripheral/ctdac/cy_ctdac.h **** */
 695:Generated_Source\PSoC6\pdl\drivers/peripheral/ctdac/cy_ctdac.h **** __STATIC_INLINE uint32_t Cy_CTDAC_GetInterruptStatus(const CTDAC_Type *base);
 696:Generated_Source\PSoC6\pdl\drivers/peripheral/ctdac/cy_ctdac.h **** __STATIC_INLINE void Cy_CTDAC_ClearInterrupt(CTDAC_Type *base);
ARM GAS  C:\Users\oars0\AppData\Local\Temp\cc0aZXkW.s 			page 18


 697:Generated_Source\PSoC6\pdl\drivers/peripheral/ctdac/cy_ctdac.h **** __STATIC_INLINE void Cy_CTDAC_SetInterrupt(CTDAC_Type *base);
 698:Generated_Source\PSoC6\pdl\drivers/peripheral/ctdac/cy_ctdac.h **** __STATIC_INLINE void Cy_CTDAC_SetInterruptMask(CTDAC_Type *base, uint32_t mask);
 699:Generated_Source\PSoC6\pdl\drivers/peripheral/ctdac/cy_ctdac.h **** __STATIC_INLINE uint32_t Cy_CTDAC_GetInterruptMask(const CTDAC_Type *base);
 700:Generated_Source\PSoC6\pdl\drivers/peripheral/ctdac/cy_ctdac.h **** __STATIC_INLINE uint32_t Cy_CTDAC_GetInterruptStatusMasked(const CTDAC_Type *base);
 701:Generated_Source\PSoC6\pdl\drivers/peripheral/ctdac/cy_ctdac.h **** /** \} */
 702:Generated_Source\PSoC6\pdl\drivers/peripheral/ctdac/cy_ctdac.h **** 
 703:Generated_Source\PSoC6\pdl\drivers/peripheral/ctdac/cy_ctdac.h **** /** \addtogroup group_ctdac_functions_syspm_callback
 704:Generated_Source\PSoC6\pdl\drivers/peripheral/ctdac/cy_ctdac.h **** * This driver supports one SysPm callback for Deep Sleep transition.
 705:Generated_Source\PSoC6\pdl\drivers/peripheral/ctdac/cy_ctdac.h **** * \{
 706:Generated_Source\PSoC6\pdl\drivers/peripheral/ctdac/cy_ctdac.h **** */
 707:Generated_Source\PSoC6\pdl\drivers/peripheral/ctdac/cy_ctdac.h **** cy_en_syspm_status_t Cy_CTDAC_DeepSleepCallback(cy_stc_syspm_callback_params_t *callbackParams, cy_
 708:Generated_Source\PSoC6\pdl\drivers/peripheral/ctdac/cy_ctdac.h **** /** \} */
 709:Generated_Source\PSoC6\pdl\drivers/peripheral/ctdac/cy_ctdac.h **** 
 710:Generated_Source\PSoC6\pdl\drivers/peripheral/ctdac/cy_ctdac.h **** /**
 711:Generated_Source\PSoC6\pdl\drivers/peripheral/ctdac/cy_ctdac.h **** * \addtogroup group_ctdac_functions_init
 712:Generated_Source\PSoC6\pdl\drivers/peripheral/ctdac/cy_ctdac.h **** * \{
 713:Generated_Source\PSoC6\pdl\drivers/peripheral/ctdac/cy_ctdac.h **** */
 714:Generated_Source\PSoC6\pdl\drivers/peripheral/ctdac/cy_ctdac.h **** /*******************************************************************************
 715:Generated_Source\PSoC6\pdl\drivers/peripheral/ctdac/cy_ctdac.h **** * Function Name: Cy_CTDAC_Enable
 716:Generated_Source\PSoC6\pdl\drivers/peripheral/ctdac/cy_ctdac.h **** ****************************************************************************//**
 717:Generated_Source\PSoC6\pdl\drivers/peripheral/ctdac/cy_ctdac.h **** *
 718:Generated_Source\PSoC6\pdl\drivers/peripheral/ctdac/cy_ctdac.h **** * Power up the CTDAC hardware block.
 719:Generated_Source\PSoC6\pdl\drivers/peripheral/ctdac/cy_ctdac.h **** *
 720:Generated_Source\PSoC6\pdl\drivers/peripheral/ctdac/cy_ctdac.h **** * \param base
 721:Generated_Source\PSoC6\pdl\drivers/peripheral/ctdac/cy_ctdac.h **** * Pointer to structure describing registers
 722:Generated_Source\PSoC6\pdl\drivers/peripheral/ctdac/cy_ctdac.h **** *
 723:Generated_Source\PSoC6\pdl\drivers/peripheral/ctdac/cy_ctdac.h **** * \return None
 724:Generated_Source\PSoC6\pdl\drivers/peripheral/ctdac/cy_ctdac.h **** *
 725:Generated_Source\PSoC6\pdl\drivers/peripheral/ctdac/cy_ctdac.h **** *******************************************************************************/
 726:Generated_Source\PSoC6\pdl\drivers/peripheral/ctdac/cy_ctdac.h **** __STATIC_INLINE void Cy_CTDAC_Enable(CTDAC_Type *base)
 727:Generated_Source\PSoC6\pdl\drivers/peripheral/ctdac/cy_ctdac.h **** {
 728:Generated_Source\PSoC6\pdl\drivers/peripheral/ctdac/cy_ctdac.h ****     CTDAC_CTDAC_CTRL(base) |= CTDAC_CTDAC_CTRL_ENABLED_Msk;
 729:Generated_Source\PSoC6\pdl\drivers/peripheral/ctdac/cy_ctdac.h **** }
 730:Generated_Source\PSoC6\pdl\drivers/peripheral/ctdac/cy_ctdac.h **** 
 731:Generated_Source\PSoC6\pdl\drivers/peripheral/ctdac/cy_ctdac.h **** /*******************************************************************************
 732:Generated_Source\PSoC6\pdl\drivers/peripheral/ctdac/cy_ctdac.h **** * Function Name: Cy_CTDAC_Disable
 733:Generated_Source\PSoC6\pdl\drivers/peripheral/ctdac/cy_ctdac.h **** ****************************************************************************//**
 734:Generated_Source\PSoC6\pdl\drivers/peripheral/ctdac/cy_ctdac.h **** *
 735:Generated_Source\PSoC6\pdl\drivers/peripheral/ctdac/cy_ctdac.h **** * Turn off the hardware block.
 736:Generated_Source\PSoC6\pdl\drivers/peripheral/ctdac/cy_ctdac.h **** *
 737:Generated_Source\PSoC6\pdl\drivers/peripheral/ctdac/cy_ctdac.h **** * \param base
 738:Generated_Source\PSoC6\pdl\drivers/peripheral/ctdac/cy_ctdac.h **** * Pointer to structure describing registers
 739:Generated_Source\PSoC6\pdl\drivers/peripheral/ctdac/cy_ctdac.h **** *
 740:Generated_Source\PSoC6\pdl\drivers/peripheral/ctdac/cy_ctdac.h **** * \return None
 741:Generated_Source\PSoC6\pdl\drivers/peripheral/ctdac/cy_ctdac.h **** *
 742:Generated_Source\PSoC6\pdl\drivers/peripheral/ctdac/cy_ctdac.h **** *******************************************************************************/
 743:Generated_Source\PSoC6\pdl\drivers/peripheral/ctdac/cy_ctdac.h **** __STATIC_INLINE void Cy_CTDAC_Disable(CTDAC_Type *base)
 744:Generated_Source\PSoC6\pdl\drivers/peripheral/ctdac/cy_ctdac.h **** {
 745:Generated_Source\PSoC6\pdl\drivers/peripheral/ctdac/cy_ctdac.h ****     CTDAC_CTDAC_CTRL(base) &= ~CTDAC_CTDAC_CTRL_ENABLED_Msk;
 746:Generated_Source\PSoC6\pdl\drivers/peripheral/ctdac/cy_ctdac.h **** }
 747:Generated_Source\PSoC6\pdl\drivers/peripheral/ctdac/cy_ctdac.h **** /** \} */
 748:Generated_Source\PSoC6\pdl\drivers/peripheral/ctdac/cy_ctdac.h **** 
 749:Generated_Source\PSoC6\pdl\drivers/peripheral/ctdac/cy_ctdac.h **** /**
 750:Generated_Source\PSoC6\pdl\drivers/peripheral/ctdac/cy_ctdac.h **** * \addtogroup group_ctdac_functions_basic
 751:Generated_Source\PSoC6\pdl\drivers/peripheral/ctdac/cy_ctdac.h **** * \{
 752:Generated_Source\PSoC6\pdl\drivers/peripheral/ctdac/cy_ctdac.h **** */
 753:Generated_Source\PSoC6\pdl\drivers/peripheral/ctdac/cy_ctdac.h **** /*******************************************************************************
ARM GAS  C:\Users\oars0\AppData\Local\Temp\cc0aZXkW.s 			page 19


 754:Generated_Source\PSoC6\pdl\drivers/peripheral/ctdac/cy_ctdac.h **** * Function Name: Cy_CTDAC_SetValue
 755:Generated_Source\PSoC6\pdl\drivers/peripheral/ctdac/cy_ctdac.h **** ****************************************************************************//**
 756:Generated_Source\PSoC6\pdl\drivers/peripheral/ctdac/cy_ctdac.h **** *
 757:Generated_Source\PSoC6\pdl\drivers/peripheral/ctdac/cy_ctdac.h **** * Set the CTDAC_VAL register (DAC hardware is
 758:Generated_Source\PSoC6\pdl\drivers/peripheral/ctdac/cy_ctdac.h **** * updated on the next PeriClk cycle).  Only the least significant 12 bits
 759:Generated_Source\PSoC6\pdl\drivers/peripheral/ctdac/cy_ctdac.h **** * have an effect. Sign extension of negative values is unnecessary and is
 760:Generated_Source\PSoC6\pdl\drivers/peripheral/ctdac/cy_ctdac.h **** * ignored by the hardware. The way in which the CTDAC interprets the 12-bit
 761:Generated_Source\PSoC6\pdl\drivers/peripheral/ctdac/cy_ctdac.h **** * data is controlled by \ref Cy_CTDAC_SetSignMode.
 762:Generated_Source\PSoC6\pdl\drivers/peripheral/ctdac/cy_ctdac.h **** *
 763:Generated_Source\PSoC6\pdl\drivers/peripheral/ctdac/cy_ctdac.h **** * \note
 764:Generated_Source\PSoC6\pdl\drivers/peripheral/ctdac/cy_ctdac.h **** * Call this function only when the update mode is set to \ref group_ctdac_updatemode_direct_write.
 765:Generated_Source\PSoC6\pdl\drivers/peripheral/ctdac/cy_ctdac.h **** * Calling this function for any other update mode will not have the intended effect.
 766:Generated_Source\PSoC6\pdl\drivers/peripheral/ctdac/cy_ctdac.h **** *
 767:Generated_Source\PSoC6\pdl\drivers/peripheral/ctdac/cy_ctdac.h **** * \param base
 768:Generated_Source\PSoC6\pdl\drivers/peripheral/ctdac/cy_ctdac.h **** * Pointer to structure describing registers
 769:Generated_Source\PSoC6\pdl\drivers/peripheral/ctdac/cy_ctdac.h **** *
 770:Generated_Source\PSoC6\pdl\drivers/peripheral/ctdac/cy_ctdac.h **** * \param value
 771:Generated_Source\PSoC6\pdl\drivers/peripheral/ctdac/cy_ctdac.h **** * Value to write into the CTDAC_VAL register
 772:Generated_Source\PSoC6\pdl\drivers/peripheral/ctdac/cy_ctdac.h **** *
 773:Generated_Source\PSoC6\pdl\drivers/peripheral/ctdac/cy_ctdac.h **** * \return None
 774:Generated_Source\PSoC6\pdl\drivers/peripheral/ctdac/cy_ctdac.h **** *
 775:Generated_Source\PSoC6\pdl\drivers/peripheral/ctdac/cy_ctdac.h **** * \funcusage
 776:Generated_Source\PSoC6\pdl\drivers/peripheral/ctdac/cy_ctdac.h **** *
 777:Generated_Source\PSoC6\pdl\drivers/peripheral/ctdac/cy_ctdac.h **** * \snippet ctdac_sut_01.cydsn/main_cm4.c CTDAC_SNIPPET_SET_VALUE
 778:Generated_Source\PSoC6\pdl\drivers/peripheral/ctdac/cy_ctdac.h **** *
 779:Generated_Source\PSoC6\pdl\drivers/peripheral/ctdac/cy_ctdac.h **** *******************************************************************************/
 780:Generated_Source\PSoC6\pdl\drivers/peripheral/ctdac/cy_ctdac.h **** __STATIC_INLINE void Cy_CTDAC_SetValue(CTDAC_Type *base, int32_t value)
 781:Generated_Source\PSoC6\pdl\drivers/peripheral/ctdac/cy_ctdac.h **** {
 782:Generated_Source\PSoC6\pdl\drivers/peripheral/ctdac/cy_ctdac.h ****     CTDAC_CTDAC_VAL(base) = (((uint32_t)value) << CTDAC_CTDAC_VAL_VALUE_Pos) & CTDAC_CTDAC_VAL_VALU
 783:Generated_Source\PSoC6\pdl\drivers/peripheral/ctdac/cy_ctdac.h **** }
 784:Generated_Source\PSoC6\pdl\drivers/peripheral/ctdac/cy_ctdac.h **** 
 785:Generated_Source\PSoC6\pdl\drivers/peripheral/ctdac/cy_ctdac.h **** /*******************************************************************************
 786:Generated_Source\PSoC6\pdl\drivers/peripheral/ctdac/cy_ctdac.h **** * Function Name: Cy_CTDAC_SetValueBuffered
 787:Generated_Source\PSoC6\pdl\drivers/peripheral/ctdac/cy_ctdac.h **** ****************************************************************************//**
 788:Generated_Source\PSoC6\pdl\drivers/peripheral/ctdac/cy_ctdac.h **** *
 789:Generated_Source\PSoC6\pdl\drivers/peripheral/ctdac/cy_ctdac.h **** * Set the CTDAC_VAL_NEXT register. The value is transferred
 790:Generated_Source\PSoC6\pdl\drivers/peripheral/ctdac/cy_ctdac.h **** * to the CTDAC_VAL register on the next edge of the CTDAC clock.
 791:Generated_Source\PSoC6\pdl\drivers/peripheral/ctdac/cy_ctdac.h **** * Only the least significant 12 bits
 792:Generated_Source\PSoC6\pdl\drivers/peripheral/ctdac/cy_ctdac.h **** * have an effect. Sign extension of negative values is unnecessary and is
 793:Generated_Source\PSoC6\pdl\drivers/peripheral/ctdac/cy_ctdac.h **** * ignored by the hardware. The way in which the CTDAC interprets the 12-bit
 794:Generated_Source\PSoC6\pdl\drivers/peripheral/ctdac/cy_ctdac.h **** * data is controlled by \ref Cy_CTDAC_SetSignMode.
 795:Generated_Source\PSoC6\pdl\drivers/peripheral/ctdac/cy_ctdac.h **** *
 796:Generated_Source\PSoC6\pdl\drivers/peripheral/ctdac/cy_ctdac.h **** * \note
 797:Generated_Source\PSoC6\pdl\drivers/peripheral/ctdac/cy_ctdac.h **** * Calling this function in \ref group_ctdac_updatemode_direct_write mode will not update the DAC ou
 798:Generated_Source\PSoC6\pdl\drivers/peripheral/ctdac/cy_ctdac.h **** * Call this function for all modes that use buffered values (i.e. uses a clock).
 799:Generated_Source\PSoC6\pdl\drivers/peripheral/ctdac/cy_ctdac.h **** *
 800:Generated_Source\PSoC6\pdl\drivers/peripheral/ctdac/cy_ctdac.h **** * \param base
 801:Generated_Source\PSoC6\pdl\drivers/peripheral/ctdac/cy_ctdac.h **** * Pointer to structure describing registers
 802:Generated_Source\PSoC6\pdl\drivers/peripheral/ctdac/cy_ctdac.h **** *
 803:Generated_Source\PSoC6\pdl\drivers/peripheral/ctdac/cy_ctdac.h **** * \param value
 804:Generated_Source\PSoC6\pdl\drivers/peripheral/ctdac/cy_ctdac.h **** * Value to write into the CTDAC_VAL_NEXT register
 805:Generated_Source\PSoC6\pdl\drivers/peripheral/ctdac/cy_ctdac.h **** *
 806:Generated_Source\PSoC6\pdl\drivers/peripheral/ctdac/cy_ctdac.h **** * \return None
 807:Generated_Source\PSoC6\pdl\drivers/peripheral/ctdac/cy_ctdac.h **** *
 808:Generated_Source\PSoC6\pdl\drivers/peripheral/ctdac/cy_ctdac.h **** * \funcusage
 809:Generated_Source\PSoC6\pdl\drivers/peripheral/ctdac/cy_ctdac.h **** *
 810:Generated_Source\PSoC6\pdl\drivers/peripheral/ctdac/cy_ctdac.h **** * \snippet ctdac_sut_01.cydsn/main_cm4.c CTDAC_SNIPPET_SET_VALUE_BUFFERED
ARM GAS  C:\Users\oars0\AppData\Local\Temp\cc0aZXkW.s 			page 20


 811:Generated_Source\PSoC6\pdl\drivers/peripheral/ctdac/cy_ctdac.h **** *
 812:Generated_Source\PSoC6\pdl\drivers/peripheral/ctdac/cy_ctdac.h **** *******************************************************************************/
 813:Generated_Source\PSoC6\pdl\drivers/peripheral/ctdac/cy_ctdac.h **** __STATIC_INLINE void Cy_CTDAC_SetValueBuffered(CTDAC_Type *base, int32_t value)
 814:Generated_Source\PSoC6\pdl\drivers/peripheral/ctdac/cy_ctdac.h **** {
 815:Generated_Source\PSoC6\pdl\drivers/peripheral/ctdac/cy_ctdac.h ****     CTDAC_CTDAC_VAL_NXT(base) = (((uint32_t)value) << CTDAC_CTDAC_VAL_NXT_VALUE_Pos) & CTDAC_CTDAC_
  93              		.loc 3 815 0 discriminator 3
  94 0030 C4F30B03 		ubfx	r3, r4, #0, #12
  95 0034 3E4A     		ldr	r2, .L12
  96 0036 C2F80431 		str	r3, [r2, #260]
  97              	.LVL9:
  98              	.LBE42:
  99              	.LBE41:
 100              	.LBE40:
  51:main_cm4.c    ****                 VDAC_SetValueBuffered(vdac_val);
  52:main_cm4.c    ****                 CyDelay(1);
 101              		.loc 1 52 0 discriminator 3
 102 003a 0120     		movs	r0, #1
 103 003c FFF7FEFF 		bl	Cy_SysLib_Delay
 104              	.LVL10:
  53:main_cm4.c    ****                 ADC_StartConvert();
 105              		.loc 1 53 0 discriminator 3
 106 0040 FFF7FEFF 		bl	ADC_StartConvert
 107              	.LVL11:
  54:main_cm4.c    ****                 ADC_IsEndConversion(CY_SAR_WAIT_FOR_RESULT);
 108              		.loc 1 54 0 discriminator 3
 109 0044 0120     		movs	r0, #1
 110 0046 FFF7FEFF 		bl	ADC_IsEndConversion
 111              	.LVL12:
 112              	.LBB43:
 113              	.LBB44:
 114              		.file 4 "Generated_Source\\PSoC6/ADC.h"
   1:Generated_Source\PSoC6/ADC.h **** /***************************************************************************//**
   2:Generated_Source\PSoC6/ADC.h **** * \file     ADC.h
   3:Generated_Source\PSoC6/ADC.h **** * \version  3.10
   4:Generated_Source\PSoC6/ADC.h **** *
   5:Generated_Source\PSoC6/ADC.h **** * \brief
   6:Generated_Source\PSoC6/ADC.h **** * Provides the source code to the API for the ADC Component.
   7:Generated_Source\PSoC6/ADC.h **** *
   8:Generated_Source\PSoC6/ADC.h **** ********************************************************************************
   9:Generated_Source\PSoC6/ADC.h **** * \copyright
  10:Generated_Source\PSoC6/ADC.h **** * (c) 2017-2018, Cypress Semiconductor Corporation. All rights reserved.
  11:Generated_Source\PSoC6/ADC.h **** * This software, including source code, documentation and related
  12:Generated_Source\PSoC6/ADC.h **** * materials ("Software"), is owned by Cypress Semiconductor
  13:Generated_Source\PSoC6/ADC.h **** * Corporation ("Cypress") and is protected by and subject to worldwide
  14:Generated_Source\PSoC6/ADC.h **** * patent protection (United States and foreign), United States copyright
  15:Generated_Source\PSoC6/ADC.h **** * laws and international treaty provisions. Therefore, you may use this
  16:Generated_Source\PSoC6/ADC.h **** * Software only as provided in the license agreement accompanying the
  17:Generated_Source\PSoC6/ADC.h **** * software package from which you obtained this Software ("EULA").
  18:Generated_Source\PSoC6/ADC.h **** * If no EULA applies, Cypress hereby grants you a personal, nonexclusive,
  19:Generated_Source\PSoC6/ADC.h **** * non-transferable license to copy, modify, and compile the
  20:Generated_Source\PSoC6/ADC.h **** * Software source code solely for use in connection with Cypress's
  21:Generated_Source\PSoC6/ADC.h **** * integrated circuit products. Any reproduction, modification, translation,
  22:Generated_Source\PSoC6/ADC.h **** * compilation, or representation of this Software except as specified
  23:Generated_Source\PSoC6/ADC.h **** * above is prohibited without the express written permission of Cypress.
  24:Generated_Source\PSoC6/ADC.h **** * Disclaimer: THIS SOFTWARE IS PROVIDED AS-IS, WITH NO
  25:Generated_Source\PSoC6/ADC.h **** * WARRANTY OF ANY KIND, EXPRESS OR IMPLIED, INCLUDING,
  26:Generated_Source\PSoC6/ADC.h **** * BUT NOT LIMITED TO, NONINFRINGEMENT, IMPLIED
ARM GAS  C:\Users\oars0\AppData\Local\Temp\cc0aZXkW.s 			page 21


  27:Generated_Source\PSoC6/ADC.h **** * WARRANTIES OF MERCHANTABILITY AND FITNESS FOR A
  28:Generated_Source\PSoC6/ADC.h **** * PARTICULAR PURPOSE. Cypress reserves the right to make
  29:Generated_Source\PSoC6/ADC.h **** * changes to the Software without notice. Cypress does not assume any
  30:Generated_Source\PSoC6/ADC.h **** * liability arising out of the application or use of the Software or any
  31:Generated_Source\PSoC6/ADC.h **** * product or circuit described in the Software. Cypress does not
  32:Generated_Source\PSoC6/ADC.h **** * authorize its products for use in any products where a malfunction or
  33:Generated_Source\PSoC6/ADC.h **** * failure of the Cypress product may reasonably be expected to result in
  34:Generated_Source\PSoC6/ADC.h **** * significant property damage, injury or death ("High Risk Product"). By
  35:Generated_Source\PSoC6/ADC.h **** * including Cypress's product in a High Risk Product, the manufacturer
  36:Generated_Source\PSoC6/ADC.h **** * of such system or application assumes all risk of such use and in doing
  37:Generated_Source\PSoC6/ADC.h **** * so agrees to indemnify Cypress against all liability.
  38:Generated_Source\PSoC6/ADC.h **** *******************************************************************************/
  39:Generated_Source\PSoC6/ADC.h **** #if !defined(CY_ADC_H)
  40:Generated_Source\PSoC6/ADC.h **** #define CY_ADC_H
  41:Generated_Source\PSoC6/ADC.h **** 
  42:Generated_Source\PSoC6/ADC.h **** #include <cy_device_headers.h>
  43:Generated_Source\PSoC6/ADC.h **** #include <sar/cy_sar.h>
  44:Generated_Source\PSoC6/ADC.h **** 
  45:Generated_Source\PSoC6/ADC.h **** #define ADC_VREF_ROUTED                  ((0) == 1u)
  46:Generated_Source\PSoC6/ADC.h **** #if (ADC_VREF_ROUTED)
  47:Generated_Source\PSoC6/ADC.h **** #include "ADC_vrefAMux.h"
  48:Generated_Source\PSoC6/ADC.h **** #endif
  49:Generated_Source\PSoC6/ADC.h **** 
  50:Generated_Source\PSoC6/ADC.h **** #define ADC_CLOCK_INTERNAL               ((1) == 1u)
  51:Generated_Source\PSoC6/ADC.h **** #if (ADC_CLOCK_INTERNAL)
  52:Generated_Source\PSoC6/ADC.h **** #include "ADC_intSarClock.h"
  53:Generated_Source\PSoC6/ADC.h **** #endif /* ADC_CLOCK_INTERNAL */
  54:Generated_Source\PSoC6/ADC.h **** 
  55:Generated_Source\PSoC6/ADC.h **** /**
  56:Generated_Source\PSoC6/ADC.h **** * \addtogroup group_structures
  57:Generated_Source\PSoC6/ADC.h **** *
  58:Generated_Source\PSoC6/ADC.h **** */
  59:Generated_Source\PSoC6/ADC.h **** typedef struct
  60:Generated_Source\PSoC6/ADC.h **** {
  61:Generated_Source\PSoC6/ADC.h ****     uint32_t channelBase;                   /* Start of channels for the configuration */
  62:Generated_Source\PSoC6/ADC.h ****     uint32_t numChannels;                   /* Number of channels in the configuration */
  63:Generated_Source\PSoC6/ADC.h ****     const cy_stc_sar_config_t *hwConfigStc; /* PDL structure */
  64:Generated_Source\PSoC6/ADC.h ****     uint32_t miscConfig;                    /* Miscellaneous configuration bits broken down as foll
  65:Generated_Source\PSoC6/ADC.h ****                                             [0] - Freerunning: Set if the sample mode is freerunnin
  66:Generated_Source\PSoC6/ADC.h ****                                             [2] - Mux Switch 0: Set when VSSA is used for the neg i
  67:Generated_Source\PSoC6/ADC.h ****                                             */
  68:Generated_Source\PSoC6/ADC.h **** #if (ADC_CLOCK_INTERNAL)
  69:Generated_Source\PSoC6/ADC.h ****     uint32_t clkDivider;                    /* Clock divider */
  70:Generated_Source\PSoC6/ADC.h **** #endif /* ADC_CLOCK_INTERNAL */
  71:Generated_Source\PSoC6/ADC.h **** 
  72:Generated_Source\PSoC6/ADC.h **** } ADC_CONFIG_STRUCT;
  73:Generated_Source\PSoC6/ADC.h **** /** @} structures */
  74:Generated_Source\PSoC6/ADC.h **** 
  75:Generated_Source\PSoC6/ADC.h **** /*******************************************************************************
  76:Generated_Source\PSoC6/ADC.h **** * Function Prototypes
  77:Generated_Source\PSoC6/ADC.h **** *******************************************************************************/
  78:Generated_Source\PSoC6/ADC.h **** void ADC_SelectConfig(uint32_t config, uint32_t restart);
  79:Generated_Source\PSoC6/ADC.h **** void ADC_InitConfig(const ADC_CONFIG_STRUCT *config);
  80:Generated_Source\PSoC6/ADC.h **** void ADC_Init(void);
  81:Generated_Source\PSoC6/ADC.h **** __STATIC_INLINE void ADC_Enable(void);
  82:Generated_Source\PSoC6/ADC.h **** 
  83:Generated_Source\PSoC6/ADC.h **** /**
ARM GAS  C:\Users\oars0\AppData\Local\Temp\cc0aZXkW.s 			page 22


  84:Generated_Source\PSoC6/ADC.h **** * \addtogroup group_general
  85:Generated_Source\PSoC6/ADC.h **** * @{
  86:Generated_Source\PSoC6/ADC.h **** */
  87:Generated_Source\PSoC6/ADC.h **** void ADC_Start(void);
  88:Generated_Source\PSoC6/ADC.h **** void ADC_StartEx(cy_israddress userIsr);
  89:Generated_Source\PSoC6/ADC.h **** __STATIC_INLINE void ADC_Stop(void);
  90:Generated_Source\PSoC6/ADC.h **** void ADC_StartConvert(void);
  91:Generated_Source\PSoC6/ADC.h **** __STATIC_INLINE void ADC_StopConvert(void);
  92:Generated_Source\PSoC6/ADC.h **** void ADC_SetConvertMode(cy_en_sar_start_convert_sel_t mode);
  93:Generated_Source\PSoC6/ADC.h **** void ADC_SetEosMask(uint32_t mask);
  94:Generated_Source\PSoC6/ADC.h **** uint32_t ADC_IsEndConversion(cy_en_sar_return_mode_t retMode);
  95:Generated_Source\PSoC6/ADC.h **** __STATIC_INLINE int16_t ADC_GetResult16(uint32_t chan);
  96:Generated_Source\PSoC6/ADC.h **** __STATIC_INLINE int32_t ADC_GetResult32(uint32_t chan);
  97:Generated_Source\PSoC6/ADC.h **** __STATIC_INLINE void ADC_SetLowLimit(uint32_t lowLimit);
  98:Generated_Source\PSoC6/ADC.h **** __STATIC_INLINE void ADC_SetHighLimit(uint32_t highLimit);
  99:Generated_Source\PSoC6/ADC.h **** __STATIC_INLINE void ADC_SetLimitMask(uint32_t limitMask);
 100:Generated_Source\PSoC6/ADC.h **** __STATIC_INLINE void ADC_SetSatMask(uint32_t satMask);
 101:Generated_Source\PSoC6/ADC.h **** __STATIC_INLINE cy_en_sar_status_t ADC_SetOffset(uint32_t chan, int16_t offset);
 102:Generated_Source\PSoC6/ADC.h **** __STATIC_INLINE cy_en_sar_status_t ADC_SetGain(uint32_t chan, int32_t adcGain);
 103:Generated_Source\PSoC6/ADC.h **** __STATIC_INLINE float32_t ADC_CountsTo_Volts(uint32_t chan, int16_t adcCounts);
 104:Generated_Source\PSoC6/ADC.h **** __STATIC_INLINE int16_t ADC_CountsTo_mVolts(uint32_t chan, int16_t adcCounts);
 105:Generated_Source\PSoC6/ADC.h **** __STATIC_INLINE int32_t ADC_CountsTo_uVolts(uint32_t chan, int16_t adcCounts);
 106:Generated_Source\PSoC6/ADC.h **** 
 107:Generated_Source\PSoC6/ADC.h **** /** @} general */
 108:Generated_Source\PSoC6/ADC.h **** 
 109:Generated_Source\PSoC6/ADC.h **** void ADC_SetChanMask(uint32_t enableMask);
 110:Generated_Source\PSoC6/ADC.h **** 
 111:Generated_Source\PSoC6/ADC.h **** /**
 112:Generated_Source\PSoC6/ADC.h **** * \addtogroup group_power
 113:Generated_Source\PSoC6/ADC.h **** * @{
 114:Generated_Source\PSoC6/ADC.h **** */
 115:Generated_Source\PSoC6/ADC.h **** __STATIC_INLINE void ADC_Sleep(void);
 116:Generated_Source\PSoC6/ADC.h **** __STATIC_INLINE void ADC_Wakeup(void);
 117:Generated_Source\PSoC6/ADC.h **** 
 118:Generated_Source\PSoC6/ADC.h **** /** @} power */
 119:Generated_Source\PSoC6/ADC.h **** 
 120:Generated_Source\PSoC6/ADC.h **** /**
 121:Generated_Source\PSoC6/ADC.h **** * \addtogroup group_interrupt
 122:Generated_Source\PSoC6/ADC.h **** * @{
 123:Generated_Source\PSoC6/ADC.h **** */
 124:Generated_Source\PSoC6/ADC.h **** void ADC_ISR(void);
 125:Generated_Source\PSoC6/ADC.h **** void ADC_IRQ_Enable(void);
 126:Generated_Source\PSoC6/ADC.h **** void ADC_IRQ_Disable(void);
 127:Generated_Source\PSoC6/ADC.h **** 
 128:Generated_Source\PSoC6/ADC.h **** /** @} interrupt */
 129:Generated_Source\PSoC6/ADC.h **** 
 130:Generated_Source\PSoC6/ADC.h **** /*******************************************************************************
 131:Generated_Source\PSoC6/ADC.h ****                                   Parameters
 132:Generated_Source\PSoC6/ADC.h **** The parameters that are set in the customizer are redefined as constants here.
 133:Generated_Source\PSoC6/ADC.h **** *******************************************************************************/
 134:Generated_Source\PSoC6/ADC.h **** 
 135:Generated_Source\PSoC6/ADC.h **** /*  Sample Mode setting constants */
 136:Generated_Source\PSoC6/ADC.h **** #define ADC_TOTAL_CONFIGS                (1ul)
 137:Generated_Source\PSoC6/ADC.h **** 
 138:Generated_Source\PSoC6/ADC.h **** /* ************************************************************************** */
 139:Generated_Source\PSoC6/ADC.h **** /* Begin configuration 0 customizer defines                                   */
 140:Generated_Source\PSoC6/ADC.h **** /* ************************************************************************** */
ARM GAS  C:\Users\oars0\AppData\Local\Temp\cc0aZXkW.s 			page 23


 141:Generated_Source\PSoC6/ADC.h **** 
 142:Generated_Source\PSoC6/ADC.h **** #define ADC_CFG0_SAMPLE_RATE             (100000)
 143:Generated_Source\PSoC6/ADC.h **** #define ADC_CFG0_CHANNEL_BASE            (0u)
 144:Generated_Source\PSoC6/ADC.h **** #define ADC_CFG0_CHANNEL_COUNT           (4u)
 145:Generated_Source\PSoC6/ADC.h **** #define ADC_CFG0_VREF_SEL_MASK           (0xe0u)
 146:Generated_Source\PSoC6/ADC.h **** #define ADC_CFG0_NOMINAL_CLOCK_FREQ      (16666666u)
 147:Generated_Source\PSoC6/ADC.h **** #define ADC_CFG0_CHANNEL_EN              (0xfu)
 148:Generated_Source\PSoC6/ADC.h **** 
 149:Generated_Source\PSoC6/ADC.h **** /* Sample Control Register */
 150:Generated_Source\PSoC6/ADC.h **** #define ADC_CFG0_SINGLE_ENDED_FORMAT     (0uL)
 151:Generated_Source\PSoC6/ADC.h **** #define ADC_CFG0_DIFFERENTIAL_FORMAT     (1uL)
 152:Generated_Source\PSoC6/ADC.h **** #define ADC_CFG0_SAMPLES_AVERAGED        (3uL)
 153:Generated_Source\PSoC6/ADC.h **** #define ADC_CFG0_RANGE_INTR_MASK         (0x0u)
 154:Generated_Source\PSoC6/ADC.h **** #define ADC_CFG0_SATURATE_INTR_MASK      (0x0u)
 155:Generated_Source\PSoC6/ADC.h **** #define ADC_CFG0_VNEG_INPUT_SEL          (7)
 156:Generated_Source\PSoC6/ADC.h **** #define ADC_CFG0_SINGLE_PRESENT          (1)
 157:Generated_Source\PSoC6/ADC.h **** #define ADC_CFG0_VREF_MV_VALUE           (1650)
 158:Generated_Source\PSoC6/ADC.h **** #define ADC_CFG0_APERTURE_TIME0          (99uL)
 159:Generated_Source\PSoC6/ADC.h **** #define ADC_CFG0_APERTURE_TIME1          (4uL)
 160:Generated_Source\PSoC6/ADC.h **** #define ADC_CFG0_APERTURE_TIME2          (2uL)
 161:Generated_Source\PSoC6/ADC.h **** #define ADC_CFG0_APERTURE_TIME3          (2uL)
 162:Generated_Source\PSoC6/ADC.h **** #define ADC_CFG0_FREERUNNING             (1u)
 163:Generated_Source\PSoC6/ADC.h **** #define ADC_CFG0_AVGERAGING_MODE         (1uL)
 164:Generated_Source\PSoC6/ADC.h **** #define ADC_CFG0_LOW_LIMIT               (16u)
 165:Generated_Source\PSoC6/ADC.h **** #define ADC_CFG0_HIGH_LIMIT              (4095u)
 166:Generated_Source\PSoC6/ADC.h **** #define ADC_CFG0_RANGE_COND              (3uL)
 167:Generated_Source\PSoC6/ADC.h **** #define ADC_CFG0_USE_SOC                 (0uL)
 168:Generated_Source\PSoC6/ADC.h **** #define ADC_CFG0_VREF_PWR                (3uL)
 169:Generated_Source\PSoC6/ADC.h **** #define ADC_CFG0_COMP_PWR                (3uL)
 170:Generated_Source\PSoC6/ADC.h **** #define ADC_CFG0_COMP_DLY                (3uL)
 171:Generated_Source\PSoC6/ADC.h **** 
 172:Generated_Source\PSoC6/ADC.h **** /* Clock parameters*/
 173:Generated_Source\PSoC6/ADC.h **** #if (ADC_CLOCK_INTERNAL)
 174:Generated_Source\PSoC6/ADC.h ****     #define ADC_CFG0_CLOCKDIVIDER        (((CYDEV_CLK_PERICLK__HZ) / (ADC_CFG0_NOMINAL_CLOCK_FREQ))
 175:Generated_Source\PSoC6/ADC.h **** #endif /* (ADC_CLOCK_INTERNAL) */
 176:Generated_Source\PSoC6/ADC.h **** 
 177:Generated_Source\PSoC6/ADC.h **** /* ************************************************************************** */
 178:Generated_Source\PSoC6/ADC.h **** /* End configuration 0 customizer defines                                     */
 179:Generated_Source\PSoC6/ADC.h **** /* ************************************************************************** */
 180:Generated_Source\PSoC6/ADC.h **** 
 181:Generated_Source\PSoC6/ADC.h **** /* ************************************************************************** */
 182:Generated_Source\PSoC6/ADC.h **** /* Begin configuration 1 customizer defines                                   */
 183:Generated_Source\PSoC6/ADC.h **** /* ************************************************************************** */
 184:Generated_Source\PSoC6/ADC.h **** 
 185:Generated_Source\PSoC6/ADC.h **** #if(ADC_TOTAL_CONFIGS > 1)
 186:Generated_Source\PSoC6/ADC.h ****     #define ADC_CFG1_SAMPLE_RATE             ()
 187:Generated_Source\PSoC6/ADC.h ****     #define ADC_CFG1_CHANNEL_BASE            (u)
 188:Generated_Source\PSoC6/ADC.h ****     #define ADC_CFG1_CHANNEL_COUNT           (u)
 189:Generated_Source\PSoC6/ADC.h ****     #define ADC_CFG1_VREF_SEL_MASK           (u)
 190:Generated_Source\PSoC6/ADC.h ****     #define ADC_CFG1_NOMINAL_CLOCK_FREQ      (u)
 191:Generated_Source\PSoC6/ADC.h ****     #define ADC_CFG1_CHANNEL_EN              (u)
 192:Generated_Source\PSoC6/ADC.h **** 
 193:Generated_Source\PSoC6/ADC.h ****     /* Sample Control Register */
 194:Generated_Source\PSoC6/ADC.h ****     #define ADC_CFG1_SINGLE_ENDED_FORMAT     (uL)
 195:Generated_Source\PSoC6/ADC.h ****     #define ADC_CFG1_DIFFERENTIAL_FORMAT     (uL)
 196:Generated_Source\PSoC6/ADC.h ****     #define ADC_CFG1_SAMPLES_AVERAGED        (uL)
 197:Generated_Source\PSoC6/ADC.h ****     #define ADC_CFG1_RANGE_INTR_MASK         (u)
ARM GAS  C:\Users\oars0\AppData\Local\Temp\cc0aZXkW.s 			page 24


 198:Generated_Source\PSoC6/ADC.h ****     #define ADC_CFG1_SATURATE_INTR_MASK      (u)
 199:Generated_Source\PSoC6/ADC.h ****     #define ADC_CFG1_VNEG_INPUT_SEL          ()
 200:Generated_Source\PSoC6/ADC.h ****     #define ADC_CFG1_SINGLE_PRESENT          ()
 201:Generated_Source\PSoC6/ADC.h ****     #define ADC_CFG1_VREF_MV_VALUE           ()
 202:Generated_Source\PSoC6/ADC.h ****     #define ADC_CFG1_APERTURE_TIME0          (uL)
 203:Generated_Source\PSoC6/ADC.h ****     #define ADC_CFG1_APERTURE_TIME1          (uL)
 204:Generated_Source\PSoC6/ADC.h ****     #define ADC_CFG1_APERTURE_TIME2          (uL)
 205:Generated_Source\PSoC6/ADC.h ****     #define ADC_CFG1_APERTURE_TIME3          (uL)
 206:Generated_Source\PSoC6/ADC.h ****     #define ADC_CFG1_FREERUNNING             (u)
 207:Generated_Source\PSoC6/ADC.h ****     #define ADC_CFG1_AVGERAGING_MODE         (uL)
 208:Generated_Source\PSoC6/ADC.h ****     #define ADC_CFG1_LOW_LIMIT               (u)
 209:Generated_Source\PSoC6/ADC.h ****     #define ADC_CFG1_HIGH_LIMIT              (u)
 210:Generated_Source\PSoC6/ADC.h ****     #define ADC_CFG1_RANGE_COND              (uL)
 211:Generated_Source\PSoC6/ADC.h ****     #define ADC_CFG1_USE_SOC                 (0uL)
 212:Generated_Source\PSoC6/ADC.h ****     #define ADC_CFG1_VREF_PWR                (uL)
 213:Generated_Source\PSoC6/ADC.h ****     #define ADC_CFG1_COMP_PWR                (uL)
 214:Generated_Source\PSoC6/ADC.h ****     #define ADC_CFG1_COMP_DLY                (uL)
 215:Generated_Source\PSoC6/ADC.h **** 
 216:Generated_Source\PSoC6/ADC.h ****     /* Clock parameters*/
 217:Generated_Source\PSoC6/ADC.h ****     #if (ADC_CLOCK_INTERNAL)
 218:Generated_Source\PSoC6/ADC.h ****         #define ADC_CFG1_CLOCKDIVIDER        (((CYDEV_CLK_PERICLK__HZ) / (ADC_CFG1_NOMINAL_CLOCK_FR
 219:Generated_Source\PSoC6/ADC.h ****     #endif /* (ADC_CLOCK_INTERNAL) */
 220:Generated_Source\PSoC6/ADC.h **** #endif /* #if(ADC_TOTAL_CONFIGS > 1) */
 221:Generated_Source\PSoC6/ADC.h **** 
 222:Generated_Source\PSoC6/ADC.h **** /* ************************************************************************** */
 223:Generated_Source\PSoC6/ADC.h **** /* End configuration 1 customizer defines                                     */
 224:Generated_Source\PSoC6/ADC.h **** /* ************************************************************************** */
 225:Generated_Source\PSoC6/ADC.h **** 
 226:Generated_Source\PSoC6/ADC.h **** /* ************************************************************************** */
 227:Generated_Source\PSoC6/ADC.h **** /* Begin configuration 2 customizer defines                                         */
 228:Generated_Source\PSoC6/ADC.h **** /* ************************************************************************** */
 229:Generated_Source\PSoC6/ADC.h **** 
 230:Generated_Source\PSoC6/ADC.h **** #if(ADC_TOTAL_CONFIGS > 2)
 231:Generated_Source\PSoC6/ADC.h ****     #define ADC_CFG2_SAMPLE_RATE             ()
 232:Generated_Source\PSoC6/ADC.h ****     #define ADC_CFG2_CHANNEL_BASE            (u)
 233:Generated_Source\PSoC6/ADC.h ****     #define ADC_CFG2_CHANNEL_COUNT           (u)
 234:Generated_Source\PSoC6/ADC.h ****     #define ADC_CFG2_VREF_SEL_MASK           (u)
 235:Generated_Source\PSoC6/ADC.h ****     #define ADC_CFG2_NOMINAL_CLOCK_FREQ      (u)
 236:Generated_Source\PSoC6/ADC.h ****     #define ADC_CFG2_CHANNEL_EN              (u)
 237:Generated_Source\PSoC6/ADC.h **** 
 238:Generated_Source\PSoC6/ADC.h ****     /* Sample Control Register */
 239:Generated_Source\PSoC6/ADC.h ****     #define ADC_CFG2_SINGLE_ENDED_FORMAT     (uL)
 240:Generated_Source\PSoC6/ADC.h ****     #define ADC_CFG2_DIFFERENTIAL_FORMAT     (uL)
 241:Generated_Source\PSoC6/ADC.h ****     #define ADC_CFG2_SAMPLES_AVERAGED        (uL)
 242:Generated_Source\PSoC6/ADC.h ****     #define ADC_CFG2_RANGE_INTR_MASK         (u)
 243:Generated_Source\PSoC6/ADC.h ****     #define ADC_CFG2_SATURATE_INTR_MASK      (u)
 244:Generated_Source\PSoC6/ADC.h ****     #define ADC_CFG2_VNEG_INPUT_SEL          ()
 245:Generated_Source\PSoC6/ADC.h ****     #define ADC_CFG2_SINGLE_PRESENT          ()
 246:Generated_Source\PSoC6/ADC.h ****     #define ADC_CFG2_VREF_MV_VALUE           ()
 247:Generated_Source\PSoC6/ADC.h ****     #define ADC_CFG2_APERTURE_TIME0          (uL)
 248:Generated_Source\PSoC6/ADC.h ****     #define ADC_CFG2_APERTURE_TIME1          (uL)
 249:Generated_Source\PSoC6/ADC.h ****     #define ADC_CFG2_APERTURE_TIME2          (uL)
 250:Generated_Source\PSoC6/ADC.h ****     #define ADC_CFG2_APERTURE_TIME3          (uL)
 251:Generated_Source\PSoC6/ADC.h ****     #define ADC_CFG2_FREERUNNING             (u)
 252:Generated_Source\PSoC6/ADC.h ****     #define ADC_CFG2_AVGERAGING_MODE         (uL)
 253:Generated_Source\PSoC6/ADC.h ****     #define ADC_CFG2_LOW_LIMIT               (u)
 254:Generated_Source\PSoC6/ADC.h ****     #define ADC_CFG2_HIGH_LIMIT              (u)
ARM GAS  C:\Users\oars0\AppData\Local\Temp\cc0aZXkW.s 			page 25


 255:Generated_Source\PSoC6/ADC.h ****     #define ADC_CFG2_RANGE_COND              (uL)
 256:Generated_Source\PSoC6/ADC.h ****     #define ADC_CFG2_USE_SOC                 (0uL)
 257:Generated_Source\PSoC6/ADC.h ****     #define ADC_CFG2_VREF_PWR                (uL)
 258:Generated_Source\PSoC6/ADC.h ****     #define ADC_CFG2_COMP_PWR                (uL)
 259:Generated_Source\PSoC6/ADC.h ****     #define ADC_CFG2_COMP_DLY                (uL)
 260:Generated_Source\PSoC6/ADC.h **** 
 261:Generated_Source\PSoC6/ADC.h ****     /* Clock parameters*/
 262:Generated_Source\PSoC6/ADC.h ****     #if (ADC_CLOCK_INTERNAL)
 263:Generated_Source\PSoC6/ADC.h ****         #define ADC_CFG2_CLOCKDIVIDER        (((CYDEV_CLK_PERICLK__HZ) / (ADC_CFG2_NOMINAL_CLOCK_FR
 264:Generated_Source\PSoC6/ADC.h ****     #endif /* (ADC_CLOCK_INTERNAL) */
 265:Generated_Source\PSoC6/ADC.h **** #endif /* (ADC_TOTAL_CONFIGS > 2) */
 266:Generated_Source\PSoC6/ADC.h **** 
 267:Generated_Source\PSoC6/ADC.h **** 
 268:Generated_Source\PSoC6/ADC.h **** /* ************************************************************************** */
 269:Generated_Source\PSoC6/ADC.h **** /* End configuration 2 customizer defines                                     */
 270:Generated_Source\PSoC6/ADC.h **** /* ************************************************************************** */
 271:Generated_Source\PSoC6/ADC.h **** 
 272:Generated_Source\PSoC6/ADC.h **** /* ************************************************************************** */
 273:Generated_Source\PSoC6/ADC.h **** /* Begin configuration 3 customizer defines                                   */
 274:Generated_Source\PSoC6/ADC.h **** /* ************************************************************************** */
 275:Generated_Source\PSoC6/ADC.h **** #if(ADC_TOTAL_CONFIGS > 3)
 276:Generated_Source\PSoC6/ADC.h ****     #define ADC_CFG3_SAMPLE_RATE             ()
 277:Generated_Source\PSoC6/ADC.h ****     #define ADC_CFG3_CHANNEL_BASE            (u)
 278:Generated_Source\PSoC6/ADC.h ****     #define ADC_CFG3_CHANNEL_COUNT           (u)
 279:Generated_Source\PSoC6/ADC.h ****     #define ADC_CFG3_VREF_SEL_MASK           (u)
 280:Generated_Source\PSoC6/ADC.h ****     #define ADC_CFG3_NOMINAL_CLOCK_FREQ      (u)
 281:Generated_Source\PSoC6/ADC.h ****     #define ADC_CFG3_CHANNEL_EN              (u)
 282:Generated_Source\PSoC6/ADC.h **** 
 283:Generated_Source\PSoC6/ADC.h ****     /* Sample Control Register */
 284:Generated_Source\PSoC6/ADC.h ****     #define ADC_CFG3_SINGLE_ENDED_FORMAT     (uL)
 285:Generated_Source\PSoC6/ADC.h ****     #define ADC_CFG3_DIFFERENTIAL_FORMAT     (uL)
 286:Generated_Source\PSoC6/ADC.h ****     #define ADC_CFG3_SAMPLES_AVERAGED        (uL)
 287:Generated_Source\PSoC6/ADC.h ****     #define ADC_CFG3_RANGE_INTR_MASK         (u)
 288:Generated_Source\PSoC6/ADC.h ****     #define ADC_CFG3_SATURATE_INTR_MASK      (u)
 289:Generated_Source\PSoC6/ADC.h ****     #define ADC_CFG3_VNEG_INPUT_SEL          ()
 290:Generated_Source\PSoC6/ADC.h ****     #define ADC_CFG3_SINGLE_PRESENT          ()
 291:Generated_Source\PSoC6/ADC.h ****     #define ADC_CFG3_VREF_MV_VALUE           ()
 292:Generated_Source\PSoC6/ADC.h ****     #define ADC_CFG3_APERTURE_TIME0          (uL)
 293:Generated_Source\PSoC6/ADC.h ****     #define ADC_CFG3_APERTURE_TIME1          (uL)
 294:Generated_Source\PSoC6/ADC.h ****     #define ADC_CFG3_APERTURE_TIME2          (uL)
 295:Generated_Source\PSoC6/ADC.h ****     #define ADC_CFG3_APERTURE_TIME3          (uL)
 296:Generated_Source\PSoC6/ADC.h ****     #define ADC_CFG3_FREERUNNING             (u)
 297:Generated_Source\PSoC6/ADC.h ****     #define ADC_CFG3_AVGERAGING_MODE         (uL)
 298:Generated_Source\PSoC6/ADC.h ****     #define ADC_CFG3_LOW_LIMIT               (u)
 299:Generated_Source\PSoC6/ADC.h ****     #define ADC_CFG3_HIGH_LIMIT              (u)
 300:Generated_Source\PSoC6/ADC.h ****     #define ADC_CFG3_RANGE_COND              (uL)
 301:Generated_Source\PSoC6/ADC.h ****     #define ADC_CFG3_USE_SOC                 (0uL)
 302:Generated_Source\PSoC6/ADC.h ****     #define ADC_CFG3_VREF_PWR                (uL)
 303:Generated_Source\PSoC6/ADC.h ****     #define ADC_CFG3_COMP_PWR                (uL)
 304:Generated_Source\PSoC6/ADC.h ****     #define ADC_CFG3_COMP_DLY                (uL)
 305:Generated_Source\PSoC6/ADC.h **** 
 306:Generated_Source\PSoC6/ADC.h ****     /* Clock parameters*/
 307:Generated_Source\PSoC6/ADC.h ****     #if (ADC_CLOCK_INTERNAL)
 308:Generated_Source\PSoC6/ADC.h ****         #define ADC_CFG3_CLOCKDIVIDER        (((CYDEV_CLK_PERICLK__HZ) / (ADC_CFG3_NOMINAL_CLOCK_FR
 309:Generated_Source\PSoC6/ADC.h ****     #endif /* (ADC_CLOCK_INTERNAL) */
 310:Generated_Source\PSoC6/ADC.h **** #endif /* (ADC_TOTAL_CONFIGS > 3) */
 311:Generated_Source\PSoC6/ADC.h **** 
ARM GAS  C:\Users\oars0\AppData\Local\Temp\cc0aZXkW.s 			page 26


 312:Generated_Source\PSoC6/ADC.h **** /* ************************************************************************** */
 313:Generated_Source\PSoC6/ADC.h **** /* End configuration 3 customizer defines                                     */
 314:Generated_Source\PSoC6/ADC.h **** /* ************************************************************************** */
 315:Generated_Source\PSoC6/ADC.h **** 
 316:Generated_Source\PSoC6/ADC.h **** #define ADC_DEFAULT_SAMPLE_MODE_SEL      (0u)
 317:Generated_Source\PSoC6/ADC.h **** #define ADC_FREERUNNING                  (1u)
 318:Generated_Source\PSoC6/ADC.h **** #define ADC_HARDWARESOC                  (1u)
 319:Generated_Source\PSoC6/ADC.h **** #define ADC_NEG_SEL_VSSA_KELVIN          (0x0uL)
 320:Generated_Source\PSoC6/ADC.h **** #define ADC_NEG_SEL_VREF                 (0x7uL)
 321:Generated_Source\PSoC6/ADC.h **** #define ADC_PWR_CTRL_VREF_NORMAL_PWR     (0x0uL)
 322:Generated_Source\PSoC6/ADC.h **** 
 323:Generated_Source\PSoC6/ADC.h **** /** ADC_TOTAL_CHANNELS_NUM
 324:Generated_Source\PSoC6/ADC.h **** * This constant represents the number of input channels available for scanning.
 325:Generated_Source\PSoC6/ADC.h **** */
 326:Generated_Source\PSoC6/ADC.h **** #define ADC_TOTAL_CHANNELS_NUM           (4u)
 327:Generated_Source\PSoC6/ADC.h **** 
 328:Generated_Source\PSoC6/ADC.h **** /*******************************************************************************
 329:Generated_Source\PSoC6/ADC.h **** *    Variables with External Linkage
 330:Generated_Source\PSoC6/ADC.h **** *******************************************************************************/
 331:Generated_Source\PSoC6/ADC.h **** /**
 332:Generated_Source\PSoC6/ADC.h **** * \addtogroup group_globals
 333:Generated_Source\PSoC6/ADC.h **** * Globals are noted in the descriptions of the functions that use globals.
 334:Generated_Source\PSoC6/ADC.h **** * They are marked with (R), (W), or (RW) noting whether the variable is read,
 335:Generated_Source\PSoC6/ADC.h **** * write, or read/write.
 336:Generated_Source\PSoC6/ADC.h **** * @{
 337:Generated_Source\PSoC6/ADC.h **** */
 338:Generated_Source\PSoC6/ADC.h **** 
 339:Generated_Source\PSoC6/ADC.h **** /** ADC_initVar
 340:Generated_Source\PSoC6/ADC.h **** * The ADC_initVar variable is used to indicate
 341:Generated_Source\PSoC6/ADC.h **** * initial configuration of this component. The variable is initialized to zero and
 342:Generated_Source\PSoC6/ADC.h **** * set to 1 the first time ADC_Start() is called. This allows for
 343:Generated_Source\PSoC6/ADC.h **** * component initialization without reinitialization in all subsequent calls to the
 344:Generated_Source\PSoC6/ADC.h **** * ADC_Start() routine.
 345:Generated_Source\PSoC6/ADC.h **** *
 346:Generated_Source\PSoC6/ADC.h **** * If reinitialization of the component is required, then the ADC_Init() function
 347:Generated_Source\PSoC6/ADC.h **** * can be called before the ADC_Start() or ADC_Enable()
 348:Generated_Source\PSoC6/ADC.h **** * functions.
 349:Generated_Source\PSoC6/ADC.h **** */
 350:Generated_Source\PSoC6/ADC.h **** extern uint8_t ADC_initVar;
 351:Generated_Source\PSoC6/ADC.h **** extern uint8_t ADC_selected;
 352:Generated_Source\PSoC6/ADC.h **** extern uint32_t ADC_currentConfig;
 353:Generated_Source\PSoC6/ADC.h **** 
 354:Generated_Source\PSoC6/ADC.h **** #define ADC_INIT_VAR_INIT_FLAG     (0x01u)
 355:Generated_Source\PSoC6/ADC.h **** 
 356:Generated_Source\PSoC6/ADC.h **** extern const ADC_CONFIG_STRUCT ADC_allConfigs[ADC_TOTAL_CONFIGS];
 357:Generated_Source\PSoC6/ADC.h **** 
 358:Generated_Source\PSoC6/ADC.h **** /* SysPm callback structure for deep sleep entry and exit.
 359:Generated_Source\PSoC6/ADC.h ****  * Call the Cy_SysPm_RegisterCallback function with this
 360:Generated_Source\PSoC6/ADC.h ****  * structure before calling Cy_SysPm_DeepSleep.
 361:Generated_Source\PSoC6/ADC.h **** */
 362:Generated_Source\PSoC6/ADC.h **** extern cy_stc_syspm_callback_t ADC_DeepSleepCallbackStruct;
 363:Generated_Source\PSoC6/ADC.h **** 
 364:Generated_Source\PSoC6/ADC.h **** /** @} globals */
 365:Generated_Source\PSoC6/ADC.h **** 
 366:Generated_Source\PSoC6/ADC.h **** /* ************************************************************************** */
 367:Generated_Source\PSoC6/ADC.h **** /* *******************Global MUX_SWITCH0 Definitions ************************ */
 368:Generated_Source\PSoC6/ADC.h **** /* ************************************************************************** */
ARM GAS  C:\Users\oars0\AppData\Local\Temp\cc0aZXkW.s 			page 27


 369:Generated_Source\PSoC6/ADC.h **** #if(ADC_CFG0_VNEG_INPUT_SEL == ADC_NEG_SEL_VSSA_KELVIN)
 370:Generated_Source\PSoC6/ADC.h ****     /* Do not connect VSSA to VMINUS when one channel in differential mode used */
 371:Generated_Source\PSoC6/ADC.h ****     #if((ADC_TOTAL_CHANNELS_NUM == 1u) && (ADC_CFG0_SINGLE_PRESENT == 0u))
 372:Generated_Source\PSoC6/ADC.h ****         #define ADC_MUX_SWITCH0_INIT      0u
 373:Generated_Source\PSoC6/ADC.h ****     #else    /* multiple channels or one single ended channel */
 374:Generated_Source\PSoC6/ADC.h ****         #define ADC_MUX_SWITCH0_INIT      1u
 375:Generated_Source\PSoC6/ADC.h ****     #endif /* ((ADC_TOTAL_CHANNELS_NUM == 1u) && (ADC_CFG0_SINGLE_PRESENT == 0u)) */
 376:Generated_Source\PSoC6/ADC.h **** #else
 377:Generated_Source\PSoC6/ADC.h ****     #define ADC_MUX_SWITCH0_INIT          0u
 378:Generated_Source\PSoC6/ADC.h **** #endif /* ADC_CFG0_VNEG_INPUT_SEL == ADC_NEG_SEL_VSSA_KELVIN */
 379:Generated_Source\PSoC6/ADC.h **** 
 380:Generated_Source\PSoC6/ADC.h **** /* ************************************************************************** */
 381:Generated_Source\PSoC6/ADC.h **** /* Begin configuration 0 calculated defines                                   */
 382:Generated_Source\PSoC6/ADC.h **** /* ************************************************************************** */
 383:Generated_Source\PSoC6/ADC.h **** #define ADC_CFG0_SAMPLE_TIME01_INIT \
 384:Generated_Source\PSoC6/ADC.h ****         ((ADC_CFG0_APERTURE_TIME0 \
 385:Generated_Source\PSoC6/ADC.h ****         << SAR_SAMPLE_TIME01_SAMPLE_TIME0_Pos) \
 386:Generated_Source\PSoC6/ADC.h ****         | (ADC_CFG0_APERTURE_TIME1 \
 387:Generated_Source\PSoC6/ADC.h ****         << SAR_SAMPLE_TIME01_SAMPLE_TIME1_Pos))
 388:Generated_Source\PSoC6/ADC.h **** 
 389:Generated_Source\PSoC6/ADC.h **** #define ADC_CFG0_SAMPLE_TIME23_INIT \
 390:Generated_Source\PSoC6/ADC.h ****         ((ADC_CFG0_APERTURE_TIME2 \
 391:Generated_Source\PSoC6/ADC.h ****         << SAR_SAMPLE_TIME23_SAMPLE_TIME2_Pos) \
 392:Generated_Source\PSoC6/ADC.h ****         | (ADC_CFG0_APERTURE_TIME3 \
 393:Generated_Source\PSoC6/ADC.h ****         << SAR_SAMPLE_TIME23_SAMPLE_TIME3_Pos))
 394:Generated_Source\PSoC6/ADC.h **** 
 395:Generated_Source\PSoC6/ADC.h **** /* Enable soc pin if used */
 396:Generated_Source\PSoC6/ADC.h **** #define ADC_CFG0_DSI_TRIGGER_EN_INIT \
 397:Generated_Source\PSoC6/ADC.h ****         (ADC_CFG0_USE_SOC \
 398:Generated_Source\PSoC6/ADC.h ****         << SAR_SAMPLE_CTRL_DSI_TRIGGER_EN_Pos)
 399:Generated_Source\PSoC6/ADC.h **** 
 400:Generated_Source\PSoC6/ADC.h **** /* Set soc operation to edge or level based on sample mode */
 401:Generated_Source\PSoC6/ADC.h **** #if(ADC_CFG0_FREERUNNING == ADC_FREERUNNING)
 402:Generated_Source\PSoC6/ADC.h ****     #define ADC_CFG0_DSI_TRIGGER_LEVEL_INIT    (SAR_SAMPLE_CTRL_DSI_TRIGGER_LEVEL_Msk)
 403:Generated_Source\PSoC6/ADC.h **** #else /* Edge trigger */
 404:Generated_Source\PSoC6/ADC.h ****     #define ADC_CFG0_DSI_TRIGGER_LEVEL_INIT    (0u)
 405:Generated_Source\PSoC6/ADC.h **** #endif /* End ADC_CFG0_FREERUNNING == ADC_FREERUNNING */
 406:Generated_Source\PSoC6/ADC.h **** 
 407:Generated_Source\PSoC6/ADC.h **** /* Set SE_NEG_INPUT */
 408:Generated_Source\PSoC6/ADC.h **** #if(ADC_CFG0_VNEG_INPUT_SEL == ADC_NEG_SEL_VSSA_KELVIN)
 409:Generated_Source\PSoC6/ADC.h ****     #define ADC_CFG0_SE_NEG_INPUT_INIT \
 410:Generated_Source\PSoC6/ADC.h ****             ((uint32)(ADC_NEG_SEL_VSSA_KELVIN \
 411:Generated_Source\PSoC6/ADC.h ****             << SAR_CTRL_NEG_SEL_Pos ))
 412:Generated_Source\PSoC6/ADC.h **** #elif(ADC_CFG0_VNEG_INPUT_SEL == ADC_NEG_SEL_VREF)
 413:Generated_Source\PSoC6/ADC.h **** 
 414:Generated_Source\PSoC6/ADC.h ****     /* Do not connect VNEG to VREF when one channel in differential mode used */
 415:Generated_Source\PSoC6/ADC.h ****     /* Only needed for config 0 since 2+ configs == 2+ channels */
 416:Generated_Source\PSoC6/ADC.h ****     #if((ADC_CFG0_CHANNEL_COUNT == 1u) && (ADC_CFG0_SINGLE_PRESENT == 0u))
 417:Generated_Source\PSoC6/ADC.h ****         #define ADC_CFG0_SE_NEG_INPUT_INIT     0u
 418:Generated_Source\PSoC6/ADC.h ****     #else    /* multiple channels or one single channel */
 419:Generated_Source\PSoC6/ADC.h ****         #define ADC_CFG0_SE_NEG_INPUT_INIT     (ADC_NEG_SEL_VREF \
 420:Generated_Source\PSoC6/ADC.h ****                                                             << SAR_CTRL_NEG_SEL_Pos )
 421:Generated_Source\PSoC6/ADC.h ****     #endif /* (ADC_CFG0_CHANNEL_COUNT == 1u) && (ADC_CFG0_CHANNELS_MODE != 0u) */
 422:Generated_Source\PSoC6/ADC.h **** #elif (ADC_CFG0_SINGLE_PRESENT != 0u)
 423:Generated_Source\PSoC6/ADC.h ****     #define ADC_CFG0_SE_NEG_INPUT_INIT         ADC_CFG0_NEG_OTHER
 424:Generated_Source\PSoC6/ADC.h **** #else
 425:Generated_Source\PSoC6/ADC.h ****     #define ADC_CFG0_SE_NEG_INPUT_INIT         0u
ARM GAS  C:\Users\oars0\AppData\Local\Temp\cc0aZXkW.s 			page 28


 426:Generated_Source\PSoC6/ADC.h **** #endif /* ADC_CFG0_VNEG_INPUT_SEL == ADC_NEG_SEL_VSSA_KELVIN */
 427:Generated_Source\PSoC6/ADC.h **** 
 428:Generated_Source\PSoC6/ADC.h **** #if(ADC_TOTAL_CHANNELS_NUM > 1u)
 429:Generated_Source\PSoC6/ADC.h ****     #define ADC_CFG0_NEG_OTHER                 (uint16)((uint16)ADC_SARMUX__VNEG0 << SAR_CTRL_NEG_S
 430:Generated_Source\PSoC6/ADC.h ****     #define ADC_CFG0_SWITCH_CONF_INIT          0u
 431:Generated_Source\PSoC6/ADC.h **** #else /* Disable SAR sequencer from enabling routing switches in single channel mode */
 432:Generated_Source\PSoC6/ADC.h ****     #define ADC_CFG0_SWITCH_CONF_INIT          SAR_CTRL_SWITCH_DISABLE_Msk
 433:Generated_Source\PSoC6/ADC.h ****     #define ADC_CFG0_NEG_OTHER                 0u
 434:Generated_Source\PSoC6/ADC.h **** #endif /* ADC_CFG0_CHANNEL_COUNT > 1u */
 435:Generated_Source\PSoC6/ADC.h **** 
 436:Generated_Source\PSoC6/ADC.h **** /* If the SAR is configured for multiple channels, always set SAR_HW_CTRL_NEGVREF to 1 */
 437:Generated_Source\PSoC6/ADC.h **** #if(ADC_TOTAL_CHANNELS_NUM == 1u)
 438:Generated_Source\PSoC6/ADC.h ****     #define ADC_CFG0_HW_CTRL_NEGVREF_INIT      0u
 439:Generated_Source\PSoC6/ADC.h **** #else
 440:Generated_Source\PSoC6/ADC.h ****     #define ADC_CFG0_HW_CTRL_NEGVREF_INIT      SAR_CTRL_SAR_HW_CTRL_NEGVREF_Msk
 441:Generated_Source\PSoC6/ADC.h **** #endif /* ADC_CFG0_CHANNEL_COUNT == 1u */
 442:Generated_Source\PSoC6/ADC.h **** 
 443:Generated_Source\PSoC6/ADC.h **** #define ADC_CFG0_POWER_INIT  (ADC_PWR_CTRL_VREF_NORMAL_PWR)
 444:Generated_Source\PSoC6/ADC.h **** 
 445:Generated_Source\PSoC6/ADC.h **** /* SAMPLE_CTRL initial values */
 446:Generated_Source\PSoC6/ADC.h **** #define ADC_CFG0_SE_RESULT_FORMAT_INIT \
 447:Generated_Source\PSoC6/ADC.h ****         (ADC_CFG0_SINGLE_ENDED_FORMAT \
 448:Generated_Source\PSoC6/ADC.h ****         << SAR_SAMPLE_CTRL_SINGLE_ENDED_SIGNED_Pos)
 449:Generated_Source\PSoC6/ADC.h **** 
 450:Generated_Source\PSoC6/ADC.h **** #define ADC_CFG0_DIFF_RESULT_FORMAT_INIT \
 451:Generated_Source\PSoC6/ADC.h ****         (ADC_CFG0_DIFFERENTIAL_FORMAT \
 452:Generated_Source\PSoC6/ADC.h ****         << SAR_SAMPLE_CTRL_DIFFERENTIAL_SIGNED_Pos)
 453:Generated_Source\PSoC6/ADC.h **** 
 454:Generated_Source\PSoC6/ADC.h **** #define ADC_CFG0_AVG_SAMPLES_NUM_INIT \
 455:Generated_Source\PSoC6/ADC.h ****         (ADC_CFG0_SAMPLES_AVERAGED \
 456:Generated_Source\PSoC6/ADC.h ****         << SAR_SAMPLE_CTRL_AVG_CNT_Pos)
 457:Generated_Source\PSoC6/ADC.h **** 
 458:Generated_Source\PSoC6/ADC.h **** /* Combination of Average Mode and Average Shift */
 459:Generated_Source\PSoC6/ADC.h **** #define ADC_CFG0_AVG_MODE_INIT \
 460:Generated_Source\PSoC6/ADC.h ****         (ADC_CFG0_AVGERAGING_MODE \
 461:Generated_Source\PSoC6/ADC.h ****         << SAR_SAMPLE_CTRL_AVG_SHIFT_Pos)
 462:Generated_Source\PSoC6/ADC.h **** 
 463:Generated_Source\PSoC6/ADC.h **** #define ADC_CFG0_TRIGGER_OUT_INIT      (0u)
 464:Generated_Source\PSoC6/ADC.h **** #define ADC_CFG0_UAB_SCAN_MODE_INIT    (0u)
 465:Generated_Source\PSoC6/ADC.h **** 
 466:Generated_Source\PSoC6/ADC.h **** #define ADC_CFG0_VREF_POWER_INIT  \
 467:Generated_Source\PSoC6/ADC.h ****         (ADC_CFG0_VREF_PWR \
 468:Generated_Source\PSoC6/ADC.h ****         << SAR_CTRL_PWR_CTRL_VREF_Pos)
 469:Generated_Source\PSoC6/ADC.h **** 
 470:Generated_Source\PSoC6/ADC.h **** #define ADC_CFG0_COMP_PWR_INIT  \
 471:Generated_Source\PSoC6/ADC.h ****         (ADC_CFG0_COMP_PWR \
 472:Generated_Source\PSoC6/ADC.h ****         << SAR_CTRL_COMP_PWR_Pos)
 473:Generated_Source\PSoC6/ADC.h **** 
 474:Generated_Source\PSoC6/ADC.h **** #define ADC_CFG0_COMP_DLY_INIT  \
 475:Generated_Source\PSoC6/ADC.h ****         (ADC_CFG0_COMP_DLY \
 476:Generated_Source\PSoC6/ADC.h ****         << SAR_CTRL_COMP_DLY_Pos)
 477:Generated_Source\PSoC6/ADC.h **** 
 478:Generated_Source\PSoC6/ADC.h **** #define ADC_CFG0_CTRL_INIT  \
 479:Generated_Source\PSoC6/ADC.h ****         (ADC_CFG0_VREF_POWER_INIT \
 480:Generated_Source\PSoC6/ADC.h ****         | ADC_CFG0_VREF_SEL_MASK \
 481:Generated_Source\PSoC6/ADC.h ****         | ADC_CFG0_SE_NEG_INPUT_INIT \
 482:Generated_Source\PSoC6/ADC.h ****         | ADC_CFG0_HW_CTRL_NEGVREF_INIT \
ARM GAS  C:\Users\oars0\AppData\Local\Temp\cc0aZXkW.s 			page 29


 483:Generated_Source\PSoC6/ADC.h ****         | ADC_CFG0_COMP_DLY_INIT \
 484:Generated_Source\PSoC6/ADC.h ****         | SAR_CTRL_REFBUF_EN_Msk \
 485:Generated_Source\PSoC6/ADC.h ****         | ADC_CFG0_COMP_PWR_INIT \
 486:Generated_Source\PSoC6/ADC.h ****         | SAR_CTRL_DSI_SYNC_CONFIG_Msk  \
 487:Generated_Source\PSoC6/ADC.h ****         | ADC_CFG0_SWITCH_CONF_INIT )
 488:Generated_Source\PSoC6/ADC.h **** 
 489:Generated_Source\PSoC6/ADC.h **** #define ADC_CFG0_SAMPLE_CTRL_INIT \
 490:Generated_Source\PSoC6/ADC.h ****         (ADC_CFG0_SE_RESULT_FORMAT_INIT \
 491:Generated_Source\PSoC6/ADC.h ****         | ADC_CFG0_DIFF_RESULT_FORMAT_INIT \
 492:Generated_Source\PSoC6/ADC.h ****         | ADC_CFG0_AVG_SAMPLES_NUM_INIT \
 493:Generated_Source\PSoC6/ADC.h ****         | ADC_CFG0_AVG_MODE_INIT \
 494:Generated_Source\PSoC6/ADC.h ****         | ADC_CFG0_DSI_TRIGGER_LEVEL_INIT \
 495:Generated_Source\PSoC6/ADC.h ****         | ADC_CFG0_DSI_TRIGGER_EN_INIT \
 496:Generated_Source\PSoC6/ADC.h ****         | ADC_CFG0_UAB_SCAN_MODE_INIT \
 497:Generated_Source\PSoC6/ADC.h ****         | SAR_SAMPLE_CTRL_VALID_IGNORE_Msk \
 498:Generated_Source\PSoC6/ADC.h ****         | ADC_CFG0_TRIGGER_OUT_INIT \
 499:Generated_Source\PSoC6/ADC.h ****         | SAR_SAMPLE_CTRL_EOS_DSI_OUT_EN_Msk \
 500:Generated_Source\PSoC6/ADC.h **** )
 501:Generated_Source\PSoC6/ADC.h **** 
 502:Generated_Source\PSoC6/ADC.h **** #define ADC_CFG0_RANGE_THRES_INIT \
 503:Generated_Source\PSoC6/ADC.h ****         (ADC_CFG0_LOW_LIMIT \
 504:Generated_Source\PSoC6/ADC.h ****         | (uint32)((uint32)ADC_CFG0_HIGH_LIMIT \
 505:Generated_Source\PSoC6/ADC.h ****         << SAR_RANGE_THRES_RANGE_HIGH_Pos))
 506:Generated_Source\PSoC6/ADC.h **** 
 507:Generated_Source\PSoC6/ADC.h **** #define ADC_CFG0_RANGE_COND_INIT   (cy_en_sar_range_detect_condition_t)ADC_CFG0_RANGE_COND
 508:Generated_Source\PSoC6/ADC.h **** 
 509:Generated_Source\PSoC6/ADC.h **** /* Misc Config
 510:Generated_Source\PSoC6/ADC.h ****     [0] - Freerunning: Set if the sample mode is freerunning
 511:Generated_Source\PSoC6/ADC.h **** */
 512:Generated_Source\PSoC6/ADC.h **** #define ADC_CFG0_MISC_CONFIG_INIT \
 513:Generated_Source\PSoC6/ADC.h ****         (ADC_CFG0_FREERUNNING)
 514:Generated_Source\PSoC6/ADC.h **** 
 515:Generated_Source\PSoC6/ADC.h **** /* ************************************************************************** */
 516:Generated_Source\PSoC6/ADC.h **** /* End configuration 0 calculated defines                                     */
 517:Generated_Source\PSoC6/ADC.h **** /* ************************************************************************** */
 518:Generated_Source\PSoC6/ADC.h **** 
 519:Generated_Source\PSoC6/ADC.h **** /* ************************************************************************** */
 520:Generated_Source\PSoC6/ADC.h **** /* Begin configuration 1 calculated defines                                   */
 521:Generated_Source\PSoC6/ADC.h **** /* ************************************************************************** */
 522:Generated_Source\PSoC6/ADC.h **** #if(ADC_TOTAL_CONFIGS > 1)
 523:Generated_Source\PSoC6/ADC.h ****     #define ADC_CFG1_SAMPLE_TIME01_INIT \
 524:Generated_Source\PSoC6/ADC.h ****             ((ADC_CFG1_APERTURE_TIME0 \
 525:Generated_Source\PSoC6/ADC.h ****             << SAR_SAMPLE_TIME01_SAMPLE_TIME0_Pos) \
 526:Generated_Source\PSoC6/ADC.h ****             | (ADC_CFG1_APERTURE_TIME1 \
 527:Generated_Source\PSoC6/ADC.h ****             << SAR_SAMPLE_TIME01_SAMPLE_TIME1_Pos))
 528:Generated_Source\PSoC6/ADC.h **** 
 529:Generated_Source\PSoC6/ADC.h ****     #define ADC_CFG1_SAMPLE_TIME23_INIT \
 530:Generated_Source\PSoC6/ADC.h ****             ((ADC_CFG1_APERTURE_TIME2 \
 531:Generated_Source\PSoC6/ADC.h ****             << SAR_SAMPLE_TIME23_SAMPLE_TIME2_Pos) \
 532:Generated_Source\PSoC6/ADC.h ****             | (ADC_CFG1_APERTURE_TIME3 \
 533:Generated_Source\PSoC6/ADC.h ****             << SAR_SAMPLE_TIME23_SAMPLE_TIME3_Pos))
 534:Generated_Source\PSoC6/ADC.h **** 
 535:Generated_Source\PSoC6/ADC.h ****     /* Enable soc pin if used */
 536:Generated_Source\PSoC6/ADC.h ****     #define ADC_CFG1_DSI_TRIGGER_EN_INIT \
 537:Generated_Source\PSoC6/ADC.h ****             (ADC_CFG1_USE_SOC \
 538:Generated_Source\PSoC6/ADC.h ****             << SAR_SAMPLE_CTRL_DSI_TRIGGER_EN_Pos)
 539:Generated_Source\PSoC6/ADC.h **** 
ARM GAS  C:\Users\oars0\AppData\Local\Temp\cc0aZXkW.s 			page 30


 540:Generated_Source\PSoC6/ADC.h ****     /* Set soc operation to edge or level based on sample mode */
 541:Generated_Source\PSoC6/ADC.h ****     #if(ADC_CFG1_FREERUNNING == ADC_FREERUNNING)
 542:Generated_Source\PSoC6/ADC.h ****         #define ADC_CFG1_DSI_TRIGGER_LEVEL_INIT    (SAR_SAMPLE_CTRL_DSI_TRIGGER_LEVEL_Msk)
 543:Generated_Source\PSoC6/ADC.h ****     #else /* Edge trigger */
 544:Generated_Source\PSoC6/ADC.h ****         #define ADC_CFG1_DSI_TRIGGER_LEVEL_INIT    (0u)
 545:Generated_Source\PSoC6/ADC.h ****     #endif /* End ADC_CFG1_FREERUNNING == ADC_FREERUNNING */
 546:Generated_Source\PSoC6/ADC.h **** 
 547:Generated_Source\PSoC6/ADC.h ****     /* Set SE_NEG_INPUT */
 548:Generated_Source\PSoC6/ADC.h ****     #if(ADC_CFG1_VNEG_INPUT_SEL == ADC_NEG_SEL_VSSA_KELVIN)
 549:Generated_Source\PSoC6/ADC.h ****         #define ADC_CFG1_SE_NEG_INPUT_INIT \
 550:Generated_Source\PSoC6/ADC.h ****             ((uint32)(ADC_NEG_SEL_VSSA_KELVIN \
 551:Generated_Source\PSoC6/ADC.h ****             << SAR_CTRL_NEG_SEL_Pos ))
 552:Generated_Source\PSoC6/ADC.h ****     #elif(ADC_CFG1_VNEG_INPUT_SEL == ADC_NEG_SEL_VREF)
 553:Generated_Source\PSoC6/ADC.h ****         #define ADC_CFG1_SE_NEG_INPUT_INIT     (ADC_NEG_SEL_VREF \
 554:Generated_Source\PSoC6/ADC.h ****                                                             << SAR_CTRL_NEG_SEL_Pos )
 555:Generated_Source\PSoC6/ADC.h ****     #elif (ADC_CFG1_SINGLE_PRESENT != 0u)
 556:Generated_Source\PSoC6/ADC.h ****         #define ADC_CFG1_SE_NEG_INPUT_INIT         ADC_CFG1_NEG_OTHER
 557:Generated_Source\PSoC6/ADC.h ****     #else
 558:Generated_Source\PSoC6/ADC.h ****         #define ADC_CFG1_SE_NEG_INPUT_INIT         0u
 559:Generated_Source\PSoC6/ADC.h ****     #endif /* ADC_CFG1_VNEG_INPUT_SEL == ADC_NEG_SEL_VSSA_KELVIN */
 560:Generated_Source\PSoC6/ADC.h **** 
 561:Generated_Source\PSoC6/ADC.h ****     #define ADC_CFG1_NEG_OTHER                 (uint16)((uint16)ADC_SARMUX__VNEG1 << SAR_CTRL_NEG_S
 562:Generated_Source\PSoC6/ADC.h ****     #define ADC_CFG1_SWITCH_CONF_INIT          0u
 563:Generated_Source\PSoC6/ADC.h **** 
 564:Generated_Source\PSoC6/ADC.h ****     /* If the SAR is configured for multiple channels, always set SAR_HW_CTRL_NEGVREF to 1 */
 565:Generated_Source\PSoC6/ADC.h ****     #define ADC_CFG1_HW_CTRL_NEGVREF_INIT      SAR_CTRL_SAR_HW_CTRL_NEGVREF_Msk
 566:Generated_Source\PSoC6/ADC.h **** 
 567:Generated_Source\PSoC6/ADC.h ****     #define ADC_CFG1_POWER_INIT  (ADC_PWR_CTRL_VREF_NORMAL_PWR)
 568:Generated_Source\PSoC6/ADC.h **** 
 569:Generated_Source\PSoC6/ADC.h ****     /* SAMPLE_CTRL initial values */
 570:Generated_Source\PSoC6/ADC.h ****     #define ADC_CFG1_SE_RESULT_FORMAT_INIT \
 571:Generated_Source\PSoC6/ADC.h ****             (ADC_CFG1_SINGLE_ENDED_FORMAT \
 572:Generated_Source\PSoC6/ADC.h ****             << SAR_SAMPLE_CTRL_SINGLE_ENDED_SIGNED_Pos)
 573:Generated_Source\PSoC6/ADC.h **** 
 574:Generated_Source\PSoC6/ADC.h ****     #define ADC_CFG1_DIFF_RESULT_FORMAT_INIT \
 575:Generated_Source\PSoC6/ADC.h ****             (ADC_CFG1_DIFFERENTIAL_FORMAT \
 576:Generated_Source\PSoC6/ADC.h ****             << SAR_SAMPLE_CTRL_DIFFERENTIAL_SIGNED_Pos)
 577:Generated_Source\PSoC6/ADC.h **** 
 578:Generated_Source\PSoC6/ADC.h ****     #define ADC_CFG1_AVG_SAMPLES_NUM_INIT \
 579:Generated_Source\PSoC6/ADC.h ****             (ADC_CFG1_SAMPLES_AVERAGED \
 580:Generated_Source\PSoC6/ADC.h ****             << SAR_SAMPLE_CTRL_AVG_CNT_Pos)
 581:Generated_Source\PSoC6/ADC.h **** 
 582:Generated_Source\PSoC6/ADC.h ****     /* Combination of Average Mode and Average Shift */
 583:Generated_Source\PSoC6/ADC.h ****     #define ADC_CFG1_AVG_MODE_INIT \
 584:Generated_Source\PSoC6/ADC.h ****             (ADC_CFG1_AVGERAGING_MODE \
 585:Generated_Source\PSoC6/ADC.h ****             << SAR_SAMPLE_CTRL_AVG_SHIFT_Pos)
 586:Generated_Source\PSoC6/ADC.h **** 
 587:Generated_Source\PSoC6/ADC.h ****     #define ADC_CFG1_TRIGGER_OUT_INIT      (0u)
 588:Generated_Source\PSoC6/ADC.h ****     #define ADC_CFG1_UAB_SCAN_MODE_INIT    (0u)
 589:Generated_Source\PSoC6/ADC.h **** 
 590:Generated_Source\PSoC6/ADC.h ****     #define ADC_CFG1_VREF_POWER_INIT  \
 591:Generated_Source\PSoC6/ADC.h ****             (ADC_CFG1_VREF_PWR \
 592:Generated_Source\PSoC6/ADC.h ****             << SAR_CTRL_PWR_CTRL_VREF_Pos)
 593:Generated_Source\PSoC6/ADC.h **** 
 594:Generated_Source\PSoC6/ADC.h ****     #define ADC_CFG1_COMP_PWR_INIT  \
 595:Generated_Source\PSoC6/ADC.h ****             (ADC_CFG1_COMP_PWR \
 596:Generated_Source\PSoC6/ADC.h ****             << SAR_CTRL_COMP_PWR_Pos)
ARM GAS  C:\Users\oars0\AppData\Local\Temp\cc0aZXkW.s 			page 31


 597:Generated_Source\PSoC6/ADC.h **** 
 598:Generated_Source\PSoC6/ADC.h ****     #define ADC_CFG1_COMP_DLY_INIT  \
 599:Generated_Source\PSoC6/ADC.h ****             (ADC_CFG1_COMP_DLY \
 600:Generated_Source\PSoC6/ADC.h ****             << SAR_CTRL_COMP_DLY_Pos)
 601:Generated_Source\PSoC6/ADC.h **** 
 602:Generated_Source\PSoC6/ADC.h ****     #define ADC_CFG1_CTRL_INIT  \
 603:Generated_Source\PSoC6/ADC.h ****             (ADC_CFG1_VREF_POWER_INIT \
 604:Generated_Source\PSoC6/ADC.h ****             | ADC_CFG1_VREF_SEL_MASK \
 605:Generated_Source\PSoC6/ADC.h ****             | ADC_CFG1_SE_NEG_INPUT_INIT \
 606:Generated_Source\PSoC6/ADC.h ****             | ADC_CFG1_HW_CTRL_NEGVREF_INIT \
 607:Generated_Source\PSoC6/ADC.h ****             | ADC_CFG1_COMP_DLY_INIT \
 608:Generated_Source\PSoC6/ADC.h ****             | SAR_CTRL_REFBUF_EN_Msk \
 609:Generated_Source\PSoC6/ADC.h ****             | ADC_CFG1_COMP_PWR_INIT \
 610:Generated_Source\PSoC6/ADC.h ****             | SAR_CTRL_DSI_SYNC_CONFIG_Msk  \
 611:Generated_Source\PSoC6/ADC.h ****             | ADC_CFG1_SWITCH_CONF_INIT )
 612:Generated_Source\PSoC6/ADC.h **** 
 613:Generated_Source\PSoC6/ADC.h ****     #define ADC_CFG1_SAMPLE_CTRL_INIT \
 614:Generated_Source\PSoC6/ADC.h ****             (ADC_CFG1_SE_RESULT_FORMAT_INIT \
 615:Generated_Source\PSoC6/ADC.h ****             | ADC_CFG1_DIFF_RESULT_FORMAT_INIT \
 616:Generated_Source\PSoC6/ADC.h ****             | ADC_CFG1_AVG_SAMPLES_NUM_INIT \
 617:Generated_Source\PSoC6/ADC.h ****             | ADC_CFG1_AVG_MODE_INIT \
 618:Generated_Source\PSoC6/ADC.h ****             | ADC_CFG1_DSI_TRIGGER_LEVEL_INIT \
 619:Generated_Source\PSoC6/ADC.h ****             | ADC_CFG1_DSI_TRIGGER_EN_INIT \
 620:Generated_Source\PSoC6/ADC.h ****             | ADC_CFG1_UAB_SCAN_MODE_INIT \
 621:Generated_Source\PSoC6/ADC.h ****             | SAR_SAMPLE_CTRL_VALID_IGNORE_Msk \
 622:Generated_Source\PSoC6/ADC.h ****             | ADC_CFG1_TRIGGER_OUT_INIT \
 623:Generated_Source\PSoC6/ADC.h ****             | SAR_SAMPLE_CTRL_EOS_DSI_OUT_EN_Msk \
 624:Generated_Source\PSoC6/ADC.h ****     )
 625:Generated_Source\PSoC6/ADC.h **** 
 626:Generated_Source\PSoC6/ADC.h ****     #define ADC_CFG1_RANGE_THRES_INIT \
 627:Generated_Source\PSoC6/ADC.h ****             (ADC_CFG1_LOW_LIMIT \
 628:Generated_Source\PSoC6/ADC.h ****             | (uint32)((uint32)ADC_CFG1_HIGH_LIMIT \
 629:Generated_Source\PSoC6/ADC.h ****             << SAR_RANGE_THRES_RANGE_HIGH_Pos))
 630:Generated_Source\PSoC6/ADC.h **** 
 631:Generated_Source\PSoC6/ADC.h ****     #define ADC_CFG1_RANGE_COND_INIT   (cy_en_sar_range_detect_condition_t)ADC_CFG1_RANGE_COND
 632:Generated_Source\PSoC6/ADC.h **** 
 633:Generated_Source\PSoC6/ADC.h ****     /* Misc Config
 634:Generated_Source\PSoC6/ADC.h ****         [0] - Freerunning: Set if the sample mode is freerunning
 635:Generated_Source\PSoC6/ADC.h ****     */
 636:Generated_Source\PSoC6/ADC.h ****     #define ADC_CFG1_MISC_CONFIG_INIT \
 637:Generated_Source\PSoC6/ADC.h ****             (ADC_CFG1_FREERUNNING)
 638:Generated_Source\PSoC6/ADC.h **** #endif /* ADC_TOTAL_CONFIGS > 1 */
 639:Generated_Source\PSoC6/ADC.h **** 
 640:Generated_Source\PSoC6/ADC.h **** /* ************************************************************************** */
 641:Generated_Source\PSoC6/ADC.h **** /* End configuration 1 calculated defines                                     */
 642:Generated_Source\PSoC6/ADC.h **** /* ************************************************************************** */
 643:Generated_Source\PSoC6/ADC.h **** 
 644:Generated_Source\PSoC6/ADC.h **** /* ************************************************************************** */
 645:Generated_Source\PSoC6/ADC.h **** /* Begin configuration 2 calculated defines                                   */
 646:Generated_Source\PSoC6/ADC.h **** /* ************************************************************************** */
 647:Generated_Source\PSoC6/ADC.h **** #if(ADC_TOTAL_CONFIGS > 2)
 648:Generated_Source\PSoC6/ADC.h ****     #define ADC_CFG2_SAMPLE_TIME01_INIT \
 649:Generated_Source\PSoC6/ADC.h ****             ((ADC_CFG2_APERTURE_TIME0 \
 650:Generated_Source\PSoC6/ADC.h ****             << SAR_SAMPLE_TIME01_SAMPLE_TIME0_Pos) \
 651:Generated_Source\PSoC6/ADC.h ****             | (ADC_CFG2_APERTURE_TIME1 \
 652:Generated_Source\PSoC6/ADC.h ****             << SAR_SAMPLE_TIME01_SAMPLE_TIME1_Pos))
 653:Generated_Source\PSoC6/ADC.h **** 
ARM GAS  C:\Users\oars0\AppData\Local\Temp\cc0aZXkW.s 			page 32


 654:Generated_Source\PSoC6/ADC.h ****     #define ADC_CFG2_SAMPLE_TIME23_INIT \
 655:Generated_Source\PSoC6/ADC.h ****             ((ADC_CFG2_APERTURE_TIME2 \
 656:Generated_Source\PSoC6/ADC.h ****             << SAR_SAMPLE_TIME23_SAMPLE_TIME2_Pos) \
 657:Generated_Source\PSoC6/ADC.h ****             | (ADC_CFG2_APERTURE_TIME3 \
 658:Generated_Source\PSoC6/ADC.h ****             << SAR_SAMPLE_TIME23_SAMPLE_TIME3_Pos))
 659:Generated_Source\PSoC6/ADC.h **** 
 660:Generated_Source\PSoC6/ADC.h ****     /* Enable soc pin if used */
 661:Generated_Source\PSoC6/ADC.h ****     #define ADC_CFG2_DSI_TRIGGER_EN_INIT \
 662:Generated_Source\PSoC6/ADC.h ****             (ADC_CFG2_USE_SOC \
 663:Generated_Source\PSoC6/ADC.h ****             << SAR_SAMPLE_CTRL_DSI_TRIGGER_EN_Pos)
 664:Generated_Source\PSoC6/ADC.h **** 
 665:Generated_Source\PSoC6/ADC.h ****     /* Set soc operation to edge or level based on sample mode */
 666:Generated_Source\PSoC6/ADC.h ****     #if(ADC_CFG2_FREERUNNING == ADC_FREERUNNING)
 667:Generated_Source\PSoC6/ADC.h ****         #define ADC_CFG2_DSI_TRIGGER_LEVEL_INIT    (SAR_SAMPLE_CTRL_DSI_TRIGGER_LEVEL_Msk)
 668:Generated_Source\PSoC6/ADC.h ****     #else /* Edge trigger */
 669:Generated_Source\PSoC6/ADC.h ****         #define ADC_CFG2_DSI_TRIGGER_LEVEL_INIT    (0u)
 670:Generated_Source\PSoC6/ADC.h ****     #endif /* End ADC_CFG2_FREERUNNING == ADC_FREERUNNING */
 671:Generated_Source\PSoC6/ADC.h **** 
 672:Generated_Source\PSoC6/ADC.h ****     /* Set SE_NEG_INPUT */
 673:Generated_Source\PSoC6/ADC.h ****     #if(ADC_CFG2_VNEG_INPUT_SEL == ADC_NEG_SEL_VSSA_KELVIN)
 674:Generated_Source\PSoC6/ADC.h ****         #define ADC_CFG2_SE_NEG_INPUT_INIT \
 675:Generated_Source\PSoC6/ADC.h ****             ((uint32)(ADC_NEG_SEL_VSSA_KELVIN \
 676:Generated_Source\PSoC6/ADC.h ****             << SAR_CTRL_NEG_SEL_Pos ))
 677:Generated_Source\PSoC6/ADC.h ****     #elif(ADC_CFG2_VNEG_INPUT_SEL == ADC_NEG_SEL_VREF)
 678:Generated_Source\PSoC6/ADC.h ****         #define ADC_CFG2_SE_NEG_INPUT_INIT     (ADC_NEG_SEL_VREF \
 679:Generated_Source\PSoC6/ADC.h ****                                                                 << SAR_CTRL_NEG_SEL_Pos )
 680:Generated_Source\PSoC6/ADC.h ****     #elif (ADC_CFG2_SINGLE_PRESENT != 0u)
 681:Generated_Source\PSoC6/ADC.h ****         #define ADC_CFG2_SE_NEG_INPUT_INIT         ADC_CFG2_NEG_OTHER
 682:Generated_Source\PSoC6/ADC.h ****     #else
 683:Generated_Source\PSoC6/ADC.h ****         #define ADC_CFG2_SE_NEG_INPUT_INIT         0u
 684:Generated_Source\PSoC6/ADC.h ****     #endif /* ADC_CFG2_VNEG_INPUT_SEL == ADC_NEG_SEL_VSSA_KELVIN */
 685:Generated_Source\PSoC6/ADC.h **** 
 686:Generated_Source\PSoC6/ADC.h ****    #define ADC_CFG2_NEG_OTHER                 (uint16)((uint16)ADC_SARMUX__VNEG2 << SAR_CTRL_NEG_SE
 687:Generated_Source\PSoC6/ADC.h **** 
 688:Generated_Source\PSoC6/ADC.h ****     #define ADC_CFG2_SWITCH_CONF_INIT          0u
 689:Generated_Source\PSoC6/ADC.h **** 
 690:Generated_Source\PSoC6/ADC.h ****     /* If the SAR is configured for multiple channels, always set SAR_HW_CTRL_NEGVREF to 1 */
 691:Generated_Source\PSoC6/ADC.h ****     #define ADC_CFG2_HW_CTRL_NEGVREF_INIT      SAR_CTRL_SAR_HW_CTRL_NEGVREF_Msk
 692:Generated_Source\PSoC6/ADC.h **** 
 693:Generated_Source\PSoC6/ADC.h ****     #define ADC_CFG2_POWER_INIT  (ADC_PWR_CTRL_VREF_NORMAL_PWR)
 694:Generated_Source\PSoC6/ADC.h **** 
 695:Generated_Source\PSoC6/ADC.h ****     /* SAMPLE_CTRL initial values */
 696:Generated_Source\PSoC6/ADC.h ****     #define ADC_CFG2_SE_RESULT_FORMAT_INIT \
 697:Generated_Source\PSoC6/ADC.h ****             (ADC_CFG2_SINGLE_ENDED_FORMAT \
 698:Generated_Source\PSoC6/ADC.h ****             << SAR_SAMPLE_CTRL_SINGLE_ENDED_SIGNED_Pos)
 699:Generated_Source\PSoC6/ADC.h **** 
 700:Generated_Source\PSoC6/ADC.h ****     #define ADC_CFG2_DIFF_RESULT_FORMAT_INIT \
 701:Generated_Source\PSoC6/ADC.h ****             (ADC_CFG2_DIFFERENTIAL_FORMAT \
 702:Generated_Source\PSoC6/ADC.h ****             << SAR_SAMPLE_CTRL_DIFFERENTIAL_SIGNED_Pos)
 703:Generated_Source\PSoC6/ADC.h **** 
 704:Generated_Source\PSoC6/ADC.h ****     #define ADC_CFG2_AVG_SAMPLES_NUM_INIT \
 705:Generated_Source\PSoC6/ADC.h ****             (ADC_CFG2_SAMPLES_AVERAGED \
 706:Generated_Source\PSoC6/ADC.h ****             << SAR_SAMPLE_CTRL_AVG_CNT_Pos)
 707:Generated_Source\PSoC6/ADC.h **** 
 708:Generated_Source\PSoC6/ADC.h ****     /* Combination of Average Mode and Average Shift */
 709:Generated_Source\PSoC6/ADC.h ****     #define ADC_CFG2_AVG_MODE_INIT \
 710:Generated_Source\PSoC6/ADC.h ****             (ADC_CFG2_AVGERAGING_MODE \
ARM GAS  C:\Users\oars0\AppData\Local\Temp\cc0aZXkW.s 			page 33


 711:Generated_Source\PSoC6/ADC.h ****             << SAR_SAMPLE_CTRL_AVG_SHIFT_Pos)
 712:Generated_Source\PSoC6/ADC.h **** 
 713:Generated_Source\PSoC6/ADC.h ****     #define ADC_CFG2_TRIGGER_OUT_INIT      (0u)
 714:Generated_Source\PSoC6/ADC.h ****     #define ADC_CFG2_UAB_SCAN_MODE_INIT    (0u)
 715:Generated_Source\PSoC6/ADC.h **** 
 716:Generated_Source\PSoC6/ADC.h **** 
 717:Generated_Source\PSoC6/ADC.h ****     #define ADC_CFG2_VREF_POWER_INIT  \
 718:Generated_Source\PSoC6/ADC.h ****             (ADC_CFG2_VREF_PWR \
 719:Generated_Source\PSoC6/ADC.h ****             << SAR_CTRL_PWR_CTRL_VREF_Pos)
 720:Generated_Source\PSoC6/ADC.h **** 
 721:Generated_Source\PSoC6/ADC.h ****     #define ADC_CFG2_COMP_PWR_INIT  \
 722:Generated_Source\PSoC6/ADC.h ****             (ADC_CFG2_COMP_PWR \
 723:Generated_Source\PSoC6/ADC.h ****             << SAR_CTRL_COMP_PWR_Pos)
 724:Generated_Source\PSoC6/ADC.h **** 
 725:Generated_Source\PSoC6/ADC.h ****     #define ADC_CFG2_COMP_DLY_INIT  \
 726:Generated_Source\PSoC6/ADC.h ****             (ADC_CFG2_COMP_DLY \
 727:Generated_Source\PSoC6/ADC.h ****             << SAR_CTRL_COMP_DLY_Pos)
 728:Generated_Source\PSoC6/ADC.h **** 
 729:Generated_Source\PSoC6/ADC.h ****     #define ADC_CFG2_CTRL_INIT  \
 730:Generated_Source\PSoC6/ADC.h ****             (ADC_CFG2_VREF_POWER_INIT \
 731:Generated_Source\PSoC6/ADC.h ****             | ADC_CFG2_VREF_SEL_MASK \
 732:Generated_Source\PSoC6/ADC.h ****             | ADC_CFG2_SE_NEG_INPUT_INIT \
 733:Generated_Source\PSoC6/ADC.h ****             | ADC_CFG2_HW_CTRL_NEGVREF_INIT \
 734:Generated_Source\PSoC6/ADC.h ****             | ADC_CFG2_COMP_DLY_INIT \
 735:Generated_Source\PSoC6/ADC.h ****             | SAR_CTRL_REFBUF_EN_Msk \
 736:Generated_Source\PSoC6/ADC.h ****             | ADC_CFG2_COMP_PWR_INIT \
 737:Generated_Source\PSoC6/ADC.h ****             | SAR_CTRL_DSI_SYNC_CONFIG_Msk  \
 738:Generated_Source\PSoC6/ADC.h ****             | ADC_CFG2_SWITCH_CONF_INIT )
 739:Generated_Source\PSoC6/ADC.h **** 
 740:Generated_Source\PSoC6/ADC.h **** 
 741:Generated_Source\PSoC6/ADC.h ****     #define ADC_CFG2_SAMPLE_CTRL_INIT \
 742:Generated_Source\PSoC6/ADC.h ****             (ADC_CFG2_SE_RESULT_FORMAT_INIT \
 743:Generated_Source\PSoC6/ADC.h ****             | ADC_CFG2_DIFF_RESULT_FORMAT_INIT \
 744:Generated_Source\PSoC6/ADC.h ****             | ADC_CFG2_AVG_SAMPLES_NUM_INIT \
 745:Generated_Source\PSoC6/ADC.h ****             | ADC_CFG2_AVG_MODE_INIT \
 746:Generated_Source\PSoC6/ADC.h ****             | ADC_CFG2_DSI_TRIGGER_LEVEL_INIT \
 747:Generated_Source\PSoC6/ADC.h ****             | ADC_CFG2_DSI_TRIGGER_EN_INIT \
 748:Generated_Source\PSoC6/ADC.h ****             | ADC_CFG2_UAB_SCAN_MODE_INIT \
 749:Generated_Source\PSoC6/ADC.h ****             | SAR_SAMPLE_CTRL_VALID_IGNORE_Msk \
 750:Generated_Source\PSoC6/ADC.h ****             | ADC_CFG2_TRIGGER_OUT_INIT \
 751:Generated_Source\PSoC6/ADC.h ****             | SAR_SAMPLE_CTRL_EOS_DSI_OUT_EN_Msk \
 752:Generated_Source\PSoC6/ADC.h ****     )
 753:Generated_Source\PSoC6/ADC.h **** 
 754:Generated_Source\PSoC6/ADC.h ****     #define ADC_CFG2_RANGE_THRES_INIT \
 755:Generated_Source\PSoC6/ADC.h ****             (ADC_CFG2_LOW_LIMIT \
 756:Generated_Source\PSoC6/ADC.h ****             | (uint32)((uint32)ADC_CFG2_HIGH_LIMIT \
 757:Generated_Source\PSoC6/ADC.h ****             << SAR_RANGE_THRES_RANGE_HIGH_Pos))
 758:Generated_Source\PSoC6/ADC.h **** 
 759:Generated_Source\PSoC6/ADC.h ****     #define ADC_CFG2_RANGE_COND_INIT   (cy_en_sar_range_detect_condition_t)ADC_CFG2_RANGE_COND
 760:Generated_Source\PSoC6/ADC.h **** 
 761:Generated_Source\PSoC6/ADC.h ****     /* Misc Config
 762:Generated_Source\PSoC6/ADC.h ****         [0] - Freerunning: Set if the sample mode is freerunning
 763:Generated_Source\PSoC6/ADC.h ****     */
 764:Generated_Source\PSoC6/ADC.h ****     #define ADC_CFG2_MISC_CONFIG_INIT \
 765:Generated_Source\PSoC6/ADC.h ****             (ADC_CFG2_FREERUNNING)
 766:Generated_Source\PSoC6/ADC.h **** #endif /* ADC_TOTAL_CONFIGS > 2 */
 767:Generated_Source\PSoC6/ADC.h **** 
ARM GAS  C:\Users\oars0\AppData\Local\Temp\cc0aZXkW.s 			page 34


 768:Generated_Source\PSoC6/ADC.h **** /* ************************************************************************** */
 769:Generated_Source\PSoC6/ADC.h **** /* End configuration 2 calculated defines                                     */
 770:Generated_Source\PSoC6/ADC.h **** /* ************************************************************************** */
 771:Generated_Source\PSoC6/ADC.h **** 
 772:Generated_Source\PSoC6/ADC.h **** /* ************************************************************************** */
 773:Generated_Source\PSoC6/ADC.h **** /* Begin configuration 3 calculated defines                                   */
 774:Generated_Source\PSoC6/ADC.h **** /* ************************************************************************** */
 775:Generated_Source\PSoC6/ADC.h **** #if(ADC_TOTAL_CONFIGS > 3)
 776:Generated_Source\PSoC6/ADC.h ****     #define ADC_CFG3_SAMPLE_TIME01_INIT \
 777:Generated_Source\PSoC6/ADC.h ****             ((ADC_CFG3_APERTURE_TIME0 \
 778:Generated_Source\PSoC6/ADC.h ****             << SAR_SAMPLE_TIME01_SAMPLE_TIME0_Pos) \
 779:Generated_Source\PSoC6/ADC.h ****             | (ADC_CFG3_APERTURE_TIME1 \
 780:Generated_Source\PSoC6/ADC.h ****             << SAR_SAMPLE_TIME01_SAMPLE_TIME1_Pos))
 781:Generated_Source\PSoC6/ADC.h **** 
 782:Generated_Source\PSoC6/ADC.h ****     #define ADC_CFG3_SAMPLE_TIME23_INIT \
 783:Generated_Source\PSoC6/ADC.h ****             ((ADC_CFG3_APERTURE_TIME2 \
 784:Generated_Source\PSoC6/ADC.h ****             << SAR_SAMPLE_TIME23_SAMPLE_TIME2_Pos) \
 785:Generated_Source\PSoC6/ADC.h ****             | (ADC_CFG3_APERTURE_TIME3 \
 786:Generated_Source\PSoC6/ADC.h ****             << SAR_SAMPLE_TIME23_SAMPLE_TIME3_Pos))
 787:Generated_Source\PSoC6/ADC.h **** 
 788:Generated_Source\PSoC6/ADC.h ****     /* Enable soc pin if used */
 789:Generated_Source\PSoC6/ADC.h ****     #define ADC_CFG3_DSI_TRIGGER_EN_INIT \
 790:Generated_Source\PSoC6/ADC.h ****             (ADC_CFG3_USE_SOC \
 791:Generated_Source\PSoC6/ADC.h ****              << SAR_SAMPLE_CTRL_DSI_TRIGGER_EN_Pos)
 792:Generated_Source\PSoC6/ADC.h **** 
 793:Generated_Source\PSoC6/ADC.h ****     /* Set soc operation to edge or level based on sample mode */
 794:Generated_Source\PSoC6/ADC.h ****     #if(ADC_CFG3_FREERUNNING == ADC_FREERUNNING)
 795:Generated_Source\PSoC6/ADC.h ****         #define ADC_CFG3_DSI_TRIGGER_LEVEL_INIT    (SAR_SAMPLE_CTRL_DSI_TRIGGER_LEVEL_Msk)
 796:Generated_Source\PSoC6/ADC.h ****     #else /* Edge trigger */
 797:Generated_Source\PSoC6/ADC.h ****         #define ADC_CFG3_DSI_TRIGGER_LEVEL_INIT    (0u)
 798:Generated_Source\PSoC6/ADC.h ****     #endif /* End ADC_CFG3_FREERUNNING == ADC_FREERUNNING */
 799:Generated_Source\PSoC6/ADC.h **** 
 800:Generated_Source\PSoC6/ADC.h ****     /* Set SE_NEG_INPUT  */
 801:Generated_Source\PSoC6/ADC.h ****     #if(ADC_CFG3_VNEG_INPUT_SEL == ADC_NEG_SEL_VSSA_KELVIN)
 802:Generated_Source\PSoC6/ADC.h ****         #define ADC_CFG3_SE_NEG_INPUT_INIT \
 803:Generated_Source\PSoC6/ADC.h ****             ((uint32)(ADC_NEG_SEL_VSSA_KELVIN \
 804:Generated_Source\PSoC6/ADC.h ****             << SAR_CTRL_NEG_SEL_Pos ))
 805:Generated_Source\PSoC6/ADC.h ****     #elif(ADC_CFG3_VNEG_INPUT_SEL == ADC_NEG_SEL_VREF)
 806:Generated_Source\PSoC6/ADC.h ****         #define ADC_CFG3_SE_NEG_INPUT_INIT     (ADC_NEG_SEL_VREF \
 807:Generated_Source\PSoC6/ADC.h ****                                                                 << SAR_CTRL_NEG_SEL_Pos )
 808:Generated_Source\PSoC6/ADC.h ****     #elif (ADC_CFG3_SINGLE_PRESENT != 0u)
 809:Generated_Source\PSoC6/ADC.h ****         #define ADC_CFG3_SE_NEG_INPUT_INIT         ADC_CFG3_NEG_OTHER
 810:Generated_Source\PSoC6/ADC.h ****     #else
 811:Generated_Source\PSoC6/ADC.h ****         #define ADC_CFG3_SE_NEG_INPUT_INIT         0u
 812:Generated_Source\PSoC6/ADC.h ****     #endif /* ADC_CFG3_VNEG_INPUT_SEL == ADC_NEG_SEL_VSSA_KELVIN */
 813:Generated_Source\PSoC6/ADC.h **** 
 814:Generated_Source\PSoC6/ADC.h ****     #define ADC_CFG3_NEG_OTHER                 (uint16)((uint16)ADC_SARMUX__VNEG3 << SAR_CTRL_NEG_S
 815:Generated_Source\PSoC6/ADC.h **** 
 816:Generated_Source\PSoC6/ADC.h ****     #define ADC_CFG3_SWITCH_CONF_INIT          0u
 817:Generated_Source\PSoC6/ADC.h **** 
 818:Generated_Source\PSoC6/ADC.h ****     /* If the SAR is configured for multiple channels, always set SAR_HW_CTRL_NEGVREF to 1 */
 819:Generated_Source\PSoC6/ADC.h ****     #define ADC_CFG3_HW_CTRL_NEGVREF_INIT      SAR_CTRL_SAR_HW_CTRL_NEGVREF_Msk
 820:Generated_Source\PSoC6/ADC.h **** 
 821:Generated_Source\PSoC6/ADC.h ****     #define ADC_CFG3_POWER_INIT  (ADC_PWR_CTRL_VREF_NORMAL_PWR)
 822:Generated_Source\PSoC6/ADC.h **** 
 823:Generated_Source\PSoC6/ADC.h ****     /* SAMPLE_CTRL initial values */
 824:Generated_Source\PSoC6/ADC.h ****     #define ADC_CFG3_SE_RESULT_FORMAT_INIT \
ARM GAS  C:\Users\oars0\AppData\Local\Temp\cc0aZXkW.s 			page 35


 825:Generated_Source\PSoC6/ADC.h ****             (ADC_CFG3_SINGLE_ENDED_FORMAT \
 826:Generated_Source\PSoC6/ADC.h ****             << SAR_SAMPLE_CTRL_SINGLE_ENDED_SIGNED_Pos)
 827:Generated_Source\PSoC6/ADC.h **** 
 828:Generated_Source\PSoC6/ADC.h ****     #define ADC_CFG3_DIFF_RESULT_FORMAT_INIT \
 829:Generated_Source\PSoC6/ADC.h ****             (ADC_CFG3_DIFFERENTIAL_FORMAT \
 830:Generated_Source\PSoC6/ADC.h ****             << SAR_SAMPLE_CTRL_DIFFERENTIAL_SIGNED_Pos)
 831:Generated_Source\PSoC6/ADC.h **** 
 832:Generated_Source\PSoC6/ADC.h ****     #define ADC_CFG3_AVG_SAMPLES_NUM_INIT \
 833:Generated_Source\PSoC6/ADC.h ****             (ADC_CFG3_SAMPLES_AVERAGED \
 834:Generated_Source\PSoC6/ADC.h ****             << SAR_SAMPLE_CTRL_AVG_CNT_Pos)
 835:Generated_Source\PSoC6/ADC.h **** 
 836:Generated_Source\PSoC6/ADC.h ****     /* Combination of Average Mode and Average Shift */
 837:Generated_Source\PSoC6/ADC.h ****     #define ADC_CFG3_AVG_MODE_INIT \
 838:Generated_Source\PSoC6/ADC.h ****             (ADC_CFG3_AVGERAGING_MODE \
 839:Generated_Source\PSoC6/ADC.h ****             << SAR_SAMPLE_CTRL_AVG_SHIFT_Pos)
 840:Generated_Source\PSoC6/ADC.h **** 
 841:Generated_Source\PSoC6/ADC.h ****     #define ADC_CFG3_TRIGGER_OUT_INIT      (0u)
 842:Generated_Source\PSoC6/ADC.h ****     #define ADC_CFG3_UAB_SCAN_MODE_INIT    (0u)
 843:Generated_Source\PSoC6/ADC.h **** 
 844:Generated_Source\PSoC6/ADC.h ****     #define ADC_CFG3_VREF_POWER_INIT  \
 845:Generated_Source\PSoC6/ADC.h ****             (ADC_CFG3_VREF_PWR \
 846:Generated_Source\PSoC6/ADC.h ****             << SAR_CTRL_PWR_CTRL_VREF_Pos)
 847:Generated_Source\PSoC6/ADC.h **** 
 848:Generated_Source\PSoC6/ADC.h ****     #define ADC_CFG3_COMP_PWR_INIT  \
 849:Generated_Source\PSoC6/ADC.h ****             (ADC_CFG3_COMP_PWR \
 850:Generated_Source\PSoC6/ADC.h ****             << SAR_CTRL_COMP_PWR_Pos)
 851:Generated_Source\PSoC6/ADC.h **** 
 852:Generated_Source\PSoC6/ADC.h ****     #define ADC_CFG3_COMP_DLY_INIT  \
 853:Generated_Source\PSoC6/ADC.h ****             (ADC_CFG3_COMP_DLY \
 854:Generated_Source\PSoC6/ADC.h ****             << SAR_CTRL_COMP_DLY_Pos)
 855:Generated_Source\PSoC6/ADC.h **** 
 856:Generated_Source\PSoC6/ADC.h ****     #define ADC_CFG3_CTRL_INIT  \
 857:Generated_Source\PSoC6/ADC.h ****             (ADC_CFG3_VREF_POWER_INIT \
 858:Generated_Source\PSoC6/ADC.h ****             | ADC_CFG3_VREF_SEL_MASK \
 859:Generated_Source\PSoC6/ADC.h ****             | ADC_CFG3_SE_NEG_INPUT_INIT \
 860:Generated_Source\PSoC6/ADC.h ****             | ADC_CFG3_HW_CTRL_NEGVREF_INIT \
 861:Generated_Source\PSoC6/ADC.h ****             | ADC_CFG3_COMP_DLY_INIT \
 862:Generated_Source\PSoC6/ADC.h ****             | SAR_CTRL_REFBUF_EN_Msk \
 863:Generated_Source\PSoC6/ADC.h ****             | ADC_CFG3_COMP_PWR_INIT \
 864:Generated_Source\PSoC6/ADC.h ****             | SAR_CTRL_DSI_SYNC_CONFIG_Msk  \
 865:Generated_Source\PSoC6/ADC.h ****             | ADC_CFG3_SWITCH_CONF_INIT )
 866:Generated_Source\PSoC6/ADC.h **** 
 867:Generated_Source\PSoC6/ADC.h **** 
 868:Generated_Source\PSoC6/ADC.h ****     #define ADC_CFG3_SAMPLE_CTRL_INIT \
 869:Generated_Source\PSoC6/ADC.h ****             (ADC_CFG3_SE_RESULT_FORMAT_INIT \
 870:Generated_Source\PSoC6/ADC.h ****             | ADC_CFG3_DIFF_RESULT_FORMAT_INIT \
 871:Generated_Source\PSoC6/ADC.h ****             | ADC_CFG3_AVG_SAMPLES_NUM_INIT \
 872:Generated_Source\PSoC6/ADC.h ****             | ADC_CFG3_AVG_MODE_INIT \
 873:Generated_Source\PSoC6/ADC.h ****             | ADC_CFG3_DSI_TRIGGER_LEVEL_INIT \
 874:Generated_Source\PSoC6/ADC.h ****             | ADC_CFG3_DSI_TRIGGER_EN_INIT \
 875:Generated_Source\PSoC6/ADC.h ****             | ADC_CFG3_UAB_SCAN_MODE_INIT \
 876:Generated_Source\PSoC6/ADC.h ****             | SAR_SAMPLE_CTRL_VALID_IGNORE_Msk \
 877:Generated_Source\PSoC6/ADC.h ****             | ADC_CFG3_TRIGGER_OUT_INIT \
 878:Generated_Source\PSoC6/ADC.h ****             | SAR_SAMPLE_CTRL_EOS_DSI_OUT_EN_Msk \
 879:Generated_Source\PSoC6/ADC.h ****     )
 880:Generated_Source\PSoC6/ADC.h **** 
 881:Generated_Source\PSoC6/ADC.h ****     #define ADC_CFG3_RANGE_THRES_INIT \
ARM GAS  C:\Users\oars0\AppData\Local\Temp\cc0aZXkW.s 			page 36


 882:Generated_Source\PSoC6/ADC.h ****             (ADC_CFG3_LOW_LIMIT \
 883:Generated_Source\PSoC6/ADC.h ****             | (uint32)((uint32)ADC_CFG3_HIGH_LIMIT \
 884:Generated_Source\PSoC6/ADC.h ****             << SAR_RANGE_THRES_RANGE_HIGH_Pos))
 885:Generated_Source\PSoC6/ADC.h **** 
 886:Generated_Source\PSoC6/ADC.h ****     #define ADC_CFG3_RANGE_COND_INIT   (cy_en_sar_range_detect_condition_t)ADC_CFG3_RANGE_COND
 887:Generated_Source\PSoC6/ADC.h **** 
 888:Generated_Source\PSoC6/ADC.h ****     /* Misc Config
 889:Generated_Source\PSoC6/ADC.h ****         [0] - Freerunning: Set if the sample mode is freerunning
 890:Generated_Source\PSoC6/ADC.h ****     */
 891:Generated_Source\PSoC6/ADC.h ****     #define ADC_CFG3_MISC_CONFIG_INIT \
 892:Generated_Source\PSoC6/ADC.h ****             (ADC_CFG3_FREERUNNING )
 893:Generated_Source\PSoC6/ADC.h **** 
 894:Generated_Source\PSoC6/ADC.h **** #endif /* ADC_TOTAL_CONFIGS > 3 */
 895:Generated_Source\PSoC6/ADC.h **** 
 896:Generated_Source\PSoC6/ADC.h **** /* ************************************************************************** */
 897:Generated_Source\PSoC6/ADC.h **** /* End configuration 3 calculated defines                                     */
 898:Generated_Source\PSoC6/ADC.h **** /* ************************************************************************** */
 899:Generated_Source\PSoC6/ADC.h **** 
 900:Generated_Source\PSoC6/ADC.h **** /******************************************************************************
 901:Generated_Source\PSoC6/ADC.h **** * Function Name: ADC_Enable
 902:Generated_Source\PSoC6/ADC.h **** ****************************************************************************//*
 903:Generated_Source\PSoC6/ADC.h **** *
 904:Generated_Source\PSoC6/ADC.h **** * \brief Enables the component.
 905:Generated_Source\PSoC6/ADC.h **** *
 906:Generated_Source\PSoC6/ADC.h **** * \param None
 907:Generated_Source\PSoC6/ADC.h **** *
 908:Generated_Source\PSoC6/ADC.h **** * \return None
 909:Generated_Source\PSoC6/ADC.h **** *
 910:Generated_Source\PSoC6/ADC.h **** * \sideeffect
 911:Generated_Source\PSoC6/ADC.h **** *  None
 912:Generated_Source\PSoC6/ADC.h **** *
 913:Generated_Source\PSoC6/ADC.h **** *******************************************************************************/
 914:Generated_Source\PSoC6/ADC.h **** __STATIC_INLINE void ADC_Enable(void)
 915:Generated_Source\PSoC6/ADC.h **** {
 916:Generated_Source\PSoC6/ADC.h ****     Cy_SAR_Enable(ADC_SAR__HW);
 917:Generated_Source\PSoC6/ADC.h **** }
 918:Generated_Source\PSoC6/ADC.h **** 
 919:Generated_Source\PSoC6/ADC.h **** /*******************************************************************************
 920:Generated_Source\PSoC6/ADC.h **** * Function Name: ADC_Stop
 921:Generated_Source\PSoC6/ADC.h **** ****************************************************************************//**
 922:Generated_Source\PSoC6/ADC.h **** *
 923:Generated_Source\PSoC6/ADC.h **** * \brief This function stops ADC conversions and puts the ADC into its lowest
 924:Generated_Source\PSoC6/ADC.h **** * power mode.
 925:Generated_Source\PSoC6/ADC.h **** *
 926:Generated_Source\PSoC6/ADC.h **** * \param None
 927:Generated_Source\PSoC6/ADC.h **** *
 928:Generated_Source\PSoC6/ADC.h **** * \return None
 929:Generated_Source\PSoC6/ADC.h **** *
 930:Generated_Source\PSoC6/ADC.h **** * \sideeffect
 931:Generated_Source\PSoC6/ADC.h **** * Do not use the ADC_Stop() API to halt conversions. Instead use the
 932:Generated_Source\PSoC6/ADC.h **** * ADC_StopConvert() API. If you use the ADC_Stop() API
 933:Generated_Source\PSoC6/ADC.h **** * to halt conversions then later use the ADC_Start() and
 934:Generated_Source\PSoC6/ADC.h **** * ADC_StartConvert() APIs to resume conversions, the first channel
 935:Generated_Source\PSoC6/ADC.h **** * of the scan may be corrupt. The ADC_StopConvert() API will enable
 936:Generated_Source\PSoC6/ADC.h **** * the ADC to complete the current scan of channels. After the
 937:Generated_Source\PSoC6/ADC.h **** * channel scan is complete, the ADC will stop all conversions, which
 938:Generated_Source\PSoC6/ADC.h **** * can be detected by the use of an ISR or the ADC_IsEndConversion()
ARM GAS  C:\Users\oars0\AppData\Local\Temp\cc0aZXkW.s 			page 37


 939:Generated_Source\PSoC6/ADC.h **** * function.
 940:Generated_Source\PSoC6/ADC.h **** *
 941:Generated_Source\PSoC6/ADC.h **** *******************************************************************************/
 942:Generated_Source\PSoC6/ADC.h **** __STATIC_INLINE void ADC_Stop(void)
 943:Generated_Source\PSoC6/ADC.h **** {
 944:Generated_Source\PSoC6/ADC.h ****     Cy_SAR_Disable(ADC_SAR__HW);
 945:Generated_Source\PSoC6/ADC.h **** }
 946:Generated_Source\PSoC6/ADC.h **** 
 947:Generated_Source\PSoC6/ADC.h **** /*******************************************************************************
 948:Generated_Source\PSoC6/ADC.h **** * Function Name: ADC_StopConvert
 949:Generated_Source\PSoC6/ADC.h **** ****************************************************************************//**
 950:Generated_Source\PSoC6/ADC.h **** *
 951:Generated_Source\PSoC6/ADC.h **** * \brief Forces the ADC to stop conversions. If a conversion is
 952:Generated_Source\PSoC6/ADC.h **** * currently executing, that conversion will complete, but no further conversions
 953:Generated_Source\PSoC6/ADC.h **** * will occur.
 954:Generated_Source\PSoC6/ADC.h **** *
 955:Generated_Source\PSoC6/ADC.h **** * \param None
 956:Generated_Source\PSoC6/ADC.h **** *
 957:Generated_Source\PSoC6/ADC.h **** * \return None
 958:Generated_Source\PSoC6/ADC.h **** *
 959:Generated_Source\PSoC6/ADC.h **** * \sideeffect None
 960:Generated_Source\PSoC6/ADC.h **** *
 961:Generated_Source\PSoC6/ADC.h **** *******************************************************************************/
 962:Generated_Source\PSoC6/ADC.h **** __STATIC_INLINE void ADC_StopConvert(void)
 963:Generated_Source\PSoC6/ADC.h **** {
 964:Generated_Source\PSoC6/ADC.h ****     Cy_SAR_StopConvert(ADC_SAR__HW);
 965:Generated_Source\PSoC6/ADC.h **** }
 966:Generated_Source\PSoC6/ADC.h **** 
 967:Generated_Source\PSoC6/ADC.h **** /*******************************************************************************
 968:Generated_Source\PSoC6/ADC.h **** * Function Name: ADC_GetResult16
 969:Generated_Source\PSoC6/ADC.h **** ****************************************************************************//**
 970:Generated_Source\PSoC6/ADC.h **** *
 971:Generated_Source\PSoC6/ADC.h **** * \brief Gets the data available in the channel result data register
 972:Generated_Source\PSoC6/ADC.h **** *
 973:Generated_Source\PSoC6/ADC.h **** * \param chan The ADC channel to read the result from. The first
 974:Generated_Source\PSoC6/ADC.h **** * channel is 0.
 975:Generated_Source\PSoC6/ADC.h **** *
 976:Generated_Source\PSoC6/ADC.h **** * \return Returns converted data as a signed 16-bit integer.
 977:Generated_Source\PSoC6/ADC.h **** *
 978:Generated_Source\PSoC6/ADC.h **** * \sideeffect None
 979:Generated_Source\PSoC6/ADC.h **** *
 980:Generated_Source\PSoC6/ADC.h **** *******************************************************************************/
 981:Generated_Source\PSoC6/ADC.h **** __STATIC_INLINE int16_t ADC_GetResult16(uint32_t chan)
 982:Generated_Source\PSoC6/ADC.h **** {
 983:Generated_Source\PSoC6/ADC.h ****     /* Halt CPU in debug mode if channel is out of valid range */
 984:Generated_Source\PSoC6/ADC.h ****     CY_ASSERT(chan < ADC_allConfigs[ADC_currentConfig].numChannels);
 985:Generated_Source\PSoC6/ADC.h **** 
 986:Generated_Source\PSoC6/ADC.h ****     return Cy_SAR_GetResult16(ADC_SAR__HW, chan);
 987:Generated_Source\PSoC6/ADC.h **** }
 988:Generated_Source\PSoC6/ADC.h **** 
 989:Generated_Source\PSoC6/ADC.h **** /*******************************************************************************
 990:Generated_Source\PSoC6/ADC.h **** * Function Name: ADC_GetResult32
 991:Generated_Source\PSoC6/ADC.h **** ****************************************************************************//**
 992:Generated_Source\PSoC6/ADC.h **** *
 993:Generated_Source\PSoC6/ADC.h **** * \brief Gets the data available in the channel result data register.
 994:Generated_Source\PSoC6/ADC.h **** *
 995:Generated_Source\PSoC6/ADC.h **** * \param chan The ADC channel to read the result from. The first
ARM GAS  C:\Users\oars0\AppData\Local\Temp\cc0aZXkW.s 			page 38


 996:Generated_Source\PSoC6/ADC.h **** * channel is 0.
 997:Generated_Source\PSoC6/ADC.h **** *
 998:Generated_Source\PSoC6/ADC.h **** * \return Returns converted data as a signed 32-bit integer.
 999:Generated_Source\PSoC6/ADC.h **** *
1000:Generated_Source\PSoC6/ADC.h **** * \sideeffect None
1001:Generated_Source\PSoC6/ADC.h **** *
1002:Generated_Source\PSoC6/ADC.h **** *******************************************************************************/
1003:Generated_Source\PSoC6/ADC.h **** __STATIC_INLINE int32_t ADC_GetResult32(uint32_t chan)
1004:Generated_Source\PSoC6/ADC.h **** {
1005:Generated_Source\PSoC6/ADC.h ****     int32_t finalResult;
1006:Generated_Source\PSoC6/ADC.h **** 
1007:Generated_Source\PSoC6/ADC.h ****     /* Halt CPU in debug mode if channel is out of valid range */
1008:Generated_Source\PSoC6/ADC.h ****     CY_ASSERT(chan < ADC_allConfigs[ADC_currentConfig].numChannels);
 115              		.loc 4 1008 0 discriminator 3
 116 004a 3A4B     		ldr	r3, .L12+4
 117 004c 1B68     		ldr	r3, [r3]
 118 004e 03EB8303 		add	r3, r3, r3, lsl #2
 119 0052 9A00     		lsls	r2, r3, #2
 120 0054 384B     		ldr	r3, .L12+8
 121 0056 1A44     		add	r2, r2, r3
 122 0058 5368     		ldr	r3, [r2, #4]
 123 005a 23B9     		cbnz	r3, .L4
 124              		.loc 4 1008 0 is_stmt 0
 125 005c 4FF47C71 		mov	r1, #1008
 126 0060 3648     		ldr	r0, .L12+12
 127 0062 FFF7FEFF 		bl	Cy_SysLib_AssertFailed
 128              	.LVL13:
 129              	.L4:
1009:Generated_Source\PSoC6/ADC.h **** 
1010:Generated_Source\PSoC6/ADC.h ****     finalResult = Cy_SAR_GetResult32(ADC_SAR__HW, chan);
 130              		.loc 4 1010 0 is_stmt 1
 131 0066 0021     		movs	r1, #0
 132 0068 3548     		ldr	r0, .L12+16
 133 006a FFF7FEFF 		bl	Cy_SAR_GetResult32
 134              	.LVL14:
 135 006e 0546     		mov	r5, r0
 136              	.LVL15:
 137              	.LBE44:
 138              	.LBE43:
 139              	.LBB45:
 140              	.LBB46:
1008:Generated_Source\PSoC6/ADC.h **** 
 141              		.loc 4 1008 0
 142 0070 304B     		ldr	r3, .L12+4
 143 0072 1B68     		ldr	r3, [r3]
 144 0074 03EB8303 		add	r3, r3, r3, lsl #2
 145 0078 9A00     		lsls	r2, r3, #2
 146 007a 2F4B     		ldr	r3, .L12+8
 147 007c 1A44     		add	r2, r2, r3
 148 007e 5368     		ldr	r3, [r2, #4]
 149 0080 012B     		cmp	r3, #1
 150 0082 04D8     		bhi	.L5
 151 0084 4FF47C71 		mov	r1, #1008
 152 0088 2C48     		ldr	r0, .L12+12
 153              	.LVL16:
 154 008a FFF7FEFF 		bl	Cy_SysLib_AssertFailed
 155              	.LVL17:
ARM GAS  C:\Users\oars0\AppData\Local\Temp\cc0aZXkW.s 			page 39


 156              	.L5:
 157              		.loc 4 1010 0
 158 008e 0121     		movs	r1, #1
 159 0090 2B48     		ldr	r0, .L12+16
 160 0092 FFF7FEFF 		bl	Cy_SAR_GetResult32
 161              	.LVL18:
 162 0096 0746     		mov	r7, r0
 163              	.LVL19:
 164              	.LBE46:
 165              	.LBE45:
 166              	.LBB47:
 167              	.LBB48:
1008:Generated_Source\PSoC6/ADC.h **** 
 168              		.loc 4 1008 0
 169 0098 264B     		ldr	r3, .L12+4
 170 009a 1B68     		ldr	r3, [r3]
 171 009c 03EB8303 		add	r3, r3, r3, lsl #2
 172 00a0 9A00     		lsls	r2, r3, #2
 173 00a2 254B     		ldr	r3, .L12+8
 174 00a4 1A44     		add	r2, r2, r3
 175 00a6 5368     		ldr	r3, [r2, #4]
 176 00a8 022B     		cmp	r3, #2
 177 00aa 04D8     		bhi	.L6
 178 00ac 4FF47C71 		mov	r1, #1008
 179 00b0 2248     		ldr	r0, .L12+12
 180              	.LVL20:
 181 00b2 FFF7FEFF 		bl	Cy_SysLib_AssertFailed
 182              	.LVL21:
 183              	.L6:
 184              		.loc 4 1010 0
 185 00b6 0221     		movs	r1, #2
 186 00b8 2148     		ldr	r0, .L12+16
 187 00ba FFF7FEFF 		bl	Cy_SAR_GetResult32
 188              	.LVL22:
 189 00be 8046     		mov	r8, r0
 190              	.LVL23:
 191              	.LBE48:
 192              	.LBE47:
 193              	.LBB49:
 194              	.LBB50:
1008:Generated_Source\PSoC6/ADC.h **** 
 195              		.loc 4 1008 0
 196 00c0 1C4B     		ldr	r3, .L12+4
 197 00c2 1B68     		ldr	r3, [r3]
 198 00c4 03EB8303 		add	r3, r3, r3, lsl #2
 199 00c8 9A00     		lsls	r2, r3, #2
 200 00ca 1B4B     		ldr	r3, .L12+8
 201 00cc 1A44     		add	r2, r2, r3
 202 00ce 5368     		ldr	r3, [r2, #4]
 203 00d0 032B     		cmp	r3, #3
 204 00d2 04D8     		bhi	.L7
 205 00d4 4FF47C71 		mov	r1, #1008
 206 00d8 1848     		ldr	r0, .L12+12
 207              	.LVL24:
 208 00da FFF7FEFF 		bl	Cy_SysLib_AssertFailed
 209              	.LVL25:
 210              	.L7:
ARM GAS  C:\Users\oars0\AppData\Local\Temp\cc0aZXkW.s 			page 40


 211              		.loc 4 1010 0
 212 00de 0321     		movs	r1, #3
 213 00e0 1748     		ldr	r0, .L12+16
 214 00e2 FFF7FEFF 		bl	Cy_SAR_GetResult32
 215              	.LVL26:
 216              	.LBE50:
 217              	.LBE49:
  55:main_cm4.c    ****                 VCH = ADC_GetResult32(0);
  56:main_cm4.c    ****                 VCL = ADC_GetResult32(1);
  57:main_cm4.c    ****                 VBH = ADC_GetResult32(2);
  58:main_cm4.c    ****                 VBL = ADC_GetResult32(3);
  59:main_cm4.c    ****                 
  60:main_cm4.c    ****                 //data to voltage = 3.3v/4096*data
  61:main_cm4.c    ****         
  62:main_cm4.c    ****                 //output
  63:main_cm4.c    ****                 
  64:main_cm4.c    ****                 sprintf(buffer, "%u\t %u\t %u\t %u\t %u\t %u\n",
 218              		.loc 1 64 0
 219 00e6 0394     		str	r4, [sp, #12]
 220 00e8 0296     		str	r6, [sp, #8]
 221 00ea 0190     		str	r0, [sp, #4]
 222 00ec CDF80080 		str	r8, [sp]
 223 00f0 3B46     		mov	r3, r7
 224 00f2 2A46     		mov	r2, r5
 225 00f4 1349     		ldr	r1, .L12+20
 226 00f6 05A8     		add	r0, sp, #20
 227              	.LVL27:
 228 00f8 FFF7FEFF 		bl	sprintf
 229              	.LVL28:
 230              	.LBB51:
 231              	.LBB52:
 232              	.LBB53:
 233              		.file 5 "Generated_Source\\PSoC6\\pdl\\drivers/peripheral/scb/cy_scb_uart.h"
   1:Generated_Source\PSoC6\pdl\drivers/peripheral/scb/cy_scb_uart.h **** /***************************************************************************//**
   2:Generated_Source\PSoC6\pdl\drivers/peripheral/scb/cy_scb_uart.h **** * \file cy_scb_uart.h
   3:Generated_Source\PSoC6\pdl\drivers/peripheral/scb/cy_scb_uart.h **** * \version 2.30
   4:Generated_Source\PSoC6\pdl\drivers/peripheral/scb/cy_scb_uart.h **** *
   5:Generated_Source\PSoC6\pdl\drivers/peripheral/scb/cy_scb_uart.h **** * Provides UART API declarations of the SCB driver.
   6:Generated_Source\PSoC6\pdl\drivers/peripheral/scb/cy_scb_uart.h **** *
   7:Generated_Source\PSoC6\pdl\drivers/peripheral/scb/cy_scb_uart.h **** ********************************************************************************
   8:Generated_Source\PSoC6\pdl\drivers/peripheral/scb/cy_scb_uart.h **** * \copyright
   9:Generated_Source\PSoC6\pdl\drivers/peripheral/scb/cy_scb_uart.h **** * Copyright 2016-2021, Cypress Semiconductor Corporation.  All rights reserved.
  10:Generated_Source\PSoC6\pdl\drivers/peripheral/scb/cy_scb_uart.h **** * You may use this file only in accordance with the license, terms, conditions,
  11:Generated_Source\PSoC6\pdl\drivers/peripheral/scb/cy_scb_uart.h **** * disclaimers, and limitations in the end user license agreement accompanying
  12:Generated_Source\PSoC6\pdl\drivers/peripheral/scb/cy_scb_uart.h **** * the software package with which this file was provided.
  13:Generated_Source\PSoC6\pdl\drivers/peripheral/scb/cy_scb_uart.h **** *******************************************************************************/
  14:Generated_Source\PSoC6\pdl\drivers/peripheral/scb/cy_scb_uart.h **** 
  15:Generated_Source\PSoC6\pdl\drivers/peripheral/scb/cy_scb_uart.h **** /**
  16:Generated_Source\PSoC6\pdl\drivers/peripheral/scb/cy_scb_uart.h **** * \addtogroup group_scb_uart
  17:Generated_Source\PSoC6\pdl\drivers/peripheral/scb/cy_scb_uart.h **** * \{
  18:Generated_Source\PSoC6\pdl\drivers/peripheral/scb/cy_scb_uart.h **** * Driver API for UART
  19:Generated_Source\PSoC6\pdl\drivers/peripheral/scb/cy_scb_uart.h **** *
  20:Generated_Source\PSoC6\pdl\drivers/peripheral/scb/cy_scb_uart.h **** * The functions and other declarations used in this part of the driver are in
  21:Generated_Source\PSoC6\pdl\drivers/peripheral/scb/cy_scb_uart.h **** * cy_scb_uart.h. You can also include cy_pdl.h (ModusToolbox only) to get access
  22:Generated_Source\PSoC6\pdl\drivers/peripheral/scb/cy_scb_uart.h **** * to all functions and declarations in the PDL.
  23:Generated_Source\PSoC6\pdl\drivers/peripheral/scb/cy_scb_uart.h **** *
  24:Generated_Source\PSoC6\pdl\drivers/peripheral/scb/cy_scb_uart.h **** * The Universal Asynchronous Receiver/Transmitter (UART) protocol is an
ARM GAS  C:\Users\oars0\AppData\Local\Temp\cc0aZXkW.s 			page 41


  25:Generated_Source\PSoC6\pdl\drivers/peripheral/scb/cy_scb_uart.h **** * asynchronous serial interface protocol. UART communication is typically
  26:Generated_Source\PSoC6\pdl\drivers/peripheral/scb/cy_scb_uart.h **** * point-to-point. The UART interface consists of two signals:
  27:Generated_Source\PSoC6\pdl\drivers/peripheral/scb/cy_scb_uart.h **** * * TX: Transmitter output
  28:Generated_Source\PSoC6\pdl\drivers/peripheral/scb/cy_scb_uart.h **** * * RX: Receiver input
  29:Generated_Source\PSoC6\pdl\drivers/peripheral/scb/cy_scb_uart.h **** *
  30:Generated_Source\PSoC6\pdl\drivers/peripheral/scb/cy_scb_uart.h **** * Additionally, two side-band signals are used to implement flow control in
  31:Generated_Source\PSoC6\pdl\drivers/peripheral/scb/cy_scb_uart.h **** * UART. Note that the flow control applies only to TX functionality.
  32:Generated_Source\PSoC6\pdl\drivers/peripheral/scb/cy_scb_uart.h **** * * Clear to Send (CTS): This is an input signal to the transmitter.
  33:Generated_Source\PSoC6\pdl\drivers/peripheral/scb/cy_scb_uart.h **** *   When active, it indicates that the slave is ready for the master to
  34:Generated_Source\PSoC6\pdl\drivers/peripheral/scb/cy_scb_uart.h **** *   transmit data.
  35:Generated_Source\PSoC6\pdl\drivers/peripheral/scb/cy_scb_uart.h **** * * Ready to Send (RTS): This is an output signal from the receiver. When
  36:Generated_Source\PSoC6\pdl\drivers/peripheral/scb/cy_scb_uart.h **** *   active, it indicates that the receiver is ready to receive data
  37:Generated_Source\PSoC6\pdl\drivers/peripheral/scb/cy_scb_uart.h **** *
  38:Generated_Source\PSoC6\pdl\drivers/peripheral/scb/cy_scb_uart.h **** * Features:
  39:Generated_Source\PSoC6\pdl\drivers/peripheral/scb/cy_scb_uart.h **** * * Supports UART protocol
  40:Generated_Source\PSoC6\pdl\drivers/peripheral/scb/cy_scb_uart.h **** *   * Standard UART
  41:Generated_Source\PSoC6\pdl\drivers/peripheral/scb/cy_scb_uart.h **** *   * Multi-processor mode
  42:Generated_Source\PSoC6\pdl\drivers/peripheral/scb/cy_scb_uart.h **** * * SmartCard (ISO7816) reader
  43:Generated_Source\PSoC6\pdl\drivers/peripheral/scb/cy_scb_uart.h **** * * IrDA
  44:Generated_Source\PSoC6\pdl\drivers/peripheral/scb/cy_scb_uart.h **** * * Data frame size programmable from 4 to 16 bits
  45:Generated_Source\PSoC6\pdl\drivers/peripheral/scb/cy_scb_uart.h **** * * Programmable number of STOP bits, which can be set in terms of half bit
  46:Generated_Source\PSoC6\pdl\drivers/peripheral/scb/cy_scb_uart.h **** *   periods between 1 and 4
  47:Generated_Source\PSoC6\pdl\drivers/peripheral/scb/cy_scb_uart.h **** * * Parity support (odd and even parity)
  48:Generated_Source\PSoC6\pdl\drivers/peripheral/scb/cy_scb_uart.h **** * * Median filter on Rx input
  49:Generated_Source\PSoC6\pdl\drivers/peripheral/scb/cy_scb_uart.h **** * * Programmable oversampling
  50:Generated_Source\PSoC6\pdl\drivers/peripheral/scb/cy_scb_uart.h **** * * Start skipping
  51:Generated_Source\PSoC6\pdl\drivers/peripheral/scb/cy_scb_uart.h **** *
  52:Generated_Source\PSoC6\pdl\drivers/peripheral/scb/cy_scb_uart.h **** ********************************************************************************
  53:Generated_Source\PSoC6\pdl\drivers/peripheral/scb/cy_scb_uart.h **** * \section group_scb_uart_configuration Configuration Considerations
  54:Generated_Source\PSoC6\pdl\drivers/peripheral/scb/cy_scb_uart.h **** ********************************************************************************
  55:Generated_Source\PSoC6\pdl\drivers/peripheral/scb/cy_scb_uart.h **** * The UART driver configuration can be divided to number of sequential
  56:Generated_Source\PSoC6\pdl\drivers/peripheral/scb/cy_scb_uart.h **** * steps listed below:
  57:Generated_Source\PSoC6\pdl\drivers/peripheral/scb/cy_scb_uart.h **** * * \ref group_scb_uart_config
  58:Generated_Source\PSoC6\pdl\drivers/peripheral/scb/cy_scb_uart.h **** * * \ref group_scb_uart_pins
  59:Generated_Source\PSoC6\pdl\drivers/peripheral/scb/cy_scb_uart.h **** * * \ref group_scb_uart_clock
  60:Generated_Source\PSoC6\pdl\drivers/peripheral/scb/cy_scb_uart.h **** * * \ref group_scb_uart_data_rate
  61:Generated_Source\PSoC6\pdl\drivers/peripheral/scb/cy_scb_uart.h **** * * \ref group_scb_uart_intr
  62:Generated_Source\PSoC6\pdl\drivers/peripheral/scb/cy_scb_uart.h **** * * \ref group_scb_uart_enable
  63:Generated_Source\PSoC6\pdl\drivers/peripheral/scb/cy_scb_uart.h **** *
  64:Generated_Source\PSoC6\pdl\drivers/peripheral/scb/cy_scb_uart.h **** * \note
  65:Generated_Source\PSoC6\pdl\drivers/peripheral/scb/cy_scb_uart.h **** * UART driver is built on top of the SCB hardware block. The SCB5 instance is
  66:Generated_Source\PSoC6\pdl\drivers/peripheral/scb/cy_scb_uart.h **** * used as an example for all code snippets. Modify the code to match your
  67:Generated_Source\PSoC6\pdl\drivers/peripheral/scb/cy_scb_uart.h **** * design.
  68:Generated_Source\PSoC6\pdl\drivers/peripheral/scb/cy_scb_uart.h **** *
  69:Generated_Source\PSoC6\pdl\drivers/peripheral/scb/cy_scb_uart.h **** ********************************************************************************
  70:Generated_Source\PSoC6\pdl\drivers/peripheral/scb/cy_scb_uart.h **** * \subsection group_scb_uart_config Configure UART
  71:Generated_Source\PSoC6\pdl\drivers/peripheral/scb/cy_scb_uart.h **** ********************************************************************************
  72:Generated_Source\PSoC6\pdl\drivers/peripheral/scb/cy_scb_uart.h **** * To set up the UART driver, provide the configuration parameters in the
  73:Generated_Source\PSoC6\pdl\drivers/peripheral/scb/cy_scb_uart.h **** * \ref cy_stc_scb_uart_config_t structure. For example: provide uartMode,
  74:Generated_Source\PSoC6\pdl\drivers/peripheral/scb/cy_scb_uart.h **** * oversample, dataWidth, enableMsbFirst, parity, and stopBits. The other
  75:Generated_Source\PSoC6\pdl\drivers/peripheral/scb/cy_scb_uart.h **** * parameters are optional. To initialize the driver, call \ref Cy_SCB_UART_Init
  76:Generated_Source\PSoC6\pdl\drivers/peripheral/scb/cy_scb_uart.h **** * function providing a pointer to the populated \ref cy_stc_scb_uart_config_t
  77:Generated_Source\PSoC6\pdl\drivers/peripheral/scb/cy_scb_uart.h **** * structure and the allocated \ref cy_stc_scb_uart_context_t structure.
  78:Generated_Source\PSoC6\pdl\drivers/peripheral/scb/cy_scb_uart.h **** *
  79:Generated_Source\PSoC6\pdl\drivers/peripheral/scb/cy_scb_uart.h **** * \snippet SCB_CompDatasheet_sut_01_revA.cydsn\uart_snippets.c UART_CFG
  80:Generated_Source\PSoC6\pdl\drivers/peripheral/scb/cy_scb_uart.h **** *
  81:Generated_Source\PSoC6\pdl\drivers/peripheral/scb/cy_scb_uart.h **** ********************************************************************************
ARM GAS  C:\Users\oars0\AppData\Local\Temp\cc0aZXkW.s 			page 42


  82:Generated_Source\PSoC6\pdl\drivers/peripheral/scb/cy_scb_uart.h **** * \subsection group_scb_uart_pins Assign and Configure Pins
  83:Generated_Source\PSoC6\pdl\drivers/peripheral/scb/cy_scb_uart.h **** ********************************************************************************
  84:Generated_Source\PSoC6\pdl\drivers/peripheral/scb/cy_scb_uart.h **** * Only dedicated SCB pins can be used for UART operation. The HSIOM
  85:Generated_Source\PSoC6\pdl\drivers/peripheral/scb/cy_scb_uart.h **** * register must be configured to connect dedicated SCB UART pins to the
  86:Generated_Source\PSoC6\pdl\drivers/peripheral/scb/cy_scb_uart.h **** * SCB block. Also, the UART output pins must be configured in Strong Drive
  87:Generated_Source\PSoC6\pdl\drivers/peripheral/scb/cy_scb_uart.h **** * Input Off mode and UART input pins in Digital High-Z:
  88:Generated_Source\PSoC6\pdl\drivers/peripheral/scb/cy_scb_uart.h **** *
  89:Generated_Source\PSoC6\pdl\drivers/peripheral/scb/cy_scb_uart.h **** * \snippet SCB_CompDatasheet_sut_01_revA.cydsn\uart_snippets.c UART_CFG_PINS
  90:Generated_Source\PSoC6\pdl\drivers/peripheral/scb/cy_scb_uart.h **** *
  91:Generated_Source\PSoC6\pdl\drivers/peripheral/scb/cy_scb_uart.h **** ********************************************************************************
  92:Generated_Source\PSoC6\pdl\drivers/peripheral/scb/cy_scb_uart.h **** * \subsection group_scb_uart_clock Assign Clock Divider
  93:Generated_Source\PSoC6\pdl\drivers/peripheral/scb/cy_scb_uart.h **** ********************************************************************************
  94:Generated_Source\PSoC6\pdl\drivers/peripheral/scb/cy_scb_uart.h **** * A clock source must be connected to the SCB block to oversample input and
  95:Generated_Source\PSoC6\pdl\drivers/peripheral/scb/cy_scb_uart.h **** * output signals, in this document this clock will be referred as clk_scb.
  96:Generated_Source\PSoC6\pdl\drivers/peripheral/scb/cy_scb_uart.h **** * You must use one of available integer or fractional dividers. Use the
  97:Generated_Source\PSoC6\pdl\drivers/peripheral/scb/cy_scb_uart.h **** * \ref group_sysclk driver API to do this.
  98:Generated_Source\PSoC6\pdl\drivers/peripheral/scb/cy_scb_uart.h **** *
  99:Generated_Source\PSoC6\pdl\drivers/peripheral/scb/cy_scb_uart.h **** * \snippet SCB_CompDatasheet_sut_01_revA.cydsn\uart_snippets.c UART_CFG_ASSIGN_CLOCK
 100:Generated_Source\PSoC6\pdl\drivers/peripheral/scb/cy_scb_uart.h **** *
 101:Generated_Source\PSoC6\pdl\drivers/peripheral/scb/cy_scb_uart.h **** ********************************************************************************
 102:Generated_Source\PSoC6\pdl\drivers/peripheral/scb/cy_scb_uart.h **** * \subsection group_scb_uart_data_rate Configure Baud Rate
 103:Generated_Source\PSoC6\pdl\drivers/peripheral/scb/cy_scb_uart.h **** ********************************************************************************
 104:Generated_Source\PSoC6\pdl\drivers/peripheral/scb/cy_scb_uart.h **** * To get the UART to operate with the desired baud rate, the clk_scb frequency
 105:Generated_Source\PSoC6\pdl\drivers/peripheral/scb/cy_scb_uart.h **** * and the oversample must be configured. Use the \ref group_sysclk driver API
 106:Generated_Source\PSoC6\pdl\drivers/peripheral/scb/cy_scb_uart.h **** * to configure clk_scb frequency. Set the <em><b>oversample parameter
 107:Generated_Source\PSoC6\pdl\drivers/peripheral/scb/cy_scb_uart.h **** * in configuration structure</b></em> to define the number of the SCB clocks
 108:Generated_Source\PSoC6\pdl\drivers/peripheral/scb/cy_scb_uart.h **** * within one UART bit-time.
 109:Generated_Source\PSoC6\pdl\drivers/peripheral/scb/cy_scb_uart.h **** *
 110:Generated_Source\PSoC6\pdl\drivers/peripheral/scb/cy_scb_uart.h **** * \snippet SCB_CompDatasheet_sut_01_revA.cydsn\uart_snippets.c UART_CFG_DATA_RATE
 111:Generated_Source\PSoC6\pdl\drivers/peripheral/scb/cy_scb_uart.h **** *
 112:Generated_Source\PSoC6\pdl\drivers/peripheral/scb/cy_scb_uart.h **** * <b>Refer to the technical reference manual (TRM) section UART sub-section
 113:Generated_Source\PSoC6\pdl\drivers/peripheral/scb/cy_scb_uart.h **** * Clocking and Oversampling to get information about how to configure the UART to run with
 114:Generated_Source\PSoC6\pdl\drivers/peripheral/scb/cy_scb_uart.h **** * desired baud rate.</b>
 115:Generated_Source\PSoC6\pdl\drivers/peripheral/scb/cy_scb_uart.h **** *
 116:Generated_Source\PSoC6\pdl\drivers/peripheral/scb/cy_scb_uart.h **** ********************************************************************************
 117:Generated_Source\PSoC6\pdl\drivers/peripheral/scb/cy_scb_uart.h **** * \subsection group_scb_uart_intr Configure Interrupt
 118:Generated_Source\PSoC6\pdl\drivers/peripheral/scb/cy_scb_uart.h **** ********************************************************************************
 119:Generated_Source\PSoC6\pdl\drivers/peripheral/scb/cy_scb_uart.h **** * The interrupt is optional for the UART operation. To configure interrupt
 120:Generated_Source\PSoC6\pdl\drivers/peripheral/scb/cy_scb_uart.h **** * the \ref Cy_SCB_UART_Interrupt function must be called in the interrupt
 121:Generated_Source\PSoC6\pdl\drivers/peripheral/scb/cy_scb_uart.h **** * handler for the selected SCB instance. Also, this interrupt must be enabled
 122:Generated_Source\PSoC6\pdl\drivers/peripheral/scb/cy_scb_uart.h **** * in the NVIC.
 123:Generated_Source\PSoC6\pdl\drivers/peripheral/scb/cy_scb_uart.h **** * The interrupt must be configured when \ref group_scb_uart_hl will be used.
 124:Generated_Source\PSoC6\pdl\drivers/peripheral/scb/cy_scb_uart.h **** *
 125:Generated_Source\PSoC6\pdl\drivers/peripheral/scb/cy_scb_uart.h **** * \snippet SCB_CompDatasheet_sut_01_revA.cydsn\uart_snippets.c UART_INTR_A
 126:Generated_Source\PSoC6\pdl\drivers/peripheral/scb/cy_scb_uart.h **** * \snippet SCB_CompDatasheet_sut_01_revA.cydsn\uart_snippets.c UART_INTR_B
 127:Generated_Source\PSoC6\pdl\drivers/peripheral/scb/cy_scb_uart.h **** *
 128:Generated_Source\PSoC6\pdl\drivers/peripheral/scb/cy_scb_uart.h **** ********************************************************************************
 129:Generated_Source\PSoC6\pdl\drivers/peripheral/scb/cy_scb_uart.h **** * \subsection group_scb_uart_enable Enable UART
 130:Generated_Source\PSoC6\pdl\drivers/peripheral/scb/cy_scb_uart.h **** ********************************************************************************
 131:Generated_Source\PSoC6\pdl\drivers/peripheral/scb/cy_scb_uart.h **** * Finally, enable the UART operation by calling \ref Cy_SCB_UART_Enable.
 132:Generated_Source\PSoC6\pdl\drivers/peripheral/scb/cy_scb_uart.h **** *
 133:Generated_Source\PSoC6\pdl\drivers/peripheral/scb/cy_scb_uart.h **** * \snippet SCB_CompDatasheet_sut_01_revA.cydsn\uart_snippets.c UART_ENABLE
 134:Generated_Source\PSoC6\pdl\drivers/peripheral/scb/cy_scb_uart.h **** *
 135:Generated_Source\PSoC6\pdl\drivers/peripheral/scb/cy_scb_uart.h **** ********************************************************************************
 136:Generated_Source\PSoC6\pdl\drivers/peripheral/scb/cy_scb_uart.h **** * \section group_scb_uart_use_cases Common Use Cases
 137:Generated_Source\PSoC6\pdl\drivers/peripheral/scb/cy_scb_uart.h **** ********************************************************************************
 138:Generated_Source\PSoC6\pdl\drivers/peripheral/scb/cy_scb_uart.h **** * The UART API is divided into two categories: \ref group_scb_uart_low_level_functions
ARM GAS  C:\Users\oars0\AppData\Local\Temp\cc0aZXkW.s 			page 43


 139:Generated_Source\PSoC6\pdl\drivers/peripheral/scb/cy_scb_uart.h **** * and \ref group_scb_uart_high_level_functions. \n
 140:Generated_Source\PSoC6\pdl\drivers/peripheral/scb/cy_scb_uart.h **** * <em>Do not mix <b>High-Level</b> and <b>Low-Level</b> API because a Low-Level
 141:Generated_Source\PSoC6\pdl\drivers/peripheral/scb/cy_scb_uart.h **** * API can adversely affect the operation of a High-Level API.</em>
 142:Generated_Source\PSoC6\pdl\drivers/peripheral/scb/cy_scb_uart.h **** *
 143:Generated_Source\PSoC6\pdl\drivers/peripheral/scb/cy_scb_uart.h **** ********************************************************************************
 144:Generated_Source\PSoC6\pdl\drivers/peripheral/scb/cy_scb_uart.h **** * \subsection group_scb_uart_ll Low-Level API
 145:Generated_Source\PSoC6\pdl\drivers/peripheral/scb/cy_scb_uart.h **** ********************************************************************************
 146:Generated_Source\PSoC6\pdl\drivers/peripheral/scb/cy_scb_uart.h **** * The \ref group_scb_uart_low_level_functions functions allow
 147:Generated_Source\PSoC6\pdl\drivers/peripheral/scb/cy_scb_uart.h **** * interacting directly with the hardware and do not use \ref Cy_SCB_UART_Interrupt.
 148:Generated_Source\PSoC6\pdl\drivers/peripheral/scb/cy_scb_uart.h **** * These functions do not require context for operation. Thus, NULL can be
 149:Generated_Source\PSoC6\pdl\drivers/peripheral/scb/cy_scb_uart.h **** * passed for context parameter in \ref Cy_SCB_UART_Init and \ref Cy_SCB_UART_Disable
 150:Generated_Source\PSoC6\pdl\drivers/peripheral/scb/cy_scb_uart.h **** * instead of a pointer to the context structure.
 151:Generated_Source\PSoC6\pdl\drivers/peripheral/scb/cy_scb_uart.h **** *
 152:Generated_Source\PSoC6\pdl\drivers/peripheral/scb/cy_scb_uart.h **** * * To write data into the TX FIFO, use one of the provided functions:
 153:Generated_Source\PSoC6\pdl\drivers/peripheral/scb/cy_scb_uart.h **** *   \ref Cy_SCB_UART_Put, \ref Cy_SCB_UART_PutArray,
 154:Generated_Source\PSoC6\pdl\drivers/peripheral/scb/cy_scb_uart.h **** *   \ref Cy_SCB_UART_PutArrayBlocking or \ref Cy_SCB_UART_PutString.
 155:Generated_Source\PSoC6\pdl\drivers/peripheral/scb/cy_scb_uart.h **** *   Note that putting data into the TX FIFO starts data transfer.
 156:Generated_Source\PSoC6\pdl\drivers/peripheral/scb/cy_scb_uart.h **** *
 157:Generated_Source\PSoC6\pdl\drivers/peripheral/scb/cy_scb_uart.h **** * * To read data from the RX FIFO, use one of the provided functions:
 158:Generated_Source\PSoC6\pdl\drivers/peripheral/scb/cy_scb_uart.h **** *   \ref Cy_SCB_UART_Get, \ref Cy_SCB_UART_GetArray or
 159:Generated_Source\PSoC6\pdl\drivers/peripheral/scb/cy_scb_uart.h **** *   \ref Cy_SCB_UART_GetArrayBlocking.
 160:Generated_Source\PSoC6\pdl\drivers/peripheral/scb/cy_scb_uart.h **** *
 161:Generated_Source\PSoC6\pdl\drivers/peripheral/scb/cy_scb_uart.h **** * * The statuses can be polled using: \ref Cy_SCB_UART_GetRxFifoStatus and
 162:Generated_Source\PSoC6\pdl\drivers/peripheral/scb/cy_scb_uart.h **** *   \ref Cy_SCB_UART_GetTxFifoStatus.
 163:Generated_Source\PSoC6\pdl\drivers/peripheral/scb/cy_scb_uart.h **** *   <em>The statuses are <b>W1C (Write 1 to Clear)</b> and after a status
 164:Generated_Source\PSoC6\pdl\drivers/peripheral/scb/cy_scb_uart.h **** *   is set, it must be cleared.</em> Note that there are statuses evaluated as level.
 165:Generated_Source\PSoC6\pdl\drivers/peripheral/scb/cy_scb_uart.h **** *   These statuses remain set until an event is true. Therefore, after the clear
 166:Generated_Source\PSoC6\pdl\drivers/peripheral/scb/cy_scb_uart.h **** *   operation, the status is cleared but then it is restored (if event is still
 167:Generated_Source\PSoC6\pdl\drivers/peripheral/scb/cy_scb_uart.h **** *   true).
 168:Generated_Source\PSoC6\pdl\drivers/peripheral/scb/cy_scb_uart.h **** *   Also, the following functions can be used for polling as well
 169:Generated_Source\PSoC6\pdl\drivers/peripheral/scb/cy_scb_uart.h **** *   \ref Cy_SCB_UART_IsTxComplete, \ref Cy_SCB_UART_GetNumInRxFifo and
 170:Generated_Source\PSoC6\pdl\drivers/peripheral/scb/cy_scb_uart.h **** *   \ref Cy_SCB_UART_GetNumInTxFifo.
 171:Generated_Source\PSoC6\pdl\drivers/peripheral/scb/cy_scb_uart.h **** *
 172:Generated_Source\PSoC6\pdl\drivers/peripheral/scb/cy_scb_uart.h **** * \snippet SCB_CompDatasheet_sut_01_revA.cydsn\uart_snippets.c UART_TRANSMIT_DATA_LL
 173:Generated_Source\PSoC6\pdl\drivers/peripheral/scb/cy_scb_uart.h **** *
 174:Generated_Source\PSoC6\pdl\drivers/peripheral/scb/cy_scb_uart.h **** ********************************************************************************
 175:Generated_Source\PSoC6\pdl\drivers/peripheral/scb/cy_scb_uart.h **** * \subsection group_scb_uart_hl High-Level API
 176:Generated_Source\PSoC6\pdl\drivers/peripheral/scb/cy_scb_uart.h **** ********************************************************************************
 177:Generated_Source\PSoC6\pdl\drivers/peripheral/scb/cy_scb_uart.h **** * The \ref group_scb_uart_high_level_functions API use \ref Cy_SCB_UART_Interrupt
 178:Generated_Source\PSoC6\pdl\drivers/peripheral/scb/cy_scb_uart.h **** * to execute the transfer. Call \ref Cy_SCB_UART_Transmit to start transmission.
 179:Generated_Source\PSoC6\pdl\drivers/peripheral/scb/cy_scb_uart.h **** * Call \ref Cy_SCB_UART_Receive to start receive operation. After the
 180:Generated_Source\PSoC6\pdl\drivers/peripheral/scb/cy_scb_uart.h **** * operation is started the \ref Cy_SCB_UART_Interrupt handles the data
 181:Generated_Source\PSoC6\pdl\drivers/peripheral/scb/cy_scb_uart.h **** * transfer until its completion.
 182:Generated_Source\PSoC6\pdl\drivers/peripheral/scb/cy_scb_uart.h **** * Therefore \ref Cy_SCB_UART_Interrupt must be called inside the user
 183:Generated_Source\PSoC6\pdl\drivers/peripheral/scb/cy_scb_uart.h **** * interrupt handler to make the High-Level API work. To monitor status
 184:Generated_Source\PSoC6\pdl\drivers/peripheral/scb/cy_scb_uart.h **** * of transmit operation, use \ref Cy_SCB_UART_GetTransmitStatus and
 185:Generated_Source\PSoC6\pdl\drivers/peripheral/scb/cy_scb_uart.h **** * \ref Cy_SCB_UART_GetReceiveStatus to monitor receive status appropriately.
 186:Generated_Source\PSoC6\pdl\drivers/peripheral/scb/cy_scb_uart.h **** * Alternatively use \ref Cy_SCB_UART_RegisterCallback to register callback
 187:Generated_Source\PSoC6\pdl\drivers/peripheral/scb/cy_scb_uart.h **** * function to be notified about \ref group_scb_uart_macros_callback_events.
 188:Generated_Source\PSoC6\pdl\drivers/peripheral/scb/cy_scb_uart.h **** *
 189:Generated_Source\PSoC6\pdl\drivers/peripheral/scb/cy_scb_uart.h **** * <b>Receive Operation</b>
 190:Generated_Source\PSoC6\pdl\drivers/peripheral/scb/cy_scb_uart.h **** * \snippet SCB_CompDatasheet_sut_01_revA.cydsn\uart_snippets.c UART_RECEIVE_DATA_HL
 191:Generated_Source\PSoC6\pdl\drivers/peripheral/scb/cy_scb_uart.h **** *
 192:Generated_Source\PSoC6\pdl\drivers/peripheral/scb/cy_scb_uart.h **** * <b>Transmit Operation</b>
 193:Generated_Source\PSoC6\pdl\drivers/peripheral/scb/cy_scb_uart.h **** * \snippet SCB_CompDatasheet_sut_01_revA.cydsn\uart_snippets.c UART_TRANSMIT_DATA_HL
 194:Generated_Source\PSoC6\pdl\drivers/peripheral/scb/cy_scb_uart.h **** *
 195:Generated_Source\PSoC6\pdl\drivers/peripheral/scb/cy_scb_uart.h **** * There is also capability to insert a receive ring buffer that operates between
ARM GAS  C:\Users\oars0\AppData\Local\Temp\cc0aZXkW.s 			page 44


 196:Generated_Source\PSoC6\pdl\drivers/peripheral/scb/cy_scb_uart.h **** * the RX FIFO and the user buffer. The received data is copied into the ring
 197:Generated_Source\PSoC6\pdl\drivers/peripheral/scb/cy_scb_uart.h **** * buffer from the RX FIFO. This process runs in the background after the ring
 198:Generated_Source\PSoC6\pdl\drivers/peripheral/scb/cy_scb_uart.h **** * buffer operation is started by \ref Cy_SCB_UART_StartRingBuffer.
 199:Generated_Source\PSoC6\pdl\drivers/peripheral/scb/cy_scb_uart.h **** * When \ref Cy_SCB_UART_Receive is called, it first reads data from the ring
 200:Generated_Source\PSoC6\pdl\drivers/peripheral/scb/cy_scb_uart.h **** * buffer and then sets up an interrupt to receive more data if the required
 201:Generated_Source\PSoC6\pdl\drivers/peripheral/scb/cy_scb_uart.h **** * amount has not yet been read.
 202:Generated_Source\PSoC6\pdl\drivers/peripheral/scb/cy_scb_uart.h **** *
 203:Generated_Source\PSoC6\pdl\drivers/peripheral/scb/cy_scb_uart.h **** ********************************************************************************
 204:Generated_Source\PSoC6\pdl\drivers/peripheral/scb/cy_scb_uart.h **** * \section group_scb_uart_dma_trig DMA Trigger
 205:Generated_Source\PSoC6\pdl\drivers/peripheral/scb/cy_scb_uart.h **** ********************************************************************************
 206:Generated_Source\PSoC6\pdl\drivers/peripheral/scb/cy_scb_uart.h **** * The SCB provides TX and RX output trigger signals that can be routed to the
 207:Generated_Source\PSoC6\pdl\drivers/peripheral/scb/cy_scb_uart.h **** * DMA controller inputs. These signals are assigned based on the data availability
 208:Generated_Source\PSoC6\pdl\drivers/peripheral/scb/cy_scb_uart.h **** * in the TX and RX FIFOs appropriately.
 209:Generated_Source\PSoC6\pdl\drivers/peripheral/scb/cy_scb_uart.h **** *
 210:Generated_Source\PSoC6\pdl\drivers/peripheral/scb/cy_scb_uart.h **** * * The RX trigger signal is active while the number of data
 211:Generated_Source\PSoC6\pdl\drivers/peripheral/scb/cy_scb_uart.h **** *   elements in the RX FIFO is greater than the value of RX FIFO level. Use
 212:Generated_Source\PSoC6\pdl\drivers/peripheral/scb/cy_scb_uart.h **** *   function \ref Cy_SCB_SetRxFifoLevel or set configuration structure
 213:Generated_Source\PSoC6\pdl\drivers/peripheral/scb/cy_scb_uart.h **** *   rxFifoTriggerLevel parameter to configure RX FIFO level value. \n
 214:Generated_Source\PSoC6\pdl\drivers/peripheral/scb/cy_scb_uart.h **** *   <em>For example, the RX FIFO has 8 data elements and the RX FIFO level is 0.
 215:Generated_Source\PSoC6\pdl\drivers/peripheral/scb/cy_scb_uart.h **** *   The RX trigger signal is active until DMA reads all data from
 216:Generated_Source\PSoC6\pdl\drivers/peripheral/scb/cy_scb_uart.h **** *   the RX FIFO.</em>
 217:Generated_Source\PSoC6\pdl\drivers/peripheral/scb/cy_scb_uart.h **** *
 218:Generated_Source\PSoC6\pdl\drivers/peripheral/scb/cy_scb_uart.h **** * * The TX trigger signal is active while the number of data elements
 219:Generated_Source\PSoC6\pdl\drivers/peripheral/scb/cy_scb_uart.h **** *   in the TX FIFO is less than the value of TX FIFO level. Use function
 220:Generated_Source\PSoC6\pdl\drivers/peripheral/scb/cy_scb_uart.h **** *   \ref Cy_SCB_SetTxFifoLevel or set configuration structure txFifoTriggerLevel
 221:Generated_Source\PSoC6\pdl\drivers/peripheral/scb/cy_scb_uart.h **** *   parameter to configure TX FIFO level value. \n
 222:Generated_Source\PSoC6\pdl\drivers/peripheral/scb/cy_scb_uart.h **** *   <em>For example, the TX FIFO has 0 data elements (empty) and the TX FIFO level
 223:Generated_Source\PSoC6\pdl\drivers/peripheral/scb/cy_scb_uart.h **** *   is 7. The TX trigger signal is active until DMA loads TX FIFO
 224:Generated_Source\PSoC6\pdl\drivers/peripheral/scb/cy_scb_uart.h **** *   with 8 data elements (note that after the first TX load operation, the data
 225:Generated_Source\PSoC6\pdl\drivers/peripheral/scb/cy_scb_uart.h **** *   element goes to the shift register and TX FIFO is empty).</em>
 226:Generated_Source\PSoC6\pdl\drivers/peripheral/scb/cy_scb_uart.h **** *
 227:Generated_Source\PSoC6\pdl\drivers/peripheral/scb/cy_scb_uart.h **** * To route SCB TX or RX trigger signals to DMA controller use \ref group_trigmux
 228:Generated_Source\PSoC6\pdl\drivers/peripheral/scb/cy_scb_uart.h **** * driver API.
 229:Generated_Source\PSoC6\pdl\drivers/peripheral/scb/cy_scb_uart.h **** *
 230:Generated_Source\PSoC6\pdl\drivers/peripheral/scb/cy_scb_uart.h **** * \note
 231:Generated_Source\PSoC6\pdl\drivers/peripheral/scb/cy_scb_uart.h **** * To properly handle DMA level request signal activation and de-activation from the SCB
 232:Generated_Source\PSoC6\pdl\drivers/peripheral/scb/cy_scb_uart.h **** * peripheral block the DMA Descriptor typically must be configured to re-trigger
 233:Generated_Source\PSoC6\pdl\drivers/peripheral/scb/cy_scb_uart.h **** * after 16 Clk_Slow cycles.
 234:Generated_Source\PSoC6\pdl\drivers/peripheral/scb/cy_scb_uart.h **** *
 235:Generated_Source\PSoC6\pdl\drivers/peripheral/scb/cy_scb_uart.h **** ********************************************************************************
 236:Generated_Source\PSoC6\pdl\drivers/peripheral/scb/cy_scb_uart.h **** * \section group_scb_uart_lp Low Power Support
 237:Generated_Source\PSoC6\pdl\drivers/peripheral/scb/cy_scb_uart.h **** ********************************************************************************
 238:Generated_Source\PSoC6\pdl\drivers/peripheral/scb/cy_scb_uart.h **** * The UART driver provides callback functions to handle power mode
 239:Generated_Source\PSoC6\pdl\drivers/peripheral/scb/cy_scb_uart.h **** * transition. The callback \ref Cy_SCB_UART_DeepSleepCallback must be called
 240:Generated_Source\PSoC6\pdl\drivers/peripheral/scb/cy_scb_uart.h **** * during execution of \ref Cy_SysPm_CpuEnterDeepSleep \ref Cy_SCB_UART_HibernateCallback
 241:Generated_Source\PSoC6\pdl\drivers/peripheral/scb/cy_scb_uart.h **** * must be called during execution of \ref Cy_SysPm_SystemEnterHibernate. To trigger the
 242:Generated_Source\PSoC6\pdl\drivers/peripheral/scb/cy_scb_uart.h **** * callback execution, the callback must be registered before calling the
 243:Generated_Source\PSoC6\pdl\drivers/peripheral/scb/cy_scb_uart.h **** * power mode transition function. Refer to \ref group_syspm driver for more
 244:Generated_Source\PSoC6\pdl\drivers/peripheral/scb/cy_scb_uart.h **** * information about power mode transitions and callback registration.
 245:Generated_Source\PSoC6\pdl\drivers/peripheral/scb/cy_scb_uart.h **** *
 246:Generated_Source\PSoC6\pdl\drivers/peripheral/scb/cy_scb_uart.h **** * The UART is disabled during Deep Sleep and Hibernate and stops driving
 247:Generated_Source\PSoC6\pdl\drivers/peripheral/scb/cy_scb_uart.h **** * the output pins. The state of the UART output pins TX and RTS is High-Z,
 248:Generated_Source\PSoC6\pdl\drivers/peripheral/scb/cy_scb_uart.h **** * which can cause unexpected behavior of the UART receiver due to possible
 249:Generated_Source\PSoC6\pdl\drivers/peripheral/scb/cy_scb_uart.h **** * glitches on these lines. These pins must be set to the inactive state before
 250:Generated_Source\PSoC6\pdl\drivers/peripheral/scb/cy_scb_uart.h **** * entering Deep Sleep or Hibernate mode.
 251:Generated_Source\PSoC6\pdl\drivers/peripheral/scb/cy_scb_uart.h **** * These pins must keep the inactive level (the same state
 252:Generated_Source\PSoC6\pdl\drivers/peripheral/scb/cy_scb_uart.h **** * when UART TX is enabled and does not transfer data) before entering Deep
ARM GAS  C:\Users\oars0\AppData\Local\Temp\cc0aZXkW.s 			page 45


 253:Generated_Source\PSoC6\pdl\drivers/peripheral/scb/cy_scb_uart.h **** * Sleep or Hibernate mode. To do that, write the GPIO data register of each pin
 254:Generated_Source\PSoC6\pdl\drivers/peripheral/scb/cy_scb_uart.h **** * to the inactive level for each output pin. Then configure High-Speed Input
 255:Generated_Source\PSoC6\pdl\drivers/peripheral/scb/cy_scb_uart.h **** * Output Multiplexer (HSIOM) of each pin to be controlled by the GPIO (use
 256:Generated_Source\PSoC6\pdl\drivers/peripheral/scb/cy_scb_uart.h **** * \ref group_gpio driver API). After exiting Deep Sleep mode the UART
 257:Generated_Source\PSoC6\pdl\drivers/peripheral/scb/cy_scb_uart.h **** * must be enabled and the pins configuration restored to return the
 258:Generated_Source\PSoC6\pdl\drivers/peripheral/scb/cy_scb_uart.h **** * UART control of the pins (after exiting Hibernate mode, the
 259:Generated_Source\PSoC6\pdl\drivers/peripheral/scb/cy_scb_uart.h **** * system initialization code does the same). Copy either or
 260:Generated_Source\PSoC6\pdl\drivers/peripheral/scb/cy_scb_uart.h **** * both \ref Cy_SCB_UART_DeepSleepCallback and \ref Cy_SCB_UART_HibernateCallback
 261:Generated_Source\PSoC6\pdl\drivers/peripheral/scb/cy_scb_uart.h **** * as appropriate, and make the changes described above inside the function.
 262:Generated_Source\PSoC6\pdl\drivers/peripheral/scb/cy_scb_uart.h **** * Alternately, external pull-up or pull-down resistors can be connected
 263:Generated_Source\PSoC6\pdl\drivers/peripheral/scb/cy_scb_uart.h **** * to the appropriate UART lines to keep them inactive during Deep-Sleep or
 264:Generated_Source\PSoC6\pdl\drivers/peripheral/scb/cy_scb_uart.h **** * Hibernate.
 265:Generated_Source\PSoC6\pdl\drivers/peripheral/scb/cy_scb_uart.h **** *
 266:Generated_Source\PSoC6\pdl\drivers/peripheral/scb/cy_scb_uart.h **** ********************************************************************************
 267:Generated_Source\PSoC6\pdl\drivers/peripheral/scb/cy_scb_uart.h **** * \section group_scb_uart_more_information More Information
 268:Generated_Source\PSoC6\pdl\drivers/peripheral/scb/cy_scb_uart.h **** ********************************************************************************
 269:Generated_Source\PSoC6\pdl\drivers/peripheral/scb/cy_scb_uart.h **** * For more information on the SCB peripheral, refer to the technical reference
 270:Generated_Source\PSoC6\pdl\drivers/peripheral/scb/cy_scb_uart.h **** * manual (TRM).
 271:Generated_Source\PSoC6\pdl\drivers/peripheral/scb/cy_scb_uart.h **** *
 272:Generated_Source\PSoC6\pdl\drivers/peripheral/scb/cy_scb_uart.h **** ********************************************************************************
 273:Generated_Source\PSoC6\pdl\drivers/peripheral/scb/cy_scb_uart.h **** * \section group_scb_uart_MISRA MISRA-C Compliance
 274:Generated_Source\PSoC6\pdl\drivers/peripheral/scb/cy_scb_uart.h **** ********************************************************************************
 275:Generated_Source\PSoC6\pdl\drivers/peripheral/scb/cy_scb_uart.h **** * <table class="doxtable">
 276:Generated_Source\PSoC6\pdl\drivers/peripheral/scb/cy_scb_uart.h **** *   <tr>
 277:Generated_Source\PSoC6\pdl\drivers/peripheral/scb/cy_scb_uart.h **** *     <th>MISRA Rule</th>
 278:Generated_Source\PSoC6\pdl\drivers/peripheral/scb/cy_scb_uart.h **** *     <th>Rule Class (Required/Advisory)</th>
 279:Generated_Source\PSoC6\pdl\drivers/peripheral/scb/cy_scb_uart.h **** *     <th>Rule Description</th>
 280:Generated_Source\PSoC6\pdl\drivers/peripheral/scb/cy_scb_uart.h **** *     <th>Description of Deviation(s)</th>
 281:Generated_Source\PSoC6\pdl\drivers/peripheral/scb/cy_scb_uart.h **** *   </tr>
 282:Generated_Source\PSoC6\pdl\drivers/peripheral/scb/cy_scb_uart.h **** *   <tr>
 283:Generated_Source\PSoC6\pdl\drivers/peripheral/scb/cy_scb_uart.h **** *     <td>11.4</td>
 284:Generated_Source\PSoC6\pdl\drivers/peripheral/scb/cy_scb_uart.h **** *     <td>A</td>
 285:Generated_Source\PSoC6\pdl\drivers/peripheral/scb/cy_scb_uart.h **** *     <td>A cast should not be performed between a pointer to object type and
 286:Generated_Source\PSoC6\pdl\drivers/peripheral/scb/cy_scb_uart.h **** *         a different pointer to object type.</td>
 287:Generated_Source\PSoC6\pdl\drivers/peripheral/scb/cy_scb_uart.h **** *     <td>
 288:Generated_Source\PSoC6\pdl\drivers/peripheral/scb/cy_scb_uart.h **** *         * The pointer to the buffer memory is void to allow handling different
 289:Generated_Source\PSoC6\pdl\drivers/peripheral/scb/cy_scb_uart.h **** *         different data types: uint8_t (4-8 bits) or uint16_t (9-16 bits).
 290:Generated_Source\PSoC6\pdl\drivers/peripheral/scb/cy_scb_uart.h **** *         The cast operation is safe because the configuration is verified
 291:Generated_Source\PSoC6\pdl\drivers/peripheral/scb/cy_scb_uart.h **** *         before operation is performed.
 292:Generated_Source\PSoC6\pdl\drivers/peripheral/scb/cy_scb_uart.h **** *         * The functions \ref Cy_SCB_UART_DeepSleepCallback and
 293:Generated_Source\PSoC6\pdl\drivers/peripheral/scb/cy_scb_uart.h **** *         \ref Cy_SCB_UART_HibernateCallback are callback of
 294:Generated_Source\PSoC6\pdl\drivers/peripheral/scb/cy_scb_uart.h **** *         \ref cy_en_syspm_status_t type. The cast operation safety in these
 295:Generated_Source\PSoC6\pdl\drivers/peripheral/scb/cy_scb_uart.h **** *         functions becomes the user's responsibility because pointers are
 296:Generated_Source\PSoC6\pdl\drivers/peripheral/scb/cy_scb_uart.h **** *         initialized when callback is registered in SysPm driver.</td>
 297:Generated_Source\PSoC6\pdl\drivers/peripheral/scb/cy_scb_uart.h **** *   </tr>
 298:Generated_Source\PSoC6\pdl\drivers/peripheral/scb/cy_scb_uart.h **** *   <tr>
 299:Generated_Source\PSoC6\pdl\drivers/peripheral/scb/cy_scb_uart.h **** *     <td>14.2</td>
 300:Generated_Source\PSoC6\pdl\drivers/peripheral/scb/cy_scb_uart.h **** *     <td>R</td>
 301:Generated_Source\PSoC6\pdl\drivers/peripheral/scb/cy_scb_uart.h **** *     <td>All non-null statements shall either: a) have at least one side-effect
 302:Generated_Source\PSoC6\pdl\drivers/peripheral/scb/cy_scb_uart.h **** *         however executed, or b) cause control flow to change.</td>
 303:Generated_Source\PSoC6\pdl\drivers/peripheral/scb/cy_scb_uart.h **** *     <td>The unused function parameters are cast to void. This statement
 304:Generated_Source\PSoC6\pdl\drivers/peripheral/scb/cy_scb_uart.h **** *         has no side-effect and is used to suppress a compiler warning.</td>
 305:Generated_Source\PSoC6\pdl\drivers/peripheral/scb/cy_scb_uart.h **** *   </tr>
 306:Generated_Source\PSoC6\pdl\drivers/peripheral/scb/cy_scb_uart.h **** *   <tr>
 307:Generated_Source\PSoC6\pdl\drivers/peripheral/scb/cy_scb_uart.h **** *     <td>14.7</td>
 308:Generated_Source\PSoC6\pdl\drivers/peripheral/scb/cy_scb_uart.h **** *     <td>R</td>
 309:Generated_Source\PSoC6\pdl\drivers/peripheral/scb/cy_scb_uart.h **** *     <td>A function shall have a single point of exit at the end of the
ARM GAS  C:\Users\oars0\AppData\Local\Temp\cc0aZXkW.s 			page 46


 310:Generated_Source\PSoC6\pdl\drivers/peripheral/scb/cy_scb_uart.h **** *         function.</td>
 311:Generated_Source\PSoC6\pdl\drivers/peripheral/scb/cy_scb_uart.h **** *     <td>The functions can return from several points. This is done to improve
 312:Generated_Source\PSoC6\pdl\drivers/peripheral/scb/cy_scb_uart.h **** *         code clarity when returning error status code if input parameters
 313:Generated_Source\PSoC6\pdl\drivers/peripheral/scb/cy_scb_uart.h **** *         validation fails.</td>
 314:Generated_Source\PSoC6\pdl\drivers/peripheral/scb/cy_scb_uart.h **** *   </tr>
 315:Generated_Source\PSoC6\pdl\drivers/peripheral/scb/cy_scb_uart.h **** * </table>
 316:Generated_Source\PSoC6\pdl\drivers/peripheral/scb/cy_scb_uart.h **** *
 317:Generated_Source\PSoC6\pdl\drivers/peripheral/scb/cy_scb_uart.h **** * \section group_scb_uart_changelog Changelog
 318:Generated_Source\PSoC6\pdl\drivers/peripheral/scb/cy_scb_uart.h **** * <table class="doxtable">
 319:Generated_Source\PSoC6\pdl\drivers/peripheral/scb/cy_scb_uart.h **** *   <tr><th>Version</th><th>Changes</th><th>Reason for Change</th></tr>
 320:Generated_Source\PSoC6\pdl\drivers/peripheral/scb/cy_scb_uart.h **** *   <tr>
 321:Generated_Source\PSoC6\pdl\drivers/peripheral/scb/cy_scb_uart.h **** *     <td rowspan="2">2.20</td>
 322:Generated_Source\PSoC6\pdl\drivers/peripheral/scb/cy_scb_uart.h **** *     <td>Flattened the organization of the driver source code into the single
 323:Generated_Source\PSoC6\pdl\drivers/peripheral/scb/cy_scb_uart.h **** *         source directory and the single include directory.
 324:Generated_Source\PSoC6\pdl\drivers/peripheral/scb/cy_scb_uart.h **** *     </td>
 325:Generated_Source\PSoC6\pdl\drivers/peripheral/scb/cy_scb_uart.h **** *     <td>Driver library directory-structure simplification.</td>
 326:Generated_Source\PSoC6\pdl\drivers/peripheral/scb/cy_scb_uart.h **** *   </tr>
 327:Generated_Source\PSoC6\pdl\drivers/peripheral/scb/cy_scb_uart.h **** *   <tr>
 328:Generated_Source\PSoC6\pdl\drivers/peripheral/scb/cy_scb_uart.h **** *     <td>Added register access layer. Use register access macros instead
 329:Generated_Source\PSoC6\pdl\drivers/peripheral/scb/cy_scb_uart.h **** *         of direct register access using dereferenced pointers.</td>
 330:Generated_Source\PSoC6\pdl\drivers/peripheral/scb/cy_scb_uart.h **** *     <td>Makes register access device-independent, so that the PDL does
 331:Generated_Source\PSoC6\pdl\drivers/peripheral/scb/cy_scb_uart.h **** *         not need to be recompiled for each supported part number.</td>
 332:Generated_Source\PSoC6\pdl\drivers/peripheral/scb/cy_scb_uart.h **** *   </tr>
 333:Generated_Source\PSoC6\pdl\drivers/peripheral/scb/cy_scb_uart.h **** *   <tr>
 334:Generated_Source\PSoC6\pdl\drivers/peripheral/scb/cy_scb_uart.h **** *     <td>2.10</td>
 335:Generated_Source\PSoC6\pdl\drivers/peripheral/scb/cy_scb_uart.h **** *     <td>None.</td>
 336:Generated_Source\PSoC6\pdl\drivers/peripheral/scb/cy_scb_uart.h **** *     <td>SCB I2C driver updated.</td>
 337:Generated_Source\PSoC6\pdl\drivers/peripheral/scb/cy_scb_uart.h **** *   </tr>
 338:Generated_Source\PSoC6\pdl\drivers/peripheral/scb/cy_scb_uart.h **** *   <tr>
 339:Generated_Source\PSoC6\pdl\drivers/peripheral/scb/cy_scb_uart.h **** *     <td rowspan="5">2.0</td>
 340:Generated_Source\PSoC6\pdl\drivers/peripheral/scb/cy_scb_uart.h **** *     <td>Added parameters validation for public API.</td>
 341:Generated_Source\PSoC6\pdl\drivers/peripheral/scb/cy_scb_uart.h **** *     <td></td>
 342:Generated_Source\PSoC6\pdl\drivers/peripheral/scb/cy_scb_uart.h **** *   </tr>
 343:Generated_Source\PSoC6\pdl\drivers/peripheral/scb/cy_scb_uart.h **** *   <tr>
 344:Generated_Source\PSoC6\pdl\drivers/peripheral/scb/cy_scb_uart.h **** *     <td>Replaced variables that have limited range of values with enumerated
 345:Generated_Source\PSoC6\pdl\drivers/peripheral/scb/cy_scb_uart.h **** *         types.</td>
 346:Generated_Source\PSoC6\pdl\drivers/peripheral/scb/cy_scb_uart.h **** *     <td></td>
 347:Generated_Source\PSoC6\pdl\drivers/peripheral/scb/cy_scb_uart.h **** *   </tr>
 348:Generated_Source\PSoC6\pdl\drivers/peripheral/scb/cy_scb_uart.h **** *   <tr>
 349:Generated_Source\PSoC6\pdl\drivers/peripheral/scb/cy_scb_uart.h **** *     <td>Added missing "cy_cb_" to the callback function type names.</td>
 350:Generated_Source\PSoC6\pdl\drivers/peripheral/scb/cy_scb_uart.h **** *     <td></td>
 351:Generated_Source\PSoC6\pdl\drivers/peripheral/scb/cy_scb_uart.h **** *   </tr>
 352:Generated_Source\PSoC6\pdl\drivers/peripheral/scb/cy_scb_uart.h **** *   <tr>
 353:Generated_Source\PSoC6\pdl\drivers/peripheral/scb/cy_scb_uart.h **** *     <td>Added function \ref Cy_SCB_UART_SendBreakBlocking for break condition
 354:Generated_Source\PSoC6\pdl\drivers/peripheral/scb/cy_scb_uart.h **** *         generation.</td>
 355:Generated_Source\PSoC6\pdl\drivers/peripheral/scb/cy_scb_uart.h **** *     <td></td>
 356:Generated_Source\PSoC6\pdl\drivers/peripheral/scb/cy_scb_uart.h **** *   </tr>
 357:Generated_Source\PSoC6\pdl\drivers/peripheral/scb/cy_scb_uart.h **** *   <tr>
 358:Generated_Source\PSoC6\pdl\drivers/peripheral/scb/cy_scb_uart.h **** *     <td>Fixed low power callbacks \ref Cy_SCB_UART_DeepSleepCallback and
 359:Generated_Source\PSoC6\pdl\drivers/peripheral/scb/cy_scb_uart.h **** *         \ref Cy_SCB_UART_HibernateCallback to prevent the device from entering
 360:Generated_Source\PSoC6\pdl\drivers/peripheral/scb/cy_scb_uart.h **** *         low power mode when RX FIFO is not empty.</td>
 361:Generated_Source\PSoC6\pdl\drivers/peripheral/scb/cy_scb_uart.h **** *     <td>The callbacks allowed entering device into low power mode when RX FIFO
 362:Generated_Source\PSoC6\pdl\drivers/peripheral/scb/cy_scb_uart.h **** *         had data.</td>
 363:Generated_Source\PSoC6\pdl\drivers/peripheral/scb/cy_scb_uart.h **** *   </tr>
 364:Generated_Source\PSoC6\pdl\drivers/peripheral/scb/cy_scb_uart.h **** *   <tr>
 365:Generated_Source\PSoC6\pdl\drivers/peripheral/scb/cy_scb_uart.h **** *     <td>1.0</td>
 366:Generated_Source\PSoC6\pdl\drivers/peripheral/scb/cy_scb_uart.h **** *     <td>Initial version.</td>
ARM GAS  C:\Users\oars0\AppData\Local\Temp\cc0aZXkW.s 			page 47


 367:Generated_Source\PSoC6\pdl\drivers/peripheral/scb/cy_scb_uart.h **** *     <td></td>
 368:Generated_Source\PSoC6\pdl\drivers/peripheral/scb/cy_scb_uart.h **** *   </tr>
 369:Generated_Source\PSoC6\pdl\drivers/peripheral/scb/cy_scb_uart.h **** * </table>
 370:Generated_Source\PSoC6\pdl\drivers/peripheral/scb/cy_scb_uart.h **** *
 371:Generated_Source\PSoC6\pdl\drivers/peripheral/scb/cy_scb_uart.h **** * \defgroup group_scb_uart_macros Macros
 372:Generated_Source\PSoC6\pdl\drivers/peripheral/scb/cy_scb_uart.h **** * \defgroup group_scb_uart_functions Functions
 373:Generated_Source\PSoC6\pdl\drivers/peripheral/scb/cy_scb_uart.h **** * \{
 374:Generated_Source\PSoC6\pdl\drivers/peripheral/scb/cy_scb_uart.h **** * \defgroup group_scb_uart_general_functions General
 375:Generated_Source\PSoC6\pdl\drivers/peripheral/scb/cy_scb_uart.h **** * \defgroup group_scb_uart_high_level_functions High-Level
 376:Generated_Source\PSoC6\pdl\drivers/peripheral/scb/cy_scb_uart.h **** * \defgroup group_scb_uart_low_level_functions Low-Level
 377:Generated_Source\PSoC6\pdl\drivers/peripheral/scb/cy_scb_uart.h **** * \defgroup group_scb_uart_interrupt_functions Interrupt
 378:Generated_Source\PSoC6\pdl\drivers/peripheral/scb/cy_scb_uart.h **** * \defgroup group_scb_uart_low_power_functions Low Power Callbacks
 379:Generated_Source\PSoC6\pdl\drivers/peripheral/scb/cy_scb_uart.h **** * \}
 380:Generated_Source\PSoC6\pdl\drivers/peripheral/scb/cy_scb_uart.h **** * \defgroup group_scb_uart_data_structures Data Structures
 381:Generated_Source\PSoC6\pdl\drivers/peripheral/scb/cy_scb_uart.h **** * \defgroup group_scb_uart_enums Enumerated Types
 382:Generated_Source\PSoC6\pdl\drivers/peripheral/scb/cy_scb_uart.h **** */
 383:Generated_Source\PSoC6\pdl\drivers/peripheral/scb/cy_scb_uart.h **** 
 384:Generated_Source\PSoC6\pdl\drivers/peripheral/scb/cy_scb_uart.h **** #if !defined(CY_SCB_UART_H)
 385:Generated_Source\PSoC6\pdl\drivers/peripheral/scb/cy_scb_uart.h **** #define CY_SCB_UART_H
